
build/ch.elf:     file format elf32-littlearm


Disassembly of section .text:

08005160 <Reset_Handler>:
 8005160:	b672      	cpsid	i
 8005162:	4821      	ldr	r0, [pc, #132]	; (80051e8 <endfiniloop+0x4>)
 8005164:	f380 8809 	msr	PSP, r0
 8005168:	2002      	movs	r0, #2
 800516a:	f380 8814 	msr	CONTROL, r0
 800516e:	f3bf 8f6f 	isb	sy
 8005172:	f001 ff7d 	bl	8007070 <__core_init>
 8005176:	f002 fc6b 	bl	8007a50 <__early_init>
 800517a:	481c      	ldr	r0, [pc, #112]	; (80051ec <endfiniloop+0x8>)
 800517c:	491c      	ldr	r1, [pc, #112]	; (80051f0 <endfiniloop+0xc>)
 800517e:	4a1d      	ldr	r2, [pc, #116]	; (80051f4 <endfiniloop+0x10>)

08005180 <msloop>:
 8005180:	4291      	cmp	r1, r2
 8005182:	bf3c      	itt	cc
 8005184:	f841 0b04 	strcc.w	r0, [r1], #4
 8005188:	e7fa      	bcc.n	8005180 <msloop>
 800518a:	491b      	ldr	r1, [pc, #108]	; (80051f8 <endfiniloop+0x14>)
 800518c:	4a16      	ldr	r2, [pc, #88]	; (80051e8 <endfiniloop+0x4>)

0800518e <psloop>:
 800518e:	4291      	cmp	r1, r2
 8005190:	bf3c      	itt	cc
 8005192:	f841 0b04 	strcc.w	r0, [r1], #4
 8005196:	e7fa      	bcc.n	800518e <psloop>
 8005198:	4918      	ldr	r1, [pc, #96]	; (80051fc <endfiniloop+0x18>)
 800519a:	4a19      	ldr	r2, [pc, #100]	; (8005200 <endfiniloop+0x1c>)
 800519c:	4b19      	ldr	r3, [pc, #100]	; (8005204 <endfiniloop+0x20>)

0800519e <dloop>:
 800519e:	429a      	cmp	r2, r3
 80051a0:	bf3e      	ittt	cc
 80051a2:	f851 0b04 	ldrcc.w	r0, [r1], #4
 80051a6:	f842 0b04 	strcc.w	r0, [r2], #4
 80051aa:	e7f8      	bcc.n	800519e <dloop>
 80051ac:	2000      	movs	r0, #0
 80051ae:	4916      	ldr	r1, [pc, #88]	; (8005208 <endfiniloop+0x24>)
 80051b0:	4a16      	ldr	r2, [pc, #88]	; (800520c <endfiniloop+0x28>)

080051b2 <bloop>:
 80051b2:	4291      	cmp	r1, r2
 80051b4:	bf3c      	itt	cc
 80051b6:	f841 0b04 	strcc.w	r0, [r1], #4
 80051ba:	e7fa      	bcc.n	80051b2 <bloop>
 80051bc:	f001 ff50 	bl	8007060 <__late_init>
 80051c0:	4c13      	ldr	r4, [pc, #76]	; (8005210 <endfiniloop+0x2c>)
 80051c2:	4d14      	ldr	r5, [pc, #80]	; (8005214 <endfiniloop+0x30>)

080051c4 <initloop>:
 80051c4:	42ac      	cmp	r4, r5
 80051c6:	da03      	bge.n	80051d0 <endinitloop>
 80051c8:	f854 1b04 	ldr.w	r1, [r4], #4
 80051cc:	4788      	blx	r1
 80051ce:	e7f9      	b.n	80051c4 <initloop>

080051d0 <endinitloop>:
 80051d0:	f000 fd5e 	bl	8005c90 <main>
 80051d4:	4c10      	ldr	r4, [pc, #64]	; (8005218 <endfiniloop+0x34>)
 80051d6:	4d11      	ldr	r5, [pc, #68]	; (800521c <endfiniloop+0x38>)

080051d8 <finiloop>:
 80051d8:	42ac      	cmp	r4, r5
 80051da:	da03      	bge.n	80051e4 <endfiniloop>
 80051dc:	f854 1b04 	ldr.w	r1, [r4], #4
 80051e0:	4788      	blx	r1
 80051e2:	e7f9      	b.n	80051d8 <finiloop>

080051e4 <endfiniloop>:
 80051e4:	f001 bf34 	b.w	8007050 <__default_exit>
 80051e8:	20001200 	.word	0x20001200
 80051ec:	55555555 	.word	0x55555555
 80051f0:	20000c00 	.word	0x20000c00
 80051f4:	20001000 	.word	0x20001000
 80051f8:	20001000 	.word	0x20001000
 80051fc:	0800a980 	.word	0x0800a980
 8005200:	20001200 	.word	0x20001200
 8005204:	2000123c 	.word	0x2000123c
 8005208:	20001240 	.word	0x20001240
 800520c:	200015dc 	.word	0x200015dc
 8005210:	08005160 	.word	0x08005160
 8005214:	08005160 	.word	0x08005160
 8005218:	08005160 	.word	0x08005160
 800521c:	08005160 	.word	0x08005160

08005220 <_port_switch>:
 8005220:	e92d 4ff0 	stmdb	sp!, {r4, r5, r6, r7, r8, r9, sl, fp, lr}
 8005224:	f8c1 d00c 	str.w	sp, [r1, #12]
 8005228:	f8d0 d00c 	ldr.w	sp, [r0, #12]
 800522c:	e8bd 8ff0 	ldmia.w	sp!, {r4, r5, r6, r7, r8, r9, sl, fp, pc}

08005230 <_port_thread_start>:
 8005230:	2300      	movs	r3, #0
 8005232:	f383 8811 	msr	BASEPRI, r3
 8005236:	4628      	mov	r0, r5
 8005238:	47a0      	blx	r4
 800523a:	2000      	movs	r0, #0
 800523c:	f001 fe28 	bl	8006e90 <chThdExit>

08005240 <_port_switch_from_isr>:
 8005240:	f001 fdee 	bl	8006e20 <chSchDoReschedule>

08005244 <_port_exit_from_isr>:
 8005244:	df00      	svc	0
 8005246:	e7fe      	b.n	8005246 <_port_exit_from_isr+0x2>
	...

08005250 <__aeabi_drsub>:
 8005250:	f081 4100 	eor.w	r1, r1, #2147483648	; 0x80000000
 8005254:	e002      	b.n	800525c <__adddf3>
 8005256:	bf00      	nop

08005258 <__aeabi_dsub>:
 8005258:	f083 4300 	eor.w	r3, r3, #2147483648	; 0x80000000

0800525c <__adddf3>:
 800525c:	b530      	push	{r4, r5, lr}
 800525e:	ea4f 0441 	mov.w	r4, r1, lsl #1
 8005262:	ea4f 0543 	mov.w	r5, r3, lsl #1
 8005266:	ea94 0f05 	teq	r4, r5
 800526a:	bf08      	it	eq
 800526c:	ea90 0f02 	teqeq	r0, r2
 8005270:	bf1f      	itttt	ne
 8005272:	ea54 0c00 	orrsne.w	ip, r4, r0
 8005276:	ea55 0c02 	orrsne.w	ip, r5, r2
 800527a:	ea7f 5c64 	mvnsne.w	ip, r4, asr #21
 800527e:	ea7f 5c65 	mvnsne.w	ip, r5, asr #21
 8005282:	f000 80e2 	beq.w	800544a <__adddf3+0x1ee>
 8005286:	ea4f 5454 	mov.w	r4, r4, lsr #21
 800528a:	ebd4 5555 	rsbs	r5, r4, r5, lsr #21
 800528e:	bfb8      	it	lt
 8005290:	426d      	neglt	r5, r5
 8005292:	dd0c      	ble.n	80052ae <__adddf3+0x52>
 8005294:	442c      	add	r4, r5
 8005296:	ea80 0202 	eor.w	r2, r0, r2
 800529a:	ea81 0303 	eor.w	r3, r1, r3
 800529e:	ea82 0000 	eor.w	r0, r2, r0
 80052a2:	ea83 0101 	eor.w	r1, r3, r1
 80052a6:	ea80 0202 	eor.w	r2, r0, r2
 80052aa:	ea81 0303 	eor.w	r3, r1, r3
 80052ae:	2d36      	cmp	r5, #54	; 0x36
 80052b0:	bf88      	it	hi
 80052b2:	bd30      	pophi	{r4, r5, pc}
 80052b4:	f011 4f00 	tst.w	r1, #2147483648	; 0x80000000
 80052b8:	ea4f 3101 	mov.w	r1, r1, lsl #12
 80052bc:	f44f 1c80 	mov.w	ip, #1048576	; 0x100000
 80052c0:	ea4c 3111 	orr.w	r1, ip, r1, lsr #12
 80052c4:	d002      	beq.n	80052cc <__adddf3+0x70>
 80052c6:	4240      	negs	r0, r0
 80052c8:	eb61 0141 	sbc.w	r1, r1, r1, lsl #1
 80052cc:	f013 4f00 	tst.w	r3, #2147483648	; 0x80000000
 80052d0:	ea4f 3303 	mov.w	r3, r3, lsl #12
 80052d4:	ea4c 3313 	orr.w	r3, ip, r3, lsr #12
 80052d8:	d002      	beq.n	80052e0 <__adddf3+0x84>
 80052da:	4252      	negs	r2, r2
 80052dc:	eb63 0343 	sbc.w	r3, r3, r3, lsl #1
 80052e0:	ea94 0f05 	teq	r4, r5
 80052e4:	f000 80a7 	beq.w	8005436 <__adddf3+0x1da>
 80052e8:	f1a4 0401 	sub.w	r4, r4, #1
 80052ec:	f1d5 0e20 	rsbs	lr, r5, #32
 80052f0:	db0d      	blt.n	800530e <__adddf3+0xb2>
 80052f2:	fa02 fc0e 	lsl.w	ip, r2, lr
 80052f6:	fa22 f205 	lsr.w	r2, r2, r5
 80052fa:	1880      	adds	r0, r0, r2
 80052fc:	f141 0100 	adc.w	r1, r1, #0
 8005300:	fa03 f20e 	lsl.w	r2, r3, lr
 8005304:	1880      	adds	r0, r0, r2
 8005306:	fa43 f305 	asr.w	r3, r3, r5
 800530a:	4159      	adcs	r1, r3
 800530c:	e00e      	b.n	800532c <__adddf3+0xd0>
 800530e:	f1a5 0520 	sub.w	r5, r5, #32
 8005312:	f10e 0e20 	add.w	lr, lr, #32
 8005316:	2a01      	cmp	r2, #1
 8005318:	fa03 fc0e 	lsl.w	ip, r3, lr
 800531c:	bf28      	it	cs
 800531e:	f04c 0c02 	orrcs.w	ip, ip, #2
 8005322:	fa43 f305 	asr.w	r3, r3, r5
 8005326:	18c0      	adds	r0, r0, r3
 8005328:	eb51 71e3 	adcs.w	r1, r1, r3, asr #31
 800532c:	f001 4500 	and.w	r5, r1, #2147483648	; 0x80000000
 8005330:	d507      	bpl.n	8005342 <__adddf3+0xe6>
 8005332:	f04f 0e00 	mov.w	lr, #0
 8005336:	f1dc 0c00 	rsbs	ip, ip, #0
 800533a:	eb7e 0000 	sbcs.w	r0, lr, r0
 800533e:	eb6e 0101 	sbc.w	r1, lr, r1
 8005342:	f5b1 1f80 	cmp.w	r1, #1048576	; 0x100000
 8005346:	d31b      	bcc.n	8005380 <__adddf3+0x124>
 8005348:	f5b1 1f00 	cmp.w	r1, #2097152	; 0x200000
 800534c:	d30c      	bcc.n	8005368 <__adddf3+0x10c>
 800534e:	0849      	lsrs	r1, r1, #1
 8005350:	ea5f 0030 	movs.w	r0, r0, rrx
 8005354:	ea4f 0c3c 	mov.w	ip, ip, rrx
 8005358:	f104 0401 	add.w	r4, r4, #1
 800535c:	ea4f 5244 	mov.w	r2, r4, lsl #21
 8005360:	f512 0f80 	cmn.w	r2, #4194304	; 0x400000
 8005364:	f080 809a 	bcs.w	800549c <__adddf3+0x240>
 8005368:	f1bc 4f00 	cmp.w	ip, #2147483648	; 0x80000000
 800536c:	bf08      	it	eq
 800536e:	ea5f 0c50 	movseq.w	ip, r0, lsr #1
 8005372:	f150 0000 	adcs.w	r0, r0, #0
 8005376:	eb41 5104 	adc.w	r1, r1, r4, lsl #20
 800537a:	ea41 0105 	orr.w	r1, r1, r5
 800537e:	bd30      	pop	{r4, r5, pc}
 8005380:	ea5f 0c4c 	movs.w	ip, ip, lsl #1
 8005384:	4140      	adcs	r0, r0
 8005386:	eb41 0101 	adc.w	r1, r1, r1
 800538a:	f411 1f80 	tst.w	r1, #1048576	; 0x100000
 800538e:	f1a4 0401 	sub.w	r4, r4, #1
 8005392:	d1e9      	bne.n	8005368 <__adddf3+0x10c>
 8005394:	f091 0f00 	teq	r1, #0
 8005398:	bf04      	itt	eq
 800539a:	4601      	moveq	r1, r0
 800539c:	2000      	moveq	r0, #0
 800539e:	fab1 f381 	clz	r3, r1
 80053a2:	bf08      	it	eq
 80053a4:	3320      	addeq	r3, #32
 80053a6:	f1a3 030b 	sub.w	r3, r3, #11
 80053aa:	f1b3 0220 	subs.w	r2, r3, #32
 80053ae:	da0c      	bge.n	80053ca <__adddf3+0x16e>
 80053b0:	320c      	adds	r2, #12
 80053b2:	dd08      	ble.n	80053c6 <__adddf3+0x16a>
 80053b4:	f102 0c14 	add.w	ip, r2, #20
 80053b8:	f1c2 020c 	rsb	r2, r2, #12
 80053bc:	fa01 f00c 	lsl.w	r0, r1, ip
 80053c0:	fa21 f102 	lsr.w	r1, r1, r2
 80053c4:	e00c      	b.n	80053e0 <__adddf3+0x184>
 80053c6:	f102 0214 	add.w	r2, r2, #20
 80053ca:	bfd8      	it	le
 80053cc:	f1c2 0c20 	rsble	ip, r2, #32
 80053d0:	fa01 f102 	lsl.w	r1, r1, r2
 80053d4:	fa20 fc0c 	lsr.w	ip, r0, ip
 80053d8:	bfdc      	itt	le
 80053da:	ea41 010c 	orrle.w	r1, r1, ip
 80053de:	4090      	lslle	r0, r2
 80053e0:	1ae4      	subs	r4, r4, r3
 80053e2:	bfa2      	ittt	ge
 80053e4:	eb01 5104 	addge.w	r1, r1, r4, lsl #20
 80053e8:	4329      	orrge	r1, r5
 80053ea:	bd30      	popge	{r4, r5, pc}
 80053ec:	ea6f 0404 	mvn.w	r4, r4
 80053f0:	3c1f      	subs	r4, #31
 80053f2:	da1c      	bge.n	800542e <__adddf3+0x1d2>
 80053f4:	340c      	adds	r4, #12
 80053f6:	dc0e      	bgt.n	8005416 <__adddf3+0x1ba>
 80053f8:	f104 0414 	add.w	r4, r4, #20
 80053fc:	f1c4 0220 	rsb	r2, r4, #32
 8005400:	fa20 f004 	lsr.w	r0, r0, r4
 8005404:	fa01 f302 	lsl.w	r3, r1, r2
 8005408:	ea40 0003 	orr.w	r0, r0, r3
 800540c:	fa21 f304 	lsr.w	r3, r1, r4
 8005410:	ea45 0103 	orr.w	r1, r5, r3
 8005414:	bd30      	pop	{r4, r5, pc}
 8005416:	f1c4 040c 	rsb	r4, r4, #12
 800541a:	f1c4 0220 	rsb	r2, r4, #32
 800541e:	fa20 f002 	lsr.w	r0, r0, r2
 8005422:	fa01 f304 	lsl.w	r3, r1, r4
 8005426:	ea40 0003 	orr.w	r0, r0, r3
 800542a:	4629      	mov	r1, r5
 800542c:	bd30      	pop	{r4, r5, pc}
 800542e:	fa21 f004 	lsr.w	r0, r1, r4
 8005432:	4629      	mov	r1, r5
 8005434:	bd30      	pop	{r4, r5, pc}
 8005436:	f094 0f00 	teq	r4, #0
 800543a:	f483 1380 	eor.w	r3, r3, #1048576	; 0x100000
 800543e:	bf06      	itte	eq
 8005440:	f481 1180 	eoreq.w	r1, r1, #1048576	; 0x100000
 8005444:	3401      	addeq	r4, #1
 8005446:	3d01      	subne	r5, #1
 8005448:	e74e      	b.n	80052e8 <__adddf3+0x8c>
 800544a:	ea7f 5c64 	mvns.w	ip, r4, asr #21
 800544e:	bf18      	it	ne
 8005450:	ea7f 5c65 	mvnsne.w	ip, r5, asr #21
 8005454:	d029      	beq.n	80054aa <__adddf3+0x24e>
 8005456:	ea94 0f05 	teq	r4, r5
 800545a:	bf08      	it	eq
 800545c:	ea90 0f02 	teqeq	r0, r2
 8005460:	d005      	beq.n	800546e <__adddf3+0x212>
 8005462:	ea54 0c00 	orrs.w	ip, r4, r0
 8005466:	bf04      	itt	eq
 8005468:	4619      	moveq	r1, r3
 800546a:	4610      	moveq	r0, r2
 800546c:	bd30      	pop	{r4, r5, pc}
 800546e:	ea91 0f03 	teq	r1, r3
 8005472:	bf1e      	ittt	ne
 8005474:	2100      	movne	r1, #0
 8005476:	2000      	movne	r0, #0
 8005478:	bd30      	popne	{r4, r5, pc}
 800547a:	ea5f 5c54 	movs.w	ip, r4, lsr #21
 800547e:	d105      	bne.n	800548c <__adddf3+0x230>
 8005480:	0040      	lsls	r0, r0, #1
 8005482:	4149      	adcs	r1, r1
 8005484:	bf28      	it	cs
 8005486:	f041 4100 	orrcs.w	r1, r1, #2147483648	; 0x80000000
 800548a:	bd30      	pop	{r4, r5, pc}
 800548c:	f514 0480 	adds.w	r4, r4, #4194304	; 0x400000
 8005490:	bf3c      	itt	cc
 8005492:	f501 1180 	addcc.w	r1, r1, #1048576	; 0x100000
 8005496:	bd30      	popcc	{r4, r5, pc}
 8005498:	f001 4500 	and.w	r5, r1, #2147483648	; 0x80000000
 800549c:	f045 41fe 	orr.w	r1, r5, #2130706432	; 0x7f000000
 80054a0:	f441 0170 	orr.w	r1, r1, #15728640	; 0xf00000
 80054a4:	f04f 0000 	mov.w	r0, #0
 80054a8:	bd30      	pop	{r4, r5, pc}
 80054aa:	ea7f 5c64 	mvns.w	ip, r4, asr #21
 80054ae:	bf1a      	itte	ne
 80054b0:	4619      	movne	r1, r3
 80054b2:	4610      	movne	r0, r2
 80054b4:	ea7f 5c65 	mvnseq.w	ip, r5, asr #21
 80054b8:	bf1c      	itt	ne
 80054ba:	460b      	movne	r3, r1
 80054bc:	4602      	movne	r2, r0
 80054be:	ea50 3401 	orrs.w	r4, r0, r1, lsl #12
 80054c2:	bf06      	itte	eq
 80054c4:	ea52 3503 	orrseq.w	r5, r2, r3, lsl #12
 80054c8:	ea91 0f03 	teqeq	r1, r3
 80054cc:	f441 2100 	orrne.w	r1, r1, #524288	; 0x80000
 80054d0:	bd30      	pop	{r4, r5, pc}
 80054d2:	bf00      	nop

080054d4 <__aeabi_ui2d>:
 80054d4:	f090 0f00 	teq	r0, #0
 80054d8:	bf04      	itt	eq
 80054da:	2100      	moveq	r1, #0
 80054dc:	4770      	bxeq	lr
 80054de:	b530      	push	{r4, r5, lr}
 80054e0:	f44f 6480 	mov.w	r4, #1024	; 0x400
 80054e4:	f104 0432 	add.w	r4, r4, #50	; 0x32
 80054e8:	f04f 0500 	mov.w	r5, #0
 80054ec:	f04f 0100 	mov.w	r1, #0
 80054f0:	e750      	b.n	8005394 <__adddf3+0x138>
 80054f2:	bf00      	nop

080054f4 <__aeabi_i2d>:
 80054f4:	f090 0f00 	teq	r0, #0
 80054f8:	bf04      	itt	eq
 80054fa:	2100      	moveq	r1, #0
 80054fc:	4770      	bxeq	lr
 80054fe:	b530      	push	{r4, r5, lr}
 8005500:	f44f 6480 	mov.w	r4, #1024	; 0x400
 8005504:	f104 0432 	add.w	r4, r4, #50	; 0x32
 8005508:	f010 4500 	ands.w	r5, r0, #2147483648	; 0x80000000
 800550c:	bf48      	it	mi
 800550e:	4240      	negmi	r0, r0
 8005510:	f04f 0100 	mov.w	r1, #0
 8005514:	e73e      	b.n	8005394 <__adddf3+0x138>
 8005516:	bf00      	nop

08005518 <__aeabi_f2d>:
 8005518:	0042      	lsls	r2, r0, #1
 800551a:	ea4f 01e2 	mov.w	r1, r2, asr #3
 800551e:	ea4f 0131 	mov.w	r1, r1, rrx
 8005522:	ea4f 7002 	mov.w	r0, r2, lsl #28
 8005526:	bf1f      	itttt	ne
 8005528:	f012 437f 	andsne.w	r3, r2, #4278190080	; 0xff000000
 800552c:	f093 4f7f 	teqne	r3, #4278190080	; 0xff000000
 8005530:	f081 5160 	eorne.w	r1, r1, #939524096	; 0x38000000
 8005534:	4770      	bxne	lr
 8005536:	f092 0f00 	teq	r2, #0
 800553a:	bf14      	ite	ne
 800553c:	f093 4f7f 	teqne	r3, #4278190080	; 0xff000000
 8005540:	4770      	bxeq	lr
 8005542:	b530      	push	{r4, r5, lr}
 8005544:	f44f 7460 	mov.w	r4, #896	; 0x380
 8005548:	f001 4500 	and.w	r5, r1, #2147483648	; 0x80000000
 800554c:	f021 4100 	bic.w	r1, r1, #2147483648	; 0x80000000
 8005550:	e720      	b.n	8005394 <__adddf3+0x138>
 8005552:	bf00      	nop

08005554 <__aeabi_ul2d>:
 8005554:	ea50 0201 	orrs.w	r2, r0, r1
 8005558:	bf08      	it	eq
 800555a:	4770      	bxeq	lr
 800555c:	b530      	push	{r4, r5, lr}
 800555e:	f04f 0500 	mov.w	r5, #0
 8005562:	e00a      	b.n	800557a <__aeabi_l2d+0x16>

08005564 <__aeabi_l2d>:
 8005564:	ea50 0201 	orrs.w	r2, r0, r1
 8005568:	bf08      	it	eq
 800556a:	4770      	bxeq	lr
 800556c:	b530      	push	{r4, r5, lr}
 800556e:	f011 4500 	ands.w	r5, r1, #2147483648	; 0x80000000
 8005572:	d502      	bpl.n	800557a <__aeabi_l2d+0x16>
 8005574:	4240      	negs	r0, r0
 8005576:	eb61 0141 	sbc.w	r1, r1, r1, lsl #1
 800557a:	f44f 6480 	mov.w	r4, #1024	; 0x400
 800557e:	f104 0432 	add.w	r4, r4, #50	; 0x32
 8005582:	ea5f 5c91 	movs.w	ip, r1, lsr #22
 8005586:	f43f aedc 	beq.w	8005342 <__adddf3+0xe6>
 800558a:	f04f 0203 	mov.w	r2, #3
 800558e:	ea5f 0cdc 	movs.w	ip, ip, lsr #3
 8005592:	bf18      	it	ne
 8005594:	3203      	addne	r2, #3
 8005596:	ea5f 0cdc 	movs.w	ip, ip, lsr #3
 800559a:	bf18      	it	ne
 800559c:	3203      	addne	r2, #3
 800559e:	eb02 02dc 	add.w	r2, r2, ip, lsr #3
 80055a2:	f1c2 0320 	rsb	r3, r2, #32
 80055a6:	fa00 fc03 	lsl.w	ip, r0, r3
 80055aa:	fa20 f002 	lsr.w	r0, r0, r2
 80055ae:	fa01 fe03 	lsl.w	lr, r1, r3
 80055b2:	ea40 000e 	orr.w	r0, r0, lr
 80055b6:	fa21 f102 	lsr.w	r1, r1, r2
 80055ba:	4414      	add	r4, r2
 80055bc:	e6c1      	b.n	8005342 <__adddf3+0xe6>
 80055be:	bf00      	nop

080055c0 <__aeabi_dmul>:
 80055c0:	b570      	push	{r4, r5, r6, lr}
 80055c2:	f04f 0cff 	mov.w	ip, #255	; 0xff
 80055c6:	f44c 6ce0 	orr.w	ip, ip, #1792	; 0x700
 80055ca:	ea1c 5411 	ands.w	r4, ip, r1, lsr #20
 80055ce:	bf1d      	ittte	ne
 80055d0:	ea1c 5513 	andsne.w	r5, ip, r3, lsr #20
 80055d4:	ea94 0f0c 	teqne	r4, ip
 80055d8:	ea95 0f0c 	teqne	r5, ip
 80055dc:	f000 f8de 	bleq	800579c <__aeabi_dmul+0x1dc>
 80055e0:	442c      	add	r4, r5
 80055e2:	ea81 0603 	eor.w	r6, r1, r3
 80055e6:	ea21 514c 	bic.w	r1, r1, ip, lsl #21
 80055ea:	ea23 534c 	bic.w	r3, r3, ip, lsl #21
 80055ee:	ea50 3501 	orrs.w	r5, r0, r1, lsl #12
 80055f2:	bf18      	it	ne
 80055f4:	ea52 3503 	orrsne.w	r5, r2, r3, lsl #12
 80055f8:	f441 1180 	orr.w	r1, r1, #1048576	; 0x100000
 80055fc:	f443 1380 	orr.w	r3, r3, #1048576	; 0x100000
 8005600:	d038      	beq.n	8005674 <__aeabi_dmul+0xb4>
 8005602:	fba0 ce02 	umull	ip, lr, r0, r2
 8005606:	f04f 0500 	mov.w	r5, #0
 800560a:	fbe1 e502 	umlal	lr, r5, r1, r2
 800560e:	f006 4200 	and.w	r2, r6, #2147483648	; 0x80000000
 8005612:	fbe0 e503 	umlal	lr, r5, r0, r3
 8005616:	f04f 0600 	mov.w	r6, #0
 800561a:	fbe1 5603 	umlal	r5, r6, r1, r3
 800561e:	f09c 0f00 	teq	ip, #0
 8005622:	bf18      	it	ne
 8005624:	f04e 0e01 	orrne.w	lr, lr, #1
 8005628:	f1a4 04ff 	sub.w	r4, r4, #255	; 0xff
 800562c:	f5b6 7f00 	cmp.w	r6, #512	; 0x200
 8005630:	f564 7440 	sbc.w	r4, r4, #768	; 0x300
 8005634:	d204      	bcs.n	8005640 <__aeabi_dmul+0x80>
 8005636:	ea5f 0e4e 	movs.w	lr, lr, lsl #1
 800563a:	416d      	adcs	r5, r5
 800563c:	eb46 0606 	adc.w	r6, r6, r6
 8005640:	ea42 21c6 	orr.w	r1, r2, r6, lsl #11
 8005644:	ea41 5155 	orr.w	r1, r1, r5, lsr #21
 8005648:	ea4f 20c5 	mov.w	r0, r5, lsl #11
 800564c:	ea40 505e 	orr.w	r0, r0, lr, lsr #21
 8005650:	ea4f 2ece 	mov.w	lr, lr, lsl #11
 8005654:	f1b4 0cfd 	subs.w	ip, r4, #253	; 0xfd
 8005658:	bf88      	it	hi
 800565a:	f5bc 6fe0 	cmphi.w	ip, #1792	; 0x700
 800565e:	d81e      	bhi.n	800569e <__aeabi_dmul+0xde>
 8005660:	f1be 4f00 	cmp.w	lr, #2147483648	; 0x80000000
 8005664:	bf08      	it	eq
 8005666:	ea5f 0e50 	movseq.w	lr, r0, lsr #1
 800566a:	f150 0000 	adcs.w	r0, r0, #0
 800566e:	eb41 5104 	adc.w	r1, r1, r4, lsl #20
 8005672:	bd70      	pop	{r4, r5, r6, pc}
 8005674:	f006 4600 	and.w	r6, r6, #2147483648	; 0x80000000
 8005678:	ea46 0101 	orr.w	r1, r6, r1
 800567c:	ea40 0002 	orr.w	r0, r0, r2
 8005680:	ea81 0103 	eor.w	r1, r1, r3
 8005684:	ebb4 045c 	subs.w	r4, r4, ip, lsr #1
 8005688:	bfc2      	ittt	gt
 800568a:	ebd4 050c 	rsbsgt	r5, r4, ip
 800568e:	ea41 5104 	orrgt.w	r1, r1, r4, lsl #20
 8005692:	bd70      	popgt	{r4, r5, r6, pc}
 8005694:	f441 1180 	orr.w	r1, r1, #1048576	; 0x100000
 8005698:	f04f 0e00 	mov.w	lr, #0
 800569c:	3c01      	subs	r4, #1
 800569e:	f300 80ab 	bgt.w	80057f8 <__aeabi_dmul+0x238>
 80056a2:	f114 0f36 	cmn.w	r4, #54	; 0x36
 80056a6:	bfde      	ittt	le
 80056a8:	2000      	movle	r0, #0
 80056aa:	f001 4100 	andle.w	r1, r1, #2147483648	; 0x80000000
 80056ae:	bd70      	pople	{r4, r5, r6, pc}
 80056b0:	f1c4 0400 	rsb	r4, r4, #0
 80056b4:	3c20      	subs	r4, #32
 80056b6:	da35      	bge.n	8005724 <__aeabi_dmul+0x164>
 80056b8:	340c      	adds	r4, #12
 80056ba:	dc1b      	bgt.n	80056f4 <__aeabi_dmul+0x134>
 80056bc:	f104 0414 	add.w	r4, r4, #20
 80056c0:	f1c4 0520 	rsb	r5, r4, #32
 80056c4:	fa00 f305 	lsl.w	r3, r0, r5
 80056c8:	fa20 f004 	lsr.w	r0, r0, r4
 80056cc:	fa01 f205 	lsl.w	r2, r1, r5
 80056d0:	ea40 0002 	orr.w	r0, r0, r2
 80056d4:	f001 4200 	and.w	r2, r1, #2147483648	; 0x80000000
 80056d8:	f021 4100 	bic.w	r1, r1, #2147483648	; 0x80000000
 80056dc:	eb10 70d3 	adds.w	r0, r0, r3, lsr #31
 80056e0:	fa21 f604 	lsr.w	r6, r1, r4
 80056e4:	eb42 0106 	adc.w	r1, r2, r6
 80056e8:	ea5e 0e43 	orrs.w	lr, lr, r3, lsl #1
 80056ec:	bf08      	it	eq
 80056ee:	ea20 70d3 	biceq.w	r0, r0, r3, lsr #31
 80056f2:	bd70      	pop	{r4, r5, r6, pc}
 80056f4:	f1c4 040c 	rsb	r4, r4, #12
 80056f8:	f1c4 0520 	rsb	r5, r4, #32
 80056fc:	fa00 f304 	lsl.w	r3, r0, r4
 8005700:	fa20 f005 	lsr.w	r0, r0, r5
 8005704:	fa01 f204 	lsl.w	r2, r1, r4
 8005708:	ea40 0002 	orr.w	r0, r0, r2
 800570c:	f001 4100 	and.w	r1, r1, #2147483648	; 0x80000000
 8005710:	eb10 70d3 	adds.w	r0, r0, r3, lsr #31
 8005714:	f141 0100 	adc.w	r1, r1, #0
 8005718:	ea5e 0e43 	orrs.w	lr, lr, r3, lsl #1
 800571c:	bf08      	it	eq
 800571e:	ea20 70d3 	biceq.w	r0, r0, r3, lsr #31
 8005722:	bd70      	pop	{r4, r5, r6, pc}
 8005724:	f1c4 0520 	rsb	r5, r4, #32
 8005728:	fa00 f205 	lsl.w	r2, r0, r5
 800572c:	ea4e 0e02 	orr.w	lr, lr, r2
 8005730:	fa20 f304 	lsr.w	r3, r0, r4
 8005734:	fa01 f205 	lsl.w	r2, r1, r5
 8005738:	ea43 0302 	orr.w	r3, r3, r2
 800573c:	fa21 f004 	lsr.w	r0, r1, r4
 8005740:	f001 4100 	and.w	r1, r1, #2147483648	; 0x80000000
 8005744:	fa21 f204 	lsr.w	r2, r1, r4
 8005748:	ea20 0002 	bic.w	r0, r0, r2
 800574c:	eb00 70d3 	add.w	r0, r0, r3, lsr #31
 8005750:	ea5e 0e43 	orrs.w	lr, lr, r3, lsl #1
 8005754:	bf08      	it	eq
 8005756:	ea20 70d3 	biceq.w	r0, r0, r3, lsr #31
 800575a:	bd70      	pop	{r4, r5, r6, pc}
 800575c:	f094 0f00 	teq	r4, #0
 8005760:	d10f      	bne.n	8005782 <__aeabi_dmul+0x1c2>
 8005762:	f001 4600 	and.w	r6, r1, #2147483648	; 0x80000000
 8005766:	0040      	lsls	r0, r0, #1
 8005768:	eb41 0101 	adc.w	r1, r1, r1
 800576c:	f411 1f80 	tst.w	r1, #1048576	; 0x100000
 8005770:	bf08      	it	eq
 8005772:	3c01      	subeq	r4, #1
 8005774:	d0f7      	beq.n	8005766 <__aeabi_dmul+0x1a6>
 8005776:	ea41 0106 	orr.w	r1, r1, r6
 800577a:	f095 0f00 	teq	r5, #0
 800577e:	bf18      	it	ne
 8005780:	4770      	bxne	lr
 8005782:	f003 4600 	and.w	r6, r3, #2147483648	; 0x80000000
 8005786:	0052      	lsls	r2, r2, #1
 8005788:	eb43 0303 	adc.w	r3, r3, r3
 800578c:	f413 1f80 	tst.w	r3, #1048576	; 0x100000
 8005790:	bf08      	it	eq
 8005792:	3d01      	subeq	r5, #1
 8005794:	d0f7      	beq.n	8005786 <__aeabi_dmul+0x1c6>
 8005796:	ea43 0306 	orr.w	r3, r3, r6
 800579a:	4770      	bx	lr
 800579c:	ea94 0f0c 	teq	r4, ip
 80057a0:	ea0c 5513 	and.w	r5, ip, r3, lsr #20
 80057a4:	bf18      	it	ne
 80057a6:	ea95 0f0c 	teqne	r5, ip
 80057aa:	d00c      	beq.n	80057c6 <__aeabi_dmul+0x206>
 80057ac:	ea50 0641 	orrs.w	r6, r0, r1, lsl #1
 80057b0:	bf18      	it	ne
 80057b2:	ea52 0643 	orrsne.w	r6, r2, r3, lsl #1
 80057b6:	d1d1      	bne.n	800575c <__aeabi_dmul+0x19c>
 80057b8:	ea81 0103 	eor.w	r1, r1, r3
 80057bc:	f001 4100 	and.w	r1, r1, #2147483648	; 0x80000000
 80057c0:	f04f 0000 	mov.w	r0, #0
 80057c4:	bd70      	pop	{r4, r5, r6, pc}
 80057c6:	ea50 0641 	orrs.w	r6, r0, r1, lsl #1
 80057ca:	bf06      	itte	eq
 80057cc:	4610      	moveq	r0, r2
 80057ce:	4619      	moveq	r1, r3
 80057d0:	ea52 0643 	orrsne.w	r6, r2, r3, lsl #1
 80057d4:	d019      	beq.n	800580a <__aeabi_dmul+0x24a>
 80057d6:	ea94 0f0c 	teq	r4, ip
 80057da:	d102      	bne.n	80057e2 <__aeabi_dmul+0x222>
 80057dc:	ea50 3601 	orrs.w	r6, r0, r1, lsl #12
 80057e0:	d113      	bne.n	800580a <__aeabi_dmul+0x24a>
 80057e2:	ea95 0f0c 	teq	r5, ip
 80057e6:	d105      	bne.n	80057f4 <__aeabi_dmul+0x234>
 80057e8:	ea52 3603 	orrs.w	r6, r2, r3, lsl #12
 80057ec:	bf1c      	itt	ne
 80057ee:	4610      	movne	r0, r2
 80057f0:	4619      	movne	r1, r3
 80057f2:	d10a      	bne.n	800580a <__aeabi_dmul+0x24a>
 80057f4:	ea81 0103 	eor.w	r1, r1, r3
 80057f8:	f001 4100 	and.w	r1, r1, #2147483648	; 0x80000000
 80057fc:	f041 41fe 	orr.w	r1, r1, #2130706432	; 0x7f000000
 8005800:	f441 0170 	orr.w	r1, r1, #15728640	; 0xf00000
 8005804:	f04f 0000 	mov.w	r0, #0
 8005808:	bd70      	pop	{r4, r5, r6, pc}
 800580a:	f041 41fe 	orr.w	r1, r1, #2130706432	; 0x7f000000
 800580e:	f441 0178 	orr.w	r1, r1, #16252928	; 0xf80000
 8005812:	bd70      	pop	{r4, r5, r6, pc}

08005814 <__aeabi_ddiv>:
 8005814:	b570      	push	{r4, r5, r6, lr}
 8005816:	f04f 0cff 	mov.w	ip, #255	; 0xff
 800581a:	f44c 6ce0 	orr.w	ip, ip, #1792	; 0x700
 800581e:	ea1c 5411 	ands.w	r4, ip, r1, lsr #20
 8005822:	bf1d      	ittte	ne
 8005824:	ea1c 5513 	andsne.w	r5, ip, r3, lsr #20
 8005828:	ea94 0f0c 	teqne	r4, ip
 800582c:	ea95 0f0c 	teqne	r5, ip
 8005830:	f000 f8a7 	bleq	8005982 <__aeabi_ddiv+0x16e>
 8005834:	eba4 0405 	sub.w	r4, r4, r5
 8005838:	ea81 0e03 	eor.w	lr, r1, r3
 800583c:	ea52 3503 	orrs.w	r5, r2, r3, lsl #12
 8005840:	ea4f 3101 	mov.w	r1, r1, lsl #12
 8005844:	f000 8088 	beq.w	8005958 <__aeabi_ddiv+0x144>
 8005848:	ea4f 3303 	mov.w	r3, r3, lsl #12
 800584c:	f04f 5580 	mov.w	r5, #268435456	; 0x10000000
 8005850:	ea45 1313 	orr.w	r3, r5, r3, lsr #4
 8005854:	ea43 6312 	orr.w	r3, r3, r2, lsr #24
 8005858:	ea4f 2202 	mov.w	r2, r2, lsl #8
 800585c:	ea45 1511 	orr.w	r5, r5, r1, lsr #4
 8005860:	ea45 6510 	orr.w	r5, r5, r0, lsr #24
 8005864:	ea4f 2600 	mov.w	r6, r0, lsl #8
 8005868:	f00e 4100 	and.w	r1, lr, #2147483648	; 0x80000000
 800586c:	429d      	cmp	r5, r3
 800586e:	bf08      	it	eq
 8005870:	4296      	cmpeq	r6, r2
 8005872:	f144 04fd 	adc.w	r4, r4, #253	; 0xfd
 8005876:	f504 7440 	add.w	r4, r4, #768	; 0x300
 800587a:	d202      	bcs.n	8005882 <__aeabi_ddiv+0x6e>
 800587c:	085b      	lsrs	r3, r3, #1
 800587e:	ea4f 0232 	mov.w	r2, r2, rrx
 8005882:	1ab6      	subs	r6, r6, r2
 8005884:	eb65 0503 	sbc.w	r5, r5, r3
 8005888:	085b      	lsrs	r3, r3, #1
 800588a:	ea4f 0232 	mov.w	r2, r2, rrx
 800588e:	f44f 1080 	mov.w	r0, #1048576	; 0x100000
 8005892:	f44f 2c00 	mov.w	ip, #524288	; 0x80000
 8005896:	ebb6 0e02 	subs.w	lr, r6, r2
 800589a:	eb75 0e03 	sbcs.w	lr, r5, r3
 800589e:	bf22      	ittt	cs
 80058a0:	1ab6      	subcs	r6, r6, r2
 80058a2:	4675      	movcs	r5, lr
 80058a4:	ea40 000c 	orrcs.w	r0, r0, ip
 80058a8:	085b      	lsrs	r3, r3, #1
 80058aa:	ea4f 0232 	mov.w	r2, r2, rrx
 80058ae:	ebb6 0e02 	subs.w	lr, r6, r2
 80058b2:	eb75 0e03 	sbcs.w	lr, r5, r3
 80058b6:	bf22      	ittt	cs
 80058b8:	1ab6      	subcs	r6, r6, r2
 80058ba:	4675      	movcs	r5, lr
 80058bc:	ea40 005c 	orrcs.w	r0, r0, ip, lsr #1
 80058c0:	085b      	lsrs	r3, r3, #1
 80058c2:	ea4f 0232 	mov.w	r2, r2, rrx
 80058c6:	ebb6 0e02 	subs.w	lr, r6, r2
 80058ca:	eb75 0e03 	sbcs.w	lr, r5, r3
 80058ce:	bf22      	ittt	cs
 80058d0:	1ab6      	subcs	r6, r6, r2
 80058d2:	4675      	movcs	r5, lr
 80058d4:	ea40 009c 	orrcs.w	r0, r0, ip, lsr #2
 80058d8:	085b      	lsrs	r3, r3, #1
 80058da:	ea4f 0232 	mov.w	r2, r2, rrx
 80058de:	ebb6 0e02 	subs.w	lr, r6, r2
 80058e2:	eb75 0e03 	sbcs.w	lr, r5, r3
 80058e6:	bf22      	ittt	cs
 80058e8:	1ab6      	subcs	r6, r6, r2
 80058ea:	4675      	movcs	r5, lr
 80058ec:	ea40 00dc 	orrcs.w	r0, r0, ip, lsr #3
 80058f0:	ea55 0e06 	orrs.w	lr, r5, r6
 80058f4:	d018      	beq.n	8005928 <__aeabi_ddiv+0x114>
 80058f6:	ea4f 1505 	mov.w	r5, r5, lsl #4
 80058fa:	ea45 7516 	orr.w	r5, r5, r6, lsr #28
 80058fe:	ea4f 1606 	mov.w	r6, r6, lsl #4
 8005902:	ea4f 03c3 	mov.w	r3, r3, lsl #3
 8005906:	ea43 7352 	orr.w	r3, r3, r2, lsr #29
 800590a:	ea4f 02c2 	mov.w	r2, r2, lsl #3
 800590e:	ea5f 1c1c 	movs.w	ip, ip, lsr #4
 8005912:	d1c0      	bne.n	8005896 <__aeabi_ddiv+0x82>
 8005914:	f411 1f80 	tst.w	r1, #1048576	; 0x100000
 8005918:	d10b      	bne.n	8005932 <__aeabi_ddiv+0x11e>
 800591a:	ea41 0100 	orr.w	r1, r1, r0
 800591e:	f04f 0000 	mov.w	r0, #0
 8005922:	f04f 4c00 	mov.w	ip, #2147483648	; 0x80000000
 8005926:	e7b6      	b.n	8005896 <__aeabi_ddiv+0x82>
 8005928:	f411 1f80 	tst.w	r1, #1048576	; 0x100000
 800592c:	bf04      	itt	eq
 800592e:	4301      	orreq	r1, r0
 8005930:	2000      	moveq	r0, #0
 8005932:	f1b4 0cfd 	subs.w	ip, r4, #253	; 0xfd
 8005936:	bf88      	it	hi
 8005938:	f5bc 6fe0 	cmphi.w	ip, #1792	; 0x700
 800593c:	f63f aeaf 	bhi.w	800569e <__aeabi_dmul+0xde>
 8005940:	ebb5 0c03 	subs.w	ip, r5, r3
 8005944:	bf04      	itt	eq
 8005946:	ebb6 0c02 	subseq.w	ip, r6, r2
 800594a:	ea5f 0c50 	movseq.w	ip, r0, lsr #1
 800594e:	f150 0000 	adcs.w	r0, r0, #0
 8005952:	eb41 5104 	adc.w	r1, r1, r4, lsl #20
 8005956:	bd70      	pop	{r4, r5, r6, pc}
 8005958:	f00e 4e00 	and.w	lr, lr, #2147483648	; 0x80000000
 800595c:	ea4e 3111 	orr.w	r1, lr, r1, lsr #12
 8005960:	eb14 045c 	adds.w	r4, r4, ip, lsr #1
 8005964:	bfc2      	ittt	gt
 8005966:	ebd4 050c 	rsbsgt	r5, r4, ip
 800596a:	ea41 5104 	orrgt.w	r1, r1, r4, lsl #20
 800596e:	bd70      	popgt	{r4, r5, r6, pc}
 8005970:	f441 1180 	orr.w	r1, r1, #1048576	; 0x100000
 8005974:	f04f 0e00 	mov.w	lr, #0
 8005978:	3c01      	subs	r4, #1
 800597a:	e690      	b.n	800569e <__aeabi_dmul+0xde>
 800597c:	ea45 0e06 	orr.w	lr, r5, r6
 8005980:	e68d      	b.n	800569e <__aeabi_dmul+0xde>
 8005982:	ea0c 5513 	and.w	r5, ip, r3, lsr #20
 8005986:	ea94 0f0c 	teq	r4, ip
 800598a:	bf08      	it	eq
 800598c:	ea95 0f0c 	teqeq	r5, ip
 8005990:	f43f af3b 	beq.w	800580a <__aeabi_dmul+0x24a>
 8005994:	ea94 0f0c 	teq	r4, ip
 8005998:	d10a      	bne.n	80059b0 <__aeabi_ddiv+0x19c>
 800599a:	ea50 3401 	orrs.w	r4, r0, r1, lsl #12
 800599e:	f47f af34 	bne.w	800580a <__aeabi_dmul+0x24a>
 80059a2:	ea95 0f0c 	teq	r5, ip
 80059a6:	f47f af25 	bne.w	80057f4 <__aeabi_dmul+0x234>
 80059aa:	4610      	mov	r0, r2
 80059ac:	4619      	mov	r1, r3
 80059ae:	e72c      	b.n	800580a <__aeabi_dmul+0x24a>
 80059b0:	ea95 0f0c 	teq	r5, ip
 80059b4:	d106      	bne.n	80059c4 <__aeabi_ddiv+0x1b0>
 80059b6:	ea52 3503 	orrs.w	r5, r2, r3, lsl #12
 80059ba:	f43f aefd 	beq.w	80057b8 <__aeabi_dmul+0x1f8>
 80059be:	4610      	mov	r0, r2
 80059c0:	4619      	mov	r1, r3
 80059c2:	e722      	b.n	800580a <__aeabi_dmul+0x24a>
 80059c4:	ea50 0641 	orrs.w	r6, r0, r1, lsl #1
 80059c8:	bf18      	it	ne
 80059ca:	ea52 0643 	orrsne.w	r6, r2, r3, lsl #1
 80059ce:	f47f aec5 	bne.w	800575c <__aeabi_dmul+0x19c>
 80059d2:	ea50 0441 	orrs.w	r4, r0, r1, lsl #1
 80059d6:	f47f af0d 	bne.w	80057f4 <__aeabi_dmul+0x234>
 80059da:	ea52 0543 	orrs.w	r5, r2, r3, lsl #1
 80059de:	f47f aeeb 	bne.w	80057b8 <__aeabi_dmul+0x1f8>
 80059e2:	e712      	b.n	800580a <__aeabi_dmul+0x24a>
	...

080059f0 <__aeabi_d2iz>:
 80059f0:	ea4f 0241 	mov.w	r2, r1, lsl #1
 80059f4:	f512 1200 	adds.w	r2, r2, #2097152	; 0x200000
 80059f8:	d215      	bcs.n	8005a26 <__aeabi_d2iz+0x36>
 80059fa:	d511      	bpl.n	8005a20 <__aeabi_d2iz+0x30>
 80059fc:	f46f 7378 	mvn.w	r3, #992	; 0x3e0
 8005a00:	ebb3 5262 	subs.w	r2, r3, r2, asr #21
 8005a04:	d912      	bls.n	8005a2c <__aeabi_d2iz+0x3c>
 8005a06:	ea4f 23c1 	mov.w	r3, r1, lsl #11
 8005a0a:	f043 4300 	orr.w	r3, r3, #2147483648	; 0x80000000
 8005a0e:	ea43 5350 	orr.w	r3, r3, r0, lsr #21
 8005a12:	f011 4f00 	tst.w	r1, #2147483648	; 0x80000000
 8005a16:	fa23 f002 	lsr.w	r0, r3, r2
 8005a1a:	bf18      	it	ne
 8005a1c:	4240      	negne	r0, r0
 8005a1e:	4770      	bx	lr
 8005a20:	f04f 0000 	mov.w	r0, #0
 8005a24:	4770      	bx	lr
 8005a26:	ea50 3001 	orrs.w	r0, r0, r1, lsl #12
 8005a2a:	d105      	bne.n	8005a38 <__aeabi_d2iz+0x48>
 8005a2c:	f011 4000 	ands.w	r0, r1, #2147483648	; 0x80000000
 8005a30:	bf08      	it	eq
 8005a32:	f06f 4000 	mvneq.w	r0, #2147483648	; 0x80000000
 8005a36:	4770      	bx	lr
 8005a38:	f04f 0000 	mov.w	r0, #0
 8005a3c:	4770      	bx	lr
 8005a3e:	bf00      	nop

08005a40 <sendchar_pf>:

    \param [in]    basePri  Base Priority value to set
 */
__attribute__( ( always_inline ) ) __STATIC_INLINE void __set_BASEPRI(uint32_t value)
{
  __ASM volatile ("MSR basepri, %0" : : "r" (value) : "memory");
 8005a40:	2320      	movs	r3, #32
 8005a42:	f383 8811 	msr	BASEPRI, r3
}


int8_t sendchar(uint8_t c) {
  osalSysLock();
  if(usbGetDriverStateI(&USB_DRIVER) != USB_ACTIVE) {
 8005a46:	4a20      	ldr	r2, [pc, #128]	; (8005ac8 <sendchar_pf+0x88>)
 8005a48:	7812      	ldrb	r2, [r2, #0]
 8005a4a:	2a04      	cmp	r2, #4
 8005a4c:	d003      	beq.n	8005a56 <sendchar_pf+0x16>
 8005a4e:	2300      	movs	r3, #0
 8005a50:	f383 8811 	msr	BASEPRI, r3
 8005a54:	4770      	bx	lr
  (void)c;
  return 0;
}
#endif /* CONSOLE_ENABLE */

void sendchar_pf(void *p, char c) {
 8005a56:	e92d 41f0 	stmdb	sp!, {r4, r5, r6, r7, r8, lr}
 8005a5a:	2200      	movs	r2, #0
 8005a5c:	4688      	mov	r8, r1
 8005a5e:	f382 8811 	msr	BASEPRI, r2
 8005a62:	f383 8811 	msr	BASEPRI, r3
 8005a66:	4f19      	ldr	r7, [pc, #100]	; (8005acc <sendchar_pf+0x8c>)

  if (TIME_IMMEDIATE == timeout) {
    return MSG_TIMEOUT;
  }

  queue_insert(currp, tqp);
 8005a68:	4e19      	ldr	r6, [pc, #100]	; (8005ad0 <sendchar_pf+0x90>)
 */
static inline bool chOQIsFullI(output_queue_t *oqp) {

  chDbgCheckClassI();

  return (bool)(chQSpaceI(oqp) == 0U);
 8005a6a:	463c      	mov	r4, r7
 8005a6c:	e00b      	b.n	8005a86 <sendchar_pf+0x46>
 8005a6e:	69b3      	ldr	r3, [r6, #24]
}

static inline void queue_insert(thread_t *tp, threads_queue_t *tqp) {

  tp->p_next = (thread_t *)tqp;
  tp->p_prev = tqp->p_prev;
 8005a70:	6862      	ldr	r2, [r4, #4]
  cp->p_prev = tp;
}

static inline void queue_insert(thread_t *tp, threads_queue_t *tqp) {

  tp->p_next = (thread_t *)tqp;
 8005a72:	601c      	str	r4, [r3, #0]
  tp->p_prev = tqp->p_prev;
 8005a74:	605a      	str	r2, [r3, #4]
  tp->p_prev->p_next = tp;
 8005a76:	6013      	str	r3, [r2, #0]
  tqp->p_prev = tp;
 8005a78:	6063      	str	r3, [r4, #4]
    if (chVTIsArmedI(&vt)) {
      chVTDoResetI(&vt);
    }
  }
  else {
    chSchGoSleepS(newstate);
 8005a7a:	f001 f9d9 	bl	8006e30 <chSchGoSleepS>
  }

  return currp->p_u.rdymsg;
 8005a7e:	69b3      	ldr	r3, [r6, #24]
msg_t chOQPutTimeout(output_queue_t *oqp, uint8_t b, systime_t timeout) {

  chSysLock();
  while (chOQIsFullI(oqp)) {
    msg_t msg = chThdEnqueueTimeoutS(&oqp->q_waiting, timeout);
    if (msg < Q_OK) {
 8005a80:	6a1b      	ldr	r3, [r3, #32]
 8005a82:	2b00      	cmp	r3, #0
 8005a84:	db1b      	blt.n	8005abe <sendchar_pf+0x7e>
 8005a86:	68bd      	ldr	r5, [r7, #8]
    if (chVTIsArmedI(&vt)) {
      chVTDoResetI(&vt);
    }
  }
  else {
    chSchGoSleepS(newstate);
 8005a88:	2004      	movs	r0, #4
 8005a8a:	4b10      	ldr	r3, [pc, #64]	; (8005acc <sendchar_pf+0x8c>)
 * @api
 */
msg_t chOQPutTimeout(output_queue_t *oqp, uint8_t b, systime_t timeout) {

  chSysLock();
  while (chOQIsFullI(oqp)) {
 8005a8c:	2d00      	cmp	r5, #0
 8005a8e:	d0ee      	beq.n	8005a6e <sendchar_pf+0x2e>
      return msg;
    }
  }

  oqp->q_counter--;
  *oqp->q_wrptr++ = b;
 8005a90:	6959      	ldr	r1, [r3, #20]
      chSysUnlock();
      return msg;
    }
  }

  oqp->q_counter--;
 8005a92:	689a      	ldr	r2, [r3, #8]
  *oqp->q_wrptr++ = b;
 8005a94:	1c48      	adds	r0, r1, #1
      chSysUnlock();
      return msg;
    }
  }

  oqp->q_counter--;
 8005a96:	3a01      	subs	r2, #1
  *oqp->q_wrptr++ = b;
 8005a98:	6158      	str	r0, [r3, #20]
      chSysUnlock();
      return msg;
    }
  }

  oqp->q_counter--;
 8005a9a:	609a      	str	r2, [r3, #8]
  *oqp->q_wrptr++ = b;
 8005a9c:	f881 8000 	strb.w	r8, [r1]
  if (oqp->q_wrptr >= oqp->q_top) {
 8005aa0:	691a      	ldr	r2, [r3, #16]
 8005aa2:	6959      	ldr	r1, [r3, #20]
 8005aa4:	4291      	cmp	r1, r2
    oqp->q_wrptr = oqp->q_buffer;
 8005aa6:	bf24      	itt	cs
 8005aa8:	68da      	ldrcs	r2, [r3, #12]
 8005aaa:	615a      	strcs	r2, [r3, #20]
  }

  if (oqp->q_notify != NULL) {
 8005aac:	69fb      	ldr	r3, [r7, #28]
 8005aae:	b10b      	cbz	r3, 8005ab4 <sendchar_pf+0x74>
    oqp->q_notify(oqp);
 8005ab0:	4806      	ldr	r0, [pc, #24]	; (8005acc <sendchar_pf+0x8c>)
 8005ab2:	4798      	blx	r3
 8005ab4:	2300      	movs	r3, #0
 8005ab6:	f383 8811 	msr	BASEPRI, r3
 8005aba:	e8bd 81f0 	ldmia.w	sp!, {r4, r5, r6, r7, r8, pc}
 8005abe:	f385 8811 	msr	BASEPRI, r5
 8005ac2:	e8bd 81f0 	ldmia.w	sp!, {r4, r5, r6, r7, r8, pc}
 8005ac6:	bf00      	nop
 8005ac8:	200014b4 	.word	0x200014b4
 8005acc:	200013b4 	.word	0x200013b4
 8005ad0:	20001260 	.word	0x20001260
 8005ad4:	f3af 8000 	nop.w
 8005ad8:	f3af 8000 	nop.w
 8005adc:	f3af 8000 	nop.w

08005ae0 <console_flush_cb>:
  }
}

/* Flush timer code
 * callback (called from ISR, unlocked state) */
static void console_flush_cb(void *arg) {
 8005ae0:	e92d 47f0 	stmdb	sp!, {r4, r5, r6, r7, r8, r9, sl, lr}
 8005ae4:	2320      	movs	r3, #32
 8005ae6:	b084      	sub	sp, #16
 8005ae8:	4607      	mov	r7, r0
 8005aea:	f383 8811 	msr	BASEPRI, r3
  size_t i, n;
  uint8_t buf[CONSOLE_EPSIZE]; /* TODO: a solution without extra buffer? */
  osalSysLockFromISR();

  /* check that the states of things are as they're supposed to */
  if(usbGetDriverStateI(usbp) != USB_ACTIVE) {
 8005aee:	7803      	ldrb	r3, [r0, #0]
 8005af0:	2b04      	cmp	r3, #4
 8005af2:	d010      	beq.n	8005b16 <console_flush_cb+0x36>
 8005af4:	482f      	ldr	r0, [pc, #188]	; (8005bb4 <console_flush_cb+0xd4>)
 *
 * @iclass
 */
static inline void chVTResetI(virtual_timer_t *vtp) {

  if (chVTIsArmedI(vtp)) {
 8005af6:	68c3      	ldr	r3, [r0, #12]
 8005af8:	b10b      	cbz	r3, 8005afe <console_flush_cb+0x1e>
    chVTDoResetI(vtp);
 8005afa:	f001 f9f1 	bl	8006ee0 <chVTDoResetI>
 */
static inline void chVTSetI(virtual_timer_t *vtp, systime_t delay,
                            vtfunc_t vtfunc, void *par) {

  chVTResetI(vtp);
  chVTDoSetI(vtp, delay, vtfunc, par);
 8005afe:	463b      	mov	r3, r7
 8005b00:	482c      	ldr	r0, [pc, #176]	; (8005bb4 <console_flush_cb+0xd4>)
 8005b02:	2164      	movs	r1, #100	; 0x64
 8005b04:	4a2c      	ldr	r2, [pc, #176]	; (8005bb8 <console_flush_cb+0xd8>)
 8005b06:	f001 fa2b 	bl	8006f60 <chVTDoSetI>
 8005b0a:	2300      	movs	r3, #0
 8005b0c:	f383 8811 	msr	BASEPRI, r3
  (void)usbStartTransmitI(usbp, CONSOLE_ENDPOINT);

  /* rearm the timer */
  chVTSetI(&console_flush_timer, MS2ST(CONSOLE_FLUSH_MS), console_flush_cb, (void *)usbp);
  osalSysUnlockFromISR();
}
 8005b10:	b004      	add	sp, #16
 8005b12:	e8bd 87f0 	ldmia.w	sp!, {r4, r5, r6, r7, r8, r9, sl, pc}
 */
static inline size_t chOQGetFullI(output_queue_t *oqp) {

  chDbgCheckClassI();

  return (size_t)(chQSizeX(oqp) - chQSpaceI(oqp));
 8005b16:	4c29      	ldr	r4, [pc, #164]	; (8005bbc <console_flush_cb+0xdc>)
 8005b18:	6923      	ldr	r3, [r4, #16]
 8005b1a:	68e2      	ldr	r2, [r4, #12]
 8005b1c:	68a5      	ldr	r5, [r4, #8]
 8005b1e:	1a9b      	subs	r3, r3, r2
 8005b20:	1b5d      	subs	r5, r3, r5
    osalSysUnlockFromISR();
    return;
  }

  /* don't do anything if the queue is empty or has enough stuff in it */
  if(((n = oqGetFullI(&console_queue)) == 0) || (n >= CONSOLE_EPSIZE)) {
 8005b22:	1e6b      	subs	r3, r5, #1
 8005b24:	2b0e      	cmp	r3, #14
 8005b26:	d8e5      	bhi.n	8005af4 <console_flush_cb+0x14>
 8005b28:	46e9      	mov	r9, sp
 */
static inline bool chOQIsEmptyI(output_queue_t *oqp) {

  chDbgCheckClassI();

  return (bool)((oqp->q_wrptr == oqp->q_rdptr) && (oqp->q_counter != 0U));
 8005b2a:	46a2      	mov	sl, r4
 8005b2c:	446d      	add	r5, sp

  tp = queue_fifo_remove(tqp);

  chDbgAssert(tp->p_state == CH_STATE_QUEUED, "invalid state");

  tp->p_u.rdymsg = msg;
 8005b2e:	f04f 0800 	mov.w	r8, #0
 8005b32:	69a3      	ldr	r3, [r4, #24]
 8005b34:	6962      	ldr	r2, [r4, #20]
 8005b36:	429a      	cmp	r2, r3
 8005b38:	d036      	beq.n	8005ba8 <console_flush_cb+0xc8>

  if (chOQIsEmptyI(oqp)) {
    return Q_EMPTY;
  }

  oqp->q_counter++;
 8005b3a:	68a2      	ldr	r2, [r4, #8]
  b = *oqp->q_rdptr++;
  if (oqp->q_rdptr >= oqp->q_top) {
 8005b3c:	6921      	ldr	r1, [r4, #16]
  if (chOQIsEmptyI(oqp)) {
    return Q_EMPTY;
  }

  oqp->q_counter++;
  b = *oqp->q_rdptr++;
 8005b3e:	1c58      	adds	r0, r3, #1

  if (chOQIsEmptyI(oqp)) {
    return Q_EMPTY;
  }

  oqp->q_counter++;
 8005b40:	3201      	adds	r2, #1
 8005b42:	60a2      	str	r2, [r4, #8]
  b = *oqp->q_rdptr++;
 8005b44:	61a0      	str	r0, [r4, #24]
  if (oqp->q_rdptr >= oqp->q_top) {
 8005b46:	4288      	cmp	r0, r1
  if (chOQIsEmptyI(oqp)) {
    return Q_EMPTY;
  }

  oqp->q_counter++;
  b = *oqp->q_rdptr++;
 8005b48:	781e      	ldrb	r6, [r3, #0]
  if (oqp->q_rdptr >= oqp->q_top) {
 8005b4a:	d303      	bcc.n	8005b54 <console_flush_cb+0x74>
    oqp->q_rdptr = oqp->q_buffer;
 8005b4c:	f8da 300c 	ldr.w	r3, [sl, #12]
 8005b50:	f8ca 3018 	str.w	r3, [sl, #24]
 *
 * @notapi
 */
static inline bool queue_notempty(const threads_queue_t *tqp) {

  return (bool)(tqp->p_next != (const thread_t *)tqp);
 8005b54:	6823      	ldr	r3, [r4, #0]
 *
 * @iclass
 */
void chThdDequeueNextI(threads_queue_t *tqp, msg_t msg) {

  if (queue_notempty(tqp)) {
 8005b56:	42a3      	cmp	r3, r4
 8005b58:	d009      	beq.n	8005b6e <console_flush_cb+0x8e>
}

static inline thread_t *queue_fifo_remove(threads_queue_t *tqp) {
  thread_t *tp = tqp->p_next;

  tqp->p_next = tp->p_next;
 8005b5a:	681a      	ldr	r2, [r3, #0]
  (void) chSchReadyI(tp);
 8005b5c:	4618      	mov	r0, r3
  tqp->p_next->p_prev = (thread_t *)tqp;
 8005b5e:	f8c2 a004 	str.w	sl, [r2, #4]
}

static inline thread_t *queue_fifo_remove(threads_queue_t *tqp) {
  thread_t *tp = tqp->p_next;

  tqp->p_next = tp->p_next;
 8005b62:	f8ca 2000 	str.w	r2, [sl]

  tp = queue_fifo_remove(tqp);

  chDbgAssert(tp->p_state == CH_STATE_QUEUED, "invalid state");

  tp->p_u.rdymsg = msg;
 8005b66:	f8c3 8020 	str.w	r8, [r3, #32]
  (void) chSchReadyI(tp);
 8005b6a:	f001 f979 	bl	8006e60 <chSchReadyI>
 8005b6e:	4633      	mov	r3, r6
    return;
  }

  /* there's stuff hanging in the queue - so dequeue and send */
  for(i = 0; i < n; i++)
    buf[i] = (uint8_t)oqGetI(&console_queue);
 8005b70:	f809 3b01 	strb.w	r3, [r9], #1
    osalSysUnlockFromISR();
    return;
  }

  /* there's stuff hanging in the queue - so dequeue and send */
  for(i = 0; i < n; i++)
 8005b74:	45a9      	cmp	r9, r5
 8005b76:	d1dc      	bne.n	8005b32 <console_flush_cb+0x52>
 8005b78:	a904      	add	r1, sp, #16
    buf[i] = (uint8_t)oqGetI(&console_queue);
  for(i = n; i < CONSOLE_EPSIZE; i++)
    buf[i] = 0;
 8005b7a:	2200      	movs	r2, #0
 8005b7c:	f805 2b01 	strb.w	r2, [r5], #1
  }

  /* there's stuff hanging in the queue - so dequeue and send */
  for(i = 0; i < n; i++)
    buf[i] = (uint8_t)oqGetI(&console_queue);
  for(i = n; i < CONSOLE_EPSIZE; i++)
 8005b80:	428d      	cmp	r5, r1
    buf[i] = 0;
 8005b82:	f04f 0300 	mov.w	r3, #0
  }

  /* there's stuff hanging in the queue - so dequeue and send */
  for(i = 0; i < n; i++)
    buf[i] = (uint8_t)oqGetI(&console_queue);
  for(i = n; i < CONSOLE_EPSIZE; i++)
 8005b86:	d1f9      	bne.n	8005b7c <console_flush_cb+0x9c>
 8005b88:	f383 8811 	msr	BASEPRI, r3
    buf[i] = 0;
  osalSysUnlockFromISR();
  usbPrepareTransmit(usbp, CONSOLE_ENDPOINT, buf, CONSOLE_EPSIZE);
 8005b8c:	2103      	movs	r1, #3
 8005b8e:	466a      	mov	r2, sp
 8005b90:	4638      	mov	r0, r7
 8005b92:	2310      	movs	r3, #16
 8005b94:	f001 f84c 	bl	8006c30 <usbPrepareTransmit>
 8005b98:	2320      	movs	r3, #32
 8005b9a:	f383 8811 	msr	BASEPRI, r3
  osalSysLockFromISR();
  (void)usbStartTransmitI(usbp, CONSOLE_ENDPOINT);
 8005b9e:	2103      	movs	r1, #3
 8005ba0:	4638      	mov	r0, r7
 8005ba2:	f000 fd55 	bl	8006650 <usbStartTransmitI>
 8005ba6:	e7a5      	b.n	8005af4 <console_flush_cb+0x14>
 8005ba8:	f8da 2008 	ldr.w	r2, [sl, #8]
 8005bac:	2a00      	cmp	r2, #0
 8005bae:	d0c4      	beq.n	8005b3a <console_flush_cb+0x5a>
 8005bb0:	23fd      	movs	r3, #253	; 0xfd
 8005bb2:	e7dd      	b.n	8005b70 <console_flush_cb+0x90>
 8005bb4:	200013e0 	.word	0x200013e0
 8005bb8:	08005ae1 	.word	0x08005ae1
 8005bbc:	200013b4 	.word	0x200013b4

08005bc0 <console_in_cb>:
 */

#ifdef CONSOLE_ENABLE

/* debug IN callback hander */
void console_in_cb(USBDriver *usbp, usbep_t ep) {
 8005bc0:	b538      	push	{r3, r4, r5, lr}
 8005bc2:	4604      	mov	r4, r0
 8005bc4:	2320      	movs	r3, #32
 8005bc6:	f383 8811 	msr	BASEPRI, r3
 8005bca:	4816      	ldr	r0, [pc, #88]	; (8005c24 <console_in_cb+0x64>)
 *
 * @iclass
 */
static inline void chVTResetI(virtual_timer_t *vtp) {

  if (chVTIsArmedI(vtp)) {
 8005bcc:	68c3      	ldr	r3, [r0, #12]
 8005bce:	b10b      	cbz	r3, 8005bd4 <console_in_cb+0x14>
    chVTDoResetI(vtp);
 8005bd0:	f001 f986 	bl	8006ee0 <chVTDoResetI>
 */
static inline void chVTSetI(virtual_timer_t *vtp, systime_t delay,
                            vtfunc_t vtfunc, void *par) {

  chVTResetI(vtp);
  chVTDoSetI(vtp, delay, vtfunc, par);
 8005bd4:	4813      	ldr	r0, [pc, #76]	; (8005c24 <console_in_cb+0x64>)
 8005bd6:	2164      	movs	r1, #100	; 0x64
 8005bd8:	4a13      	ldr	r2, [pc, #76]	; (8005c28 <console_in_cb+0x68>)
 8005bda:	4623      	mov	r3, r4
 8005bdc:	f001 f9c0 	bl	8006f60 <chVTDoSetI>
 */
static inline size_t chOQGetFullI(output_queue_t *oqp) {

  chDbgCheckClassI();

  return (size_t)(chQSizeX(oqp) - chQSpaceI(oqp));
 8005be0:	4a12      	ldr	r2, [pc, #72]	; (8005c2c <console_in_cb+0x6c>)
 8005be2:	6913      	ldr	r3, [r2, #16]
 8005be4:	68d0      	ldr	r0, [r2, #12]
 8005be6:	6891      	ldr	r1, [r2, #8]
 8005be8:	1a1b      	subs	r3, r3, r0
 8005bea:	1a5b      	subs	r3, r3, r1

  /* rearm the timer */
  chVTSetI(&console_flush_timer, MS2ST(CONSOLE_FLUSH_MS), console_flush_cb, (void *)usbp);

  /* Check if there is data to send left in the output queue */
  if(chOQGetFullI(&console_queue) >= CONSOLE_EPSIZE) {
 8005bec:	2b0f      	cmp	r3, #15
 8005bee:	d915      	bls.n	8005c1c <console_in_cb+0x5c>
 8005bf0:	2100      	movs	r1, #0
 8005bf2:	f381 8811 	msr	BASEPRI, r1
 *
 * @special
 */
void usbPrepareQueuedTransmit(USBDriver *usbp, usbep_t ep,
                              output_queue_t *oqp, size_t n) {
  USBInEndpointState *isp = usbp->epc[ep]->in_state;
 8005bf6:	69a3      	ldr	r3, [r4, #24]

  isp->txqueued           = true;
 8005bf8:	2501      	movs	r5, #1
 *
 * @special
 */
void usbPrepareQueuedTransmit(USBDriver *usbp, usbep_t ep,
                              output_queue_t *oqp, size_t n) {
  USBInEndpointState *isp = usbp->epc[ep]->in_state;
 8005bfa:	695b      	ldr	r3, [r3, #20]

  isp->txqueued           = true;
  isp->mode.queue.txqueue = oqp;
  isp->txsize             = n;
 8005bfc:	2010      	movs	r0, #16
void usbPrepareQueuedTransmit(USBDriver *usbp, usbep_t ep,
                              output_queue_t *oqp, size_t n) {
  USBInEndpointState *isp = usbp->epc[ep]->in_state;

  isp->txqueued           = true;
  isp->mode.queue.txqueue = oqp;
 8005bfe:	60da      	str	r2, [r3, #12]
  isp->txsize             = n;
  isp->txcnt              = 0;
 8005c00:	6099      	str	r1, [r3, #8]
 */
void usbPrepareQueuedTransmit(USBDriver *usbp, usbep_t ep,
                              output_queue_t *oqp, size_t n) {
  USBInEndpointState *isp = usbp->epc[ep]->in_state;

  isp->txqueued           = true;
 8005c02:	701d      	strb	r5, [r3, #0]
  isp->mode.queue.txqueue = oqp;
  isp->txsize             = n;
 8005c04:	6058      	str	r0, [r3, #4]
  isp->txcnt              = 0;

  usb_lld_prepare_transmit(usbp, ep);
 8005c06:	2103      	movs	r1, #3
 8005c08:	4620      	mov	r0, r4
 8005c0a:	f001 ff69 	bl	8007ae0 <usb_lld_prepare_transmit>
 8005c0e:	2320      	movs	r3, #32
 8005c10:	f383 8811 	msr	BASEPRI, r3
    osalSysUnlockFromISR();
    usbPrepareQueuedTransmit(usbp, CONSOLE_ENDPOINT, &console_queue, CONSOLE_EPSIZE);
    osalSysLockFromISR();
    usbStartTransmitI(usbp, CONSOLE_ENDPOINT);
 8005c14:	2103      	movs	r1, #3
 8005c16:	4620      	mov	r0, r4
 8005c18:	f000 fd1a 	bl	8006650 <usbStartTransmitI>
 8005c1c:	2300      	movs	r3, #0
 8005c1e:	f383 8811 	msr	BASEPRI, r3
 8005c22:	bd38      	pop	{r3, r4, r5, pc}
 8005c24:	200013e0 	.word	0x200013e0
 8005c28:	08005ae1 	.word	0x08005ae1
 8005c2c:	200013b4 	.word	0x200013b4

08005c30 <console_queue_onotify>:
  osalSysUnlockFromISR();
}

/* Callback when data is inserted into the output queue
 * Called from a locked state */
void console_queue_onotify(io_queue_t *qp) {
 8005c30:	b538      	push	{r3, r4, r5, lr}
  USBDriver *usbp = qGetLink(qp);
 8005c32:	6a04      	ldr	r4, [r0, #32]

  if(usbGetDriverStateI(usbp) != USB_ACTIVE)
 8005c34:	7823      	ldrb	r3, [r4, #0]
 8005c36:	2b04      	cmp	r3, #4
 8005c38:	d000      	beq.n	8005c3c <console_queue_onotify+0xc>
 8005c3a:	bd38      	pop	{r3, r4, r5, pc}
    return;

  if(!usbGetTransmitStatusI(usbp, CONSOLE_ENDPOINT)
 8005c3c:	8923      	ldrh	r3, [r4, #8]
 8005c3e:	f003 0308 	and.w	r3, r3, #8
 8005c42:	b29b      	uxth	r3, r3
 8005c44:	2b00      	cmp	r3, #0
 8005c46:	d1f8      	bne.n	8005c3a <console_queue_onotify+0xa>
 8005c48:	490f      	ldr	r1, [pc, #60]	; (8005c88 <console_queue_onotify+0x58>)
 8005c4a:	690a      	ldr	r2, [r1, #16]
 8005c4c:	68cd      	ldr	r5, [r1, #12]
 8005c4e:	6888      	ldr	r0, [r1, #8]
 8005c50:	1b52      	subs	r2, r2, r5
 8005c52:	1a12      	subs	r2, r2, r0
     && (chOQGetFullI(&console_queue) >= CONSOLE_EPSIZE)) {
 8005c54:	2a0f      	cmp	r2, #15
 8005c56:	d9f0      	bls.n	8005c3a <console_queue_onotify+0xa>
 8005c58:	f383 8811 	msr	BASEPRI, r3
 *
 * @special
 */
void usbPrepareQueuedTransmit(USBDriver *usbp, usbep_t ep,
                              output_queue_t *oqp, size_t n) {
  USBInEndpointState *isp = usbp->epc[ep]->in_state;
 8005c5c:	69a2      	ldr	r2, [r4, #24]

  isp->txqueued           = true;
 8005c5e:	2501      	movs	r5, #1
 *
 * @special
 */
void usbPrepareQueuedTransmit(USBDriver *usbp, usbep_t ep,
                              output_queue_t *oqp, size_t n) {
  USBInEndpointState *isp = usbp->epc[ep]->in_state;
 8005c60:	6952      	ldr	r2, [r2, #20]

  isp->txqueued           = true;
  isp->mode.queue.txqueue = oqp;
  isp->txsize             = n;
 8005c62:	2010      	movs	r0, #16
void usbPrepareQueuedTransmit(USBDriver *usbp, usbep_t ep,
                              output_queue_t *oqp, size_t n) {
  USBInEndpointState *isp = usbp->epc[ep]->in_state;

  isp->txqueued           = true;
  isp->mode.queue.txqueue = oqp;
 8005c64:	60d1      	str	r1, [r2, #12]
  isp->txsize             = n;
  isp->txcnt              = 0;
 8005c66:	6093      	str	r3, [r2, #8]
                              output_queue_t *oqp, size_t n) {
  USBInEndpointState *isp = usbp->epc[ep]->in_state;

  isp->txqueued           = true;
  isp->mode.queue.txqueue = oqp;
  isp->txsize             = n;
 8005c68:	6050      	str	r0, [r2, #4]
 */
void usbPrepareQueuedTransmit(USBDriver *usbp, usbep_t ep,
                              output_queue_t *oqp, size_t n) {
  USBInEndpointState *isp = usbp->epc[ep]->in_state;

  isp->txqueued           = true;
 8005c6a:	7015      	strb	r5, [r2, #0]
  isp->mode.queue.txqueue = oqp;
  isp->txsize             = n;
  isp->txcnt              = 0;

  usb_lld_prepare_transmit(usbp, ep);
 8005c6c:	4620      	mov	r0, r4
 8005c6e:	2103      	movs	r1, #3
 8005c70:	f001 ff36 	bl	8007ae0 <usb_lld_prepare_transmit>
 8005c74:	2320      	movs	r3, #32
 8005c76:	f383 8811 	msr	BASEPRI, r3
    osalSysUnlock();
    usbPrepareQueuedTransmit(usbp, CONSOLE_ENDPOINT, &console_queue, CONSOLE_EPSIZE);
    osalSysLock();
    usbStartTransmitI(usbp, CONSOLE_ENDPOINT);
 8005c7a:	2103      	movs	r1, #3
 8005c7c:	4620      	mov	r0, r4
  }
}
 8005c7e:	e8bd 4038 	ldmia.w	sp!, {r3, r4, r5, lr}
  if(!usbGetTransmitStatusI(usbp, CONSOLE_ENDPOINT)
     && (chOQGetFullI(&console_queue) >= CONSOLE_EPSIZE)) {
    osalSysUnlock();
    usbPrepareQueuedTransmit(usbp, CONSOLE_ENDPOINT, &console_queue, CONSOLE_EPSIZE);
    osalSysLock();
    usbStartTransmitI(usbp, CONSOLE_ENDPOINT);
 8005c82:	f000 bce5 	b.w	8006650 <usbStartTransmitI>
 8005c86:	bf00      	nop
 8005c88:	200013b4 	.word	0x200013b4
 8005c8c:	f3af 8000 	nop.w

08005c90 <main>:
 * @notapi
 */
void hal_lld_init(void) {

  /* Reset of all peripherals.*/
  rccResetAPB1(0xFFFFFFFF);
 8005c90:	4bbf      	ldr	r3, [pc, #764]	; (8005f90 <main+0x300>)
 8005c92:	f04f 32ff 	mov.w	r2, #4294967295
 8005c96:	2100      	movs	r1, #0
 8005c98:	6918      	ldr	r0, [r3, #16]



/* Main thread
 */
int main(void) {
 8005c9a:	e92d 4880 	stmdb	sp!, {r7, fp, lr}
 8005c9e:	611a      	str	r2, [r3, #16]
 8005ca0:	6119      	str	r1, [r3, #16]
  rccResetAPB2(0xFFFFFFFF);
 8005ca2:	68d8      	ldr	r0, [r3, #12]
 8005ca4:	60da      	str	r2, [r3, #12]
 8005ca6:	60d9      	str	r1, [r3, #12]

  /* PWR and BD clocks enabled.*/
  rccEnablePWRInterface(FALSE);
 8005ca8:	69d8      	ldr	r0, [r3, #28]
 *          of the whole BKP domain.
 */
static void hal_lld_backup_domain_init(void) {

  /* Backup domain access enabled and left open.*/
  PWR->CR |= PWR_CR_DBP;
 8005caa:	4cba      	ldr	r4, [pc, #744]	; (8005f94 <main+0x304>)
  /* Reset of all peripherals.*/
  rccResetAPB1(0xFFFFFFFF);
  rccResetAPB2(0xFFFFFFFF);

  /* PWR and BD clocks enabled.*/
  rccEnablePWRInterface(FALSE);
 8005cac:	f040 5080 	orr.w	r0, r0, #268435456	; 0x10000000
 8005cb0:	61d8      	str	r0, [r3, #28]
  rccEnableBKPInterface(FALSE);
 8005cb2:	69d8      	ldr	r0, [r3, #28]
  rccEnableAPB2(APB2_EN_MASK, FALSE);

  /*
   * Initial GPIO setup.
   */
  GPIOA->ODR = config->PAData.odr;
 8005cb4:	f8df e32c 	ldr.w	lr, [pc, #812]	; 8005fe4 <main+0x354>
 8005cb8:	f040 6000 	orr.w	r0, r0, #134217728	; 0x8000000
 8005cbc:	61d8      	str	r0, [r3, #28]
 *          of the whole BKP domain.
 */
static void hal_lld_backup_domain_init(void) {

  /* Backup domain access enabled and left open.*/
  PWR->CR |= PWR_CR_DBP;
 8005cbe:	6820      	ldr	r0, [r4, #0]
  GPIOA->CRH = config->PAData.crh;
  GPIOA->CRL = config->PAData.crl;
  GPIOB->ODR = config->PBData.odr;
 8005cc0:	4fb5      	ldr	r7, [pc, #724]	; (8005f98 <main+0x308>)
 8005cc2:	f440 7080 	orr.w	r0, r0, #256	; 0x100
 8005cc6:	6020      	str	r0, [r4, #0]
void _pal_lld_init(const PALConfig *config) {

  /*
   * Enables the GPIO related clocks.
   */
  rccEnableAPB2(APB2_EN_MASK, FALSE);
 8005cc8:	699c      	ldr	r4, [r3, #24]
  GPIOA->CRH = config->PAData.crh;
  GPIOA->CRL = config->PAData.crl;
  GPIOB->ODR = config->PBData.odr;
  GPIOB->CRH = config->PBData.crh;
  GPIOB->CRL = config->PBData.crl;
  GPIOC->ODR = config->PCData.odr;
 8005cca:	4eb4      	ldr	r6, [pc, #720]	; (8005f9c <main+0x30c>)
void _pal_lld_init(const PALConfig *config) {

  /*
   * Enables the GPIO related clocks.
   */
  rccEnableAPB2(APB2_EN_MASK, FALSE);
 8005ccc:	f044 047d 	orr.w	r4, r4, #125	; 0x7d
 8005cd0:	619c      	str	r4, [r3, #24]
 * @init
 */
void usbObjectInit(USBDriver *usbp) {
  unsigned i;

  usbp->state        = USB_STOP;
 8005cd2:	4cb3      	ldr	r4, [pc, #716]	; (8005fa0 <main+0x310>)
  GPIOB->CRH = config->PBData.crh;
  GPIOB->CRL = config->PBData.crl;
  GPIOC->ODR = config->PCData.odr;
  GPIOC->CRH = config->PCData.crh;
  GPIOC->CRL = config->PCData.crl;
  GPIOD->ODR = config->PDData.odr;
 8005cd4:	4db3      	ldr	r5, [pc, #716]	; (8005fa4 <main+0x314>)
  GPIOD->CRH = config->PDData.crh;
  GPIOD->CRL = config->PDData.crl;
#if STM32_HAS_GPIOE || defined(__DOXYGEN__)
  GPIOE->ODR = config->PEData.odr;
 8005cd6:	48b4      	ldr	r0, [pc, #720]	; (8005fa8 <main+0x318>)
  /*
   * Initial GPIO setup.
   */
  GPIOA->ODR = config->PAData.odr;
  GPIOA->CRH = config->PAData.crh;
  GPIOA->CRL = config->PAData.crl;
 8005cd8:	f8df a30c 	ldr.w	sl, [pc, #780]	; 8005fe8 <main+0x358>
  GPIOB->ODR = config->PBData.odr;
  GPIOB->CRH = config->PBData.crh;
 8005cdc:	f8df c30c 	ldr.w	ip, [pc, #780]	; 8005fec <main+0x35c>

  /*
   * Initial GPIO setup.
   */
  GPIOA->ODR = config->PAData.odr;
  GPIOA->CRH = config->PAData.crh;
 8005ce0:	f8df b30c 	ldr.w	fp, [pc, #780]	; 8005ff0 <main+0x360>
  GPIOC->ODR = config->PCData.odr;
  GPIOC->CRH = config->PCData.crh;
  GPIOC->CRL = config->PCData.crl;
  GPIOD->ODR = config->PDData.odr;
  GPIOD->CRH = config->PDData.crh;
  GPIOD->CRL = config->PDData.crl;
 8005ce4:	f8df 930c 	ldr.w	r9, [pc, #780]	; 8005ff4 <main+0x364>
  rccEnableAPB2(APB2_EN_MASK, FALSE);

  /*
   * Initial GPIO setup.
   */
  GPIOA->ODR = config->PAData.odr;
 8005ce8:	f8ce 200c 	str.w	r2, [lr, #12]
  GPIOA->CRL = config->PAData.crl;
  GPIOB->ODR = config->PBData.odr;
  GPIOB->CRH = config->PBData.crh;
  GPIOB->CRL = config->PBData.crl;
  GPIOC->ODR = config->PCData.odr;
  GPIOC->CRH = config->PCData.crh;
 8005cec:	f04f 3388 	mov.w	r3, #2290649224	; 0x88888888
  usbp->config       = NULL;
 8005cf0:	6061      	str	r1, [r4, #4]
  for (i = 0; i < (unsigned)USB_MAX_ENDPOINTS; i++) {
    usbp->in_params[i]  = NULL;
 8005cf2:	4688      	mov	r8, r1
 * @init
 */
void usbObjectInit(USBDriver *usbp) {
  unsigned i;

  usbp->state        = USB_STOP;
 8005cf4:	2101      	movs	r1, #1

  /*
   * Initial GPIO setup.
   */
  GPIOA->ODR = config->PAData.odr;
  GPIOA->CRH = config->PAData.crh;
 8005cf6:	f8ce b004 	str.w	fp, [lr, #4]
 8005cfa:	b08b      	sub	sp, #44	; 0x2c
  GPIOA->CRL = config->PAData.crl;
 8005cfc:	f8ce a000 	str.w	sl, [lr]
  GPIOB->ODR = config->PBData.odr;
 8005d00:	60fa      	str	r2, [r7, #12]
 8005d02:	f104 0e28 	add.w	lr, r4, #40	; 0x28
  GPIOB->CRH = config->PBData.crh;
 8005d06:	f8c7 c004 	str.w	ip, [r7, #4]
 8005d0a:	f104 0a44 	add.w	sl, r4, #68	; 0x44
  GPIOB->CRL = config->PBData.crl;
 8005d0e:	f8c7 c000 	str.w	ip, [r7]
  GPIOC->ODR = config->PCData.odr;
 8005d12:	60f2      	str	r2, [r6, #12]
  GPIOC->CRH = config->PCData.crh;
 8005d14:	6073      	str	r3, [r6, #4]
  GPIOC->CRL = config->PCData.crl;
 8005d16:	6033      	str	r3, [r6, #0]
  GPIOD->ODR = config->PDData.odr;
 8005d18:	60ea      	str	r2, [r5, #12]
  GPIOD->CRH = config->PDData.crh;
 8005d1a:	606b      	str	r3, [r5, #4]
  GPIOD->CRL = config->PDData.crl;
 8005d1c:	f8c5 9000 	str.w	r9, [r5]
#if STM32_HAS_GPIOE || defined(__DOXYGEN__)
  GPIOE->ODR = config->PEData.odr;
 8005d20:	60c2      	str	r2, [r0, #12]
  GPIOE->CRH = config->PEData.crh;
 8005d22:	6043      	str	r3, [r0, #4]
  GPIOE->CRL = config->PEData.crl;
 8005d24:	6003      	str	r3, [r0, #0]
 8005d26:	7021      	strb	r1, [r4, #0]
  usbp->config       = NULL;
  for (i = 0; i < (unsigned)USB_MAX_ENDPOINTS; i++) {
    usbp->in_params[i]  = NULL;
 8005d28:	f84e 8f04 	str.w	r8, [lr, #4]!
void usbObjectInit(USBDriver *usbp) {
  unsigned i;

  usbp->state        = USB_STOP;
  usbp->config       = NULL;
  for (i = 0; i < (unsigned)USB_MAX_ENDPOINTS; i++) {
 8005d2c:	45d6      	cmp	lr, sl
    usbp->in_params[i]  = NULL;
    usbp->out_params[i] = NULL;
 8005d2e:	f8ce 801c 	str.w	r8, [lr, #28]
  unsigned i;

  usbp->state        = USB_STOP;
  usbp->config       = NULL;
  for (i = 0; i < (unsigned)USB_MAX_ENDPOINTS; i++) {
    usbp->in_params[i]  = NULL;
 8005d32:	f04f 0600 	mov.w	r6, #0
void usbObjectInit(USBDriver *usbp) {
  unsigned i;

  usbp->state        = USB_STOP;
  usbp->config       = NULL;
  for (i = 0; i < (unsigned)USB_MAX_ENDPOINTS; i++) {
 8005d36:	d1f7      	bne.n	8005d28 <main+0x98>
  /* Enabling the stop mode during debug for this timer.*/
  ST_ENABLE_STOP();

  /* Initializing the counter in free running mode.*/
  STM32_ST_TIM->PSC    = (ST_CLOCK_SRC / OSAL_ST_FREQUENCY) - 1;
  STM32_ST_TIM->ARR    = ST_ARR_INIT;
 8005d38:	f64f 71ff 	movw	r1, #65535	; 0xffff

  /* Enabling the stop mode during debug for this timer.*/
  ST_ENABLE_STOP();

  /* Initializing the counter in free running mode.*/
  STM32_ST_TIM->PSC    = (ST_CLOCK_SRC / OSAL_ST_FREQUENCY) - 1;
 8005d3c:	f648 4a9f 	movw	sl, #35999	; 0x8c9f
{
  uint32_t reg_value;
  uint32_t PriorityGroupTmp = (PriorityGroup & (uint32_t)0x07UL);             /* only values 0..7 are used          */

  reg_value  =  SCB->AIRCR;                                                   /* read old register configuration    */
  reg_value &= ~((uint32_t)(SCB_AIRCR_VECTKEY_Msk | SCB_AIRCR_PRIGROUP_Msk));             /* clear bits to change               */
 8005d40:	f64f 00ff 	movw	r0, #63743	; 0xf8ff

#if OSAL_ST_MODE == OSAL_ST_MODE_FREERUNNING
  /* Free running counter mode.*/

  /* Enabling timer clock.*/
  ST_ENABLE_CLOCK();
 8005d44:	4a92      	ldr	r2, [pc, #584]	; (8005f90 <main+0x300>)

  /* Enabling the stop mode during debug for this timer.*/
  ST_ENABLE_STOP();
 8005d46:	f8df c2b0 	ldr.w	ip, [pc, #688]	; 8005ff8 <main+0x368>

#if OSAL_ST_MODE == OSAL_ST_MODE_FREERUNNING
  /* Free running counter mode.*/

  /* Enabling timer clock.*/
  ST_ENABLE_CLOCK();
 8005d4a:	69d3      	ldr	r3, [r2, #28]

#if defined(__CORE_CM0_H_GENERIC)
  NVIC->IP[_IP_IDX(n)] = (NVIC->IP[_IP_IDX(n)] & ~(0xFFU << _BIT_SHIFT(n))) |
                         (NVIC_PRIORITY_MASK(prio) << _BIT_SHIFT(n));
#else
  NVIC->IP[n] = NVIC_PRIORITY_MASK(prio);
 8005d4c:	4d97      	ldr	r5, [pc, #604]	; (8005fac <main+0x31c>)
 8005d4e:	f043 0301 	orr.w	r3, r3, #1
 8005d52:	61d3      	str	r3, [r2, #28]

  /* Enabling the stop mode during debug for this timer.*/
  ST_ENABLE_STOP();
 8005d54:	f8dc 3004 	ldr.w	r3, [ip, #4]
 * @brief   Port-related initialization code.
 */
static inline void port_init(void) {

  /* Initialization of the vector table and priority related settings.*/
  SCB->VTOR = CORTEX_VTOR_INIT;
 8005d58:	4a95      	ldr	r2, [pc, #596]	; (8005fb0 <main+0x320>)
 8005d5a:	f443 6e00 	orr.w	lr, r3, #2048	; 0x800
 8005d5e:	f8cc e004 	str.w	lr, [ip, #4]

  /* Initializing the counter in free running mode.*/
  STM32_ST_TIM->PSC    = (ST_CLOCK_SRC / OSAL_ST_FREQUENCY) - 1;
 8005d62:	f04f 4380 	mov.w	r3, #1073741824	; 0x40000000
  STM32_ST_TIM->ARR    = ST_ARR_INIT;
  STM32_ST_TIM->CCMR1  = 0;
  STM32_ST_TIM->CCR[0] = 0;
  STM32_ST_TIM->DIER   = 0;
  STM32_ST_TIM->CR2    = 0;
  STM32_ST_TIM->EGR    = TIM_EGR_UG;
 8005d66:	2701      	movs	r7, #1
#endif
  NVIC->ICPR[n >> 5U] = 1U << (n & 0x1FU);
 8005d68:	f04f 5e80 	mov.w	lr, #268435456	; 0x10000000

#if defined(__CORE_CM0_H_GENERIC)
  NVIC->IP[_IP_IDX(n)] = (NVIC->IP[_IP_IDX(n)] & ~(0xFFU << _BIT_SHIFT(n))) |
                         (NVIC_PRIORITY_MASK(prio) << _BIT_SHIFT(n));
#else
  NVIC->IP[n] = NVIC_PRIORITY_MASK(prio);
 8005d6c:	f04f 0b80 	mov.w	fp, #128	; 0x80
 8005d70:	f44f 4ca0 	mov.w	ip, #20480	; 0x5000

  /* Enabling the stop mode during debug for this timer.*/
  ST_ENABLE_STOP();

  /* Initializing the counter in free running mode.*/
  STM32_ST_TIM->PSC    = (ST_CLOCK_SRC / OSAL_ST_FREQUENCY) - 1;
 8005d74:	f8c3 a028 	str.w	sl, [r3, #40]	; 0x28
  STM32_ST_TIM->ARR    = ST_ARR_INIT;
 8005d78:	62d9      	str	r1, [r3, #44]	; 0x2c
  STM32_ST_TIM->CCMR1  = 0;
 8005d7a:	619e      	str	r6, [r3, #24]
  STM32_ST_TIM->CCR[0] = 0;
 8005d7c:	635e      	str	r6, [r3, #52]	; 0x34
  STM32_ST_TIM->DIER   = 0;
 8005d7e:	60de      	str	r6, [r3, #12]
  STM32_ST_TIM->CR2    = 0;
 8005d80:	605e      	str	r6, [r3, #4]
  STM32_ST_TIM->EGR    = TIM_EGR_UG;
 8005d82:	615f      	str	r7, [r3, #20]
  STM32_ST_TIM->CR1    = TIM_CR1_CEN;
 8005d84:	601f      	str	r7, [r3, #0]
 8005d86:	f885 b31c 	strb.w	fp, [r5, #796]	; 0x31c
#endif
  NVIC->ICPR[n >> 5U] = 1U << (n & 0x1FU);
 8005d8a:	f8c5 e180 	str.w	lr, [r5, #384]	; 0x180
  NVIC->ISER[n >> 5U] = 1U << (n & 0x1FU);
 8005d8e:	f8c5 e000 	str.w	lr, [r5]
 8005d92:	f8c2 c008 	str.w	ip, [r2, #8]
__STATIC_INLINE void NVIC_SetPriorityGrouping(uint32_t PriorityGroup)
{
  uint32_t reg_value;
  uint32_t PriorityGroupTmp = (PriorityGroup & (uint32_t)0x07UL);             /* only values 0..7 are used          */

  reg_value  =  SCB->AIRCR;                                                   /* read old register configuration    */
 8005d96:	68d5      	ldr	r5, [r2, #12]
  reg_value &= ~((uint32_t)(SCB_AIRCR_VECTKEY_Msk | SCB_AIRCR_PRIGROUP_Msk));             /* clear bits to change               */
  reg_value  =  (reg_value                                   |
 8005d98:	4b86      	ldr	r3, [pc, #536]	; (8005fb4 <main+0x324>)
{
  uint32_t reg_value;
  uint32_t PriorityGroupTmp = (PriorityGroup & (uint32_t)0x07UL);             /* only values 0..7 are used          */

  reg_value  =  SCB->AIRCR;                                                   /* read old register configuration    */
  reg_value &= ~((uint32_t)(SCB_AIRCR_VECTKEY_Msk | SCB_AIRCR_PRIGROUP_Msk));             /* clear bits to change               */
 8005d9a:	4028      	ands	r0, r5
  reg_value  =  (reg_value                                   |
 8005d9c:	4303      	orrs	r3, r0

  /* Initializing priority grouping.*/
  NVIC_SetPriorityGrouping(CORTEX_PRIGROUP_INIT);

  /* DWT cycle counter enable, note, the M7 requires DWT unlocking.*/
  CoreDebug->DEMCR |= CoreDebug_DEMCR_TRCENA_Msk;
 8005d9e:	4d86      	ldr	r5, [pc, #536]	; (8005fb8 <main+0x328>)
                ((uint32_t)0x5FAUL << SCB_AIRCR_VECTKEY_Pos) |
                (PriorityGroupTmp << 8)                       );              /* Insert write key and priorty group */
  SCB->AIRCR =  reg_value;
 8005da0:	60d3      	str	r3, [r2, #12]
 8005da2:	68eb      	ldr	r3, [r5, #12]
#if CORTEX_MODEL == 7
  DWT->LAR = 0xC5ACCE55;
#endif
  DWT->CTRL |= DWT_CTRL_CYCCNTENA_Msk;
 8005da4:	4885      	ldr	r0, [pc, #532]	; (8005fbc <main+0x32c>)

  /* Initializing priority grouping.*/
  NVIC_SetPriorityGrouping(CORTEX_PRIGROUP_INIT);

  /* DWT cycle counter enable, note, the M7 requires DWT unlocking.*/
  CoreDebug->DEMCR |= CoreDebug_DEMCR_TRCENA_Msk;
 8005da6:	f043 7380 	orr.w	r3, r3, #16777216	; 0x1000000
 8005daa:	60eb      	str	r3, [r5, #12]
#if CORTEX_MODEL == 7
  DWT->LAR = 0xC5ACCE55;
#endif
  DWT->CTRL |= DWT_CTRL_CYCCNTENA_Msk;
 8005dac:	6803      	ldr	r3, [r0, #0]
 *
 * @notapi
 */
static inline void queue_init(threads_queue_t *tqp) {

  tqp->p_next = (thread_t *)tqp;
 8005dae:	4d84      	ldr	r5, [pc, #528]	; (8005fc0 <main+0x330>)
    \param [in]  priority  Priority to set.
 */
__STATIC_INLINE void NVIC_SetPriority(IRQn_Type IRQn, uint32_t priority)
{
  if((int32_t)IRQn < 0) {
    SCB->SHP[(((uint32_t)(int32_t)IRQn) & 0xFUL)-4UL] = (uint8_t)((priority << (8 - __NVIC_PRIO_BITS)) & (uint32_t)0xFFUL);
 8005db0:	f04f 0c10 	mov.w	ip, #16
 8005db4:	433b      	orrs	r3, r7
 *
 * @notapi
 */
void _vt_init(void) {

  ch.vtlist.vt_next = (virtual_timer_t *)&ch.vtlist;
 8005db6:	f105 0e1c 	add.w	lr, r5, #28
    usbp->in_params[i]  = NULL;
    usbp->out_params[i] = NULL;
  }
  usbp->transmitting = 0;
 8005dba:	8126      	strh	r6, [r4, #8]
  usbp->receiving    = 0;
 8005dbc:	8166      	strh	r6, [r4, #10]

  tmp->best       = (rtcnt_t)-1;
  tmp->worst      = (rtcnt_t)0;
  tmp->last       = (rtcnt_t)0;
  tmp->n          = (ucnt_t)0;
  tmp->cumulative = (rttime_t)0;
 8005dbe:	f04f 0800 	mov.w	r8, #0
 8005dc2:	6003      	str	r3, [r0, #0]
 8005dc4:	f04f 0900 	mov.w	r9, #0
  /* Time Measurement subsystem calibration, it does a null measurement
     and calculates the call overhead which is subtracted to real
     measurements.*/
  ch.tm.offset = (rtcnt_t)0;
  chTMObjectInit(&tm);
  chTMStartMeasurementX(&tm);
 8005dc8:	eb0d 000c 	add.w	r0, sp, ip
 *
 * @init
 */
void chTMObjectInit(time_measurement_t *tmp) {

  tmp->best       = (rtcnt_t)-1;
 8005dcc:	f04f 33ff 	mov.w	r3, #4294967295
 8005dd0:	f04f 0a20 	mov.w	sl, #32
 8005dd4:	f882 c01f 	strb.w	ip, [r2, #31]
  tqp->p_prev = (thread_t *)tqp;
 8005dd8:	606d      	str	r5, [r5, #4]
 8005dda:	f882 a022 	strb.w	sl, [r2, #34]	; 0x22
 8005dde:	f8c5 e01c 	str.w	lr, [r5, #28]
  ch.vtlist.vt_prev = (virtual_timer_t *)&ch.vtlist;
 8005de2:	f8c5 e020 	str.w	lr, [r5, #32]
 * @notapi
 */
void _scheduler_init(void) {

  queue_init(&ch.rlist.r_queue);
  ch.rlist.r_prio = NOPRIO;
 8005de6:	60ae      	str	r6, [r5, #8]
 *
 * @notapi
 */
static inline void queue_init(threads_queue_t *tqp) {

  tqp->p_next = (thread_t *)tqp;
 8005de8:	602d      	str	r5, [r5, #0]
#if CH_CFG_USE_REGISTRY == TRUE
  ch.rlist.r_newer = (thread_t *)&ch.rlist;
 8005dea:	612d      	str	r5, [r5, #16]
  ch.rlist.r_older = (thread_t *)&ch.rlist;
 8005dec:	616d      	str	r5, [r5, #20]
  ch.vtlist.vt_delta = (systime_t)-1;
 8005dee:	84a9      	strh	r1, [r5, #36]	; 0x24
  tmp->worst      = (rtcnt_t)0;
  tmp->last       = (rtcnt_t)0;
  tmp->n          = (ucnt_t)0;
  tmp->cumulative = (rttime_t)0;
 8005df0:	e9cd 8908 	strd	r8, r9, [sp, #32]
 *
 * @init
 */
void chTMObjectInit(time_measurement_t *tmp) {

  tmp->best       = (rtcnt_t)-1;
 8005df4:	9304      	str	r3, [sp, #16]
#if CH_CFG_ST_TIMEDELTA == 0
  ch.vtlist.vt_systime = (systime_t)0;
#else /* CH_CFG_ST_TIMEDELTA > 0 */
  ch.vtlist.vt_lasttime = (systime_t)0;
 8005df6:	84ee      	strh	r6, [r5, #38]	; 0x26
  time_measurement_t tm;

  /* Time Measurement subsystem calibration, it does a null measurement
     and calculates the call overhead which is subtracted to real
     measurements.*/
  ch.tm.offset = (rtcnt_t)0;
 8005df8:	672e      	str	r6, [r5, #112]	; 0x70
 * @init
 */
void chTMObjectInit(time_measurement_t *tmp) {

  tmp->best       = (rtcnt_t)-1;
  tmp->worst      = (rtcnt_t)0;
 8005dfa:	9605      	str	r6, [sp, #20]
  tmp->last       = (rtcnt_t)0;
 8005dfc:	9606      	str	r6, [sp, #24]
  tmp->n          = (ucnt_t)0;
 8005dfe:	9607      	str	r6, [sp, #28]
  /* Time Measurement subsystem calibration, it does a null measurement
     and calculates the call overhead which is subtracted to real
     measurements.*/
  ch.tm.offset = (rtcnt_t)0;
  chTMObjectInit(&tm);
  chTMStartMeasurementX(&tm);
 8005e00:	f002 fb46 	bl	8008490 <chTMStartMeasurementX.constprop.27>
  chTMStopMeasurementX(&tm);
 8005e04:	a804      	add	r0, sp, #16
 8005e06:	f000 ffc3 	bl	8006d90 <chTMStopMeasurementX>
 *
 * @notapi
 */
void _heap_init(void) {

  default_heap.h_provider = chCoreAlloc;
 8005e0a:	4b6e      	ldr	r3, [pc, #440]	; (8005fc4 <main+0x334>)
  ch.tm.offset = tm.last;
 8005e0c:	9906      	ldr	r1, [sp, #24]
 8005e0e:	f103 0c10 	add.w	ip, r3, #16
#if CH_CFG_USE_DYNAMIC == TRUE
  tp->p_refs = (trefs_t)1;
#endif
#if CH_CFG_USE_REGISTRY == TRUE
  tp->p_name = NULL;
  REG_INSERT(tp);
 8005e12:	f8d5 e014 	ldr.w	lr, [r5, #20]
 8005e16:	f8c3 c010 	str.w	ip, [r3, #16]
  tqp->p_prev = (thread_t *)tqp;
 8005e1a:	f8c3 c014 	str.w	ip, [r3, #20]
#if CH_CFG_MEMCORE_SIZE == 0
  extern uint8_t __heap_base__[];
  extern uint8_t __heap_end__[];

  /*lint -save -e9033 [10.8] Required cast operations.*/
  nextmem = (uint8_t *)MEM_ALIGN_NEXT(__heap_base__);
 8005e1e:	486a      	ldr	r0, [pc, #424]	; (8005fc8 <main+0x338>)
 *
 * @notapi
 */
thread_t *_thread_init(thread_t *tp, tprio_t prio) {

  tp->p_prio = prio;
 8005e20:	f04f 0c40 	mov.w	ip, #64	; 0x40
  endmem = (uint8_t *)MEM_ALIGN_PREV(__heap_end__);
 8005e24:	4a69      	ldr	r2, [pc, #420]	; (8005fcc <main+0x33c>)
 8005e26:	6729      	str	r1, [r5, #112]	; 0x70
 8005e28:	f8c5 c034 	str.w	ip, [r5, #52]	; 0x34
#if CH_CFG_USE_DYNAMIC == TRUE
  tp->p_refs = (trefs_t)1;
#endif
#if CH_CFG_USE_REGISTRY == TRUE
  tp->p_name = NULL;
  REG_INSERT(tp);
 8005e2c:	f105 012c 	add.w	r1, r5, #44	; 0x2c
  tp->p_flags = CH_FLAG_MODE_STATIC;
#if CH_CFG_TIME_QUANTUM > 0
  tp->p_preempt = (tslices_t)CH_CFG_TIME_QUANTUM;
#endif
#if CH_CFG_USE_MUTEXES == TRUE
  tp->p_realprio = prio;
 8005e30:	f8c5 c068 	str.w	ip, [r5, #104]	; 0x68
 8005e34:	f8df 91c4 	ldr.w	r9, [pc, #452]	; 8005ffc <main+0x36c>
#if CH_CFG_MEMCORE_SIZE == 0
  extern uint8_t __heap_base__[];
  extern uint8_t __heap_end__[];

  /*lint -save -e9033 [10.8] Required cast operations.*/
  nextmem = (uint8_t *)MEM_ALIGN_NEXT(__heap_base__);
 8005e38:	f8df 81c4 	ldr.w	r8, [pc, #452]	; 8006000 <main+0x370>
  endmem = (uint8_t *)MEM_ALIGN_PREV(__heap_end__);
 8005e3c:	f8df c1c4 	ldr.w	ip, [pc, #452]	; 8006004 <main+0x374>
#if CH_CFG_USE_DYNAMIC == TRUE
  tp->p_refs = (trefs_t)1;
#endif
#if CH_CFG_USE_REGISTRY == TRUE
  tp->p_name = NULL;
  REG_INSERT(tp);
 8005e40:	f8c5 e040 	str.w	lr, [r5, #64]	; 0x40
#if CH_CFG_MEMCORE_SIZE == 0
  extern uint8_t __heap_base__[];
  extern uint8_t __heap_end__[];

  /*lint -save -e9033 [10.8] Required cast operations.*/
  nextmem = (uint8_t *)MEM_ALIGN_NEXT(__heap_base__);
 8005e44:	f020 0007 	bic.w	r0, r0, #7
  endmem = (uint8_t *)MEM_ALIGN_PREV(__heap_end__);
 8005e48:	f022 0207 	bic.w	r2, r2, #7
 */
thread_t *_thread_init(thread_t *tp, tprio_t prio) {

  tp->p_prio = prio;
  tp->p_state = CH_STATE_WTSTART;
  tp->p_flags = CH_FLAG_MODE_STATIC;
 8005e4c:	f885 6049 	strb.w	r6, [r5, #73]	; 0x49
#if CH_CFG_TIME_QUANTUM > 0
  tp->p_preempt = (tslices_t)CH_CFG_TIME_QUANTUM;
#endif
#if CH_CFG_USE_MUTEXES == TRUE
  tp->p_realprio = prio;
  tp->p_mtxlist = NULL;
 8005e50:	666e      	str	r6, [r5, #100]	; 0x64
#endif
#if CH_CFG_USE_EVENTS == TRUE
  tp->p_epending = (eventmask_t)0;
 8005e52:	662e      	str	r6, [r5, #96]	; 0x60
#endif
#if CH_DBG_THREADS_PROFILING == TRUE
  tp->p_time = (systime_t)0;
#endif
#if CH_CFG_USE_DYNAMIC == TRUE
  tp->p_refs = (trefs_t)1;
 8005e54:	f885 704a 	strb.w	r7, [r5, #74]	; 0x4a
#endif
#if CH_CFG_USE_REGISTRY == TRUE
  tp->p_name = NULL;
 8005e58:	646e      	str	r6, [r5, #68]	; 0x44
  REG_INSERT(tp);
 8005e5a:	63ed      	str	r5, [r5, #60]	; 0x3c
void chMtxObjectInit(mutex_t *mp) {

  chDbgCheck(mp != NULL);

  queue_init(&mp->m_queue);
  mp->m_owner = NULL;
 8005e5c:	619e      	str	r6, [r3, #24]
 8005e5e:	f8ce 1010 	str.w	r1, [lr, #16]
 *
 * @notapi
 */
static inline void list_init(threads_list_t *tlp) {

  tlp->p_next = (thread_t *)tlp;
 8005e62:	f105 0e50 	add.w	lr, r5, #80	; 0x50
 8005e66:	6169      	str	r1, [r5, #20]
  _dbg_trace_init();
#endif

#if CH_CFG_NO_IDLE_THREAD == FALSE
  /* Now this instructions flow becomes the main thread.*/
  setcurrp(_thread_init(&ch.mainthread, NORMALPRIO));
 8005e68:	61a9      	str	r1, [r5, #24]
 *
 * @notapi
 */
static inline void queue_init(threads_queue_t *tqp) {

  tqp->p_next = (thread_t *)tqp;
 8005e6a:	f105 0154 	add.w	r1, r5, #84	; 0x54
 8005e6e:	f8c3 9000 	str.w	r9, [r3]
  default_heap.h_free.h.u.next = NULL;
 8005e72:	609e      	str	r6, [r3, #8]
  default_heap.h_free.h.size = 0;
 8005e74:	60de      	str	r6, [r3, #12]
#else
  /* Now this instructions flow becomes the idle thread.*/
  setcurrp(_thread_init(&ch.mainthread, IDLEPRIO));
#endif

  currp->p_state = CH_STATE_CURRENT;
 8005e76:	f885 7048 	strb.w	r7, [r5, #72]	; 0x48
 *
 * @notapi
 */
static inline void list_init(threads_list_t *tlp) {

  tlp->p_next = (thread_t *)tlp;
 8005e7a:	f8c5 e050 	str.w	lr, [r5, #80]	; 0x50
 *
 * @notapi
 */
static inline void queue_init(threads_queue_t *tqp) {

  tqp->p_next = (thread_t *)tqp;
 8005e7e:	6569      	str	r1, [r5, #84]	; 0x54
  tqp->p_prev = (thread_t *)tqp;
 8005e80:	65a9      	str	r1, [r5, #88]	; 0x58
#if CH_CFG_MEMCORE_SIZE == 0
  extern uint8_t __heap_base__[];
  extern uint8_t __heap_end__[];

  /*lint -save -e9033 [10.8] Required cast operations.*/
  nextmem = (uint8_t *)MEM_ALIGN_NEXT(__heap_base__);
 8005e82:	f8c8 0000 	str.w	r0, [r8]
  endmem = (uint8_t *)MEM_ALIGN_PREV(__heap_end__);
 8005e86:	f8cc 2000 	str.w	r2, [ip]
 * @notapi
 */
thread_t *_thread_init(thread_t *tp, tprio_t prio) {

  tp->p_prio = prio;
  tp->p_state = CH_STATE_WTSTART;
 8005e8a:	f04f 0902 	mov.w	r9, #2
 8005e8e:	f386 8811 	msr	BASEPRI, r6
  This function enables IRQ interrupts by clearing the I-bit in the CPSR.
  Can only be executed in Privileged modes.
 */
__attribute__( ( always_inline ) ) __STATIC_INLINE void __enable_irq(void)
{
  __ASM volatile ("cpsie i" : : : "memory");
 8005e92:	b662      	cpsie	i
 * @api
 */
static inline void chRegSetThreadName(const char *name) {

#if CH_CFG_USE_REGISTRY == TRUE
  ch.rlist.r_current->p_name = name;
 8005e94:	4a4e      	ldr	r2, [pc, #312]	; (8005fd0 <main+0x340>)
 8005e96:	69ab      	ldr	r3, [r5, #24]
 8005e98:	619a      	str	r2, [r3, #24]

    \param [in]    basePri  Base Priority value to set
 */
__attribute__( ( always_inline ) ) __STATIC_INLINE void __set_BASEPRI(uint32_t value)
{
  __ASM volatile ("MSR basepri, %0" : : "r" (value) : "memory");
 8005e9a:	f38a 8811 	msr	BASEPRI, sl

  /* If the waken thread has a not-greater priority than the current
     one then it is just inserted in the ready list else it made
     running immediately and the invoking thread goes in the ready
     list instead.*/
  if (ntp->p_prio <= currp->p_prio) {
 8005e9e:	69ab      	ldr	r3, [r5, #24]
 *
 * @notapi
 */
thread_t *_thread_init(thread_t *tp, tprio_t prio) {

  tp->p_prio = prio;
 8005ea0:	f8c5 7080 	str.w	r7, [r5, #128]	; 0x80
 8005ea4:	6899      	ldr	r1, [r3, #8]
#if CH_CFG_USE_DYNAMIC == TRUE
  tp->p_refs = (trefs_t)1;
#endif
#if CH_CFG_USE_REGISTRY == TRUE
  tp->p_name = NULL;
  REG_INSERT(tp);
 8005ea6:	6968      	ldr	r0, [r5, #20]

  chDbgCheckClassI();
  chDbgCheck((wsp != NULL) && (size >= THD_WORKING_AREA_SIZE(0)) &&
             (prio <= HIGHPRIO) && (pf != NULL));

  PORT_SETUP_CONTEXT(tp, wsp, size, pf, arg);
 8005ea8:	f8df 815c 	ldr.w	r8, [pc, #348]	; 8006008 <main+0x378>
 8005eac:	f8df c15c 	ldr.w	ip, [pc, #348]	; 800600c <main+0x37c>
#if CH_CFG_USE_DYNAMIC == TRUE
  tp->p_refs = (trefs_t)1;
#endif
#if CH_CFG_USE_REGISTRY == TRUE
  tp->p_name = NULL;
  REG_INSERT(tp);
 8005eb0:	f105 0278 	add.w	r2, r5, #120	; 0x78
 * @notapi
 */
thread_t *_thread_init(thread_t *tp, tprio_t prio) {

  tp->p_prio = prio;
  tp->p_state = CH_STATE_WTSTART;
 8005eb4:	f885 9094 	strb.w	r9, [r5, #148]	; 0x94

  chDbgCheckClassI();
  chDbgCheck((wsp != NULL) && (size >= THD_WORKING_AREA_SIZE(0)) &&
             (prio <= HIGHPRIO) && (pf != NULL));

  PORT_SETUP_CONTEXT(tp, wsp, size, pf, arg);
 8005eb8:	f505 7a96 	add.w	sl, r5, #300	; 0x12c
 *
 * @notapi
 */
static inline void queue_init(threads_queue_t *tqp) {

  tqp->p_next = (thread_t *)tqp;
 8005ebc:	f105 09a0 	add.w	r9, r5, #160	; 0xa0
 *
 * @notapi
 */
static inline void list_init(threads_list_t *tlp) {

  tlp->p_next = (thread_t *)tlp;
 8005ec0:	f105 0e9c 	add.w	lr, r5, #156	; 0x9c
 8005ec4:	f8c5 6130 	str.w	r6, [r5, #304]	; 0x130
 */
thread_t *_thread_init(thread_t *tp, tprio_t prio) {

  tp->p_prio = prio;
  tp->p_state = CH_STATE_WTSTART;
  tp->p_flags = CH_FLAG_MODE_STATIC;
 8005ec8:	f885 6095 	strb.w	r6, [r5, #149]	; 0x95
#if CH_CFG_TIME_QUANTUM > 0
  tp->p_preempt = (tslices_t)CH_CFG_TIME_QUANTUM;
#endif
#if CH_CFG_USE_MUTEXES == TRUE
  tp->p_realprio = prio;
 8005ecc:	f8c5 70b4 	str.w	r7, [r5, #180]	; 0xb4
  tp->p_mtxlist = NULL;
 8005ed0:	f8c5 60b0 	str.w	r6, [r5, #176]	; 0xb0
#endif
#if CH_CFG_USE_EVENTS == TRUE
  tp->p_epending = (eventmask_t)0;
 8005ed4:	f8c5 60ac 	str.w	r6, [r5, #172]	; 0xac
#endif
#if CH_DBG_THREADS_PROFILING == TRUE
  tp->p_time = (systime_t)0;
#endif
#if CH_CFG_USE_DYNAMIC == TRUE
  tp->p_refs = (trefs_t)1;
 8005ed8:	f885 7096 	strb.w	r7, [r5, #150]	; 0x96
#endif
#if CH_CFG_USE_REGISTRY == TRUE
  tp->p_name = NULL;
 8005edc:	f8c5 6090 	str.w	r6, [r5, #144]	; 0x90
  REG_INSERT(tp);
 8005ee0:	f8c5 5088 	str.w	r5, [r5, #136]	; 0x88

  chDbgCheckClassI();
  chDbgCheck((wsp != NULL) && (size >= THD_WORKING_AREA_SIZE(0)) &&
             (prio <= HIGHPRIO) && (pf != NULL));

  PORT_SETUP_CONTEXT(tp, wsp, size, pf, arg);
 8005ee4:	f8c5 a084 	str.w	sl, [r5, #132]	; 0x84
 8005ee8:	f8c5 812c 	str.w	r8, [r5, #300]	; 0x12c
 8005eec:	f8c5 c14c 	str.w	ip, [r5, #332]	; 0x14c
#if CH_CFG_USE_DYNAMIC == TRUE
  tp->p_refs = (trefs_t)1;
#endif
#if CH_CFG_USE_REGISTRY == TRUE
  tp->p_name = NULL;
  REG_INSERT(tp);
 8005ef0:	f8c5 008c 	str.w	r0, [r5, #140]	; 0x8c
 8005ef4:	6102      	str	r2, [r0, #16]
 8005ef6:	616a      	str	r2, [r5, #20]
              (ch.rlist.r_current->p_prio >= ch.rlist.r_queue.p_next->p_prio),
              "priority order violation");

  /* Storing the message to be retrieved by the target thread when it will
     restart execution.*/
  ntp->p_u.rdymsg = msg;
 8005ef8:	f8c5 6098 	str.w	r6, [r5, #152]	; 0x98
 8005efc:	f8c5 e09c 	str.w	lr, [r5, #156]	; 0x9c
 *
 * @notapi
 */
static inline void queue_init(threads_queue_t *tqp) {

  tqp->p_next = (thread_t *)tqp;
 8005f00:	f8c5 90a0 	str.w	r9, [r5, #160]	; 0xa0
  tqp->p_prev = (thread_t *)tqp;
 8005f04:	f8c5 90a4 	str.w	r9, [r5, #164]	; 0xa4

  /* If the waken thread has a not-greater priority than the current
     one then it is just inserted in the ready list else it made
     running immediately and the invoking thread goes in the ready
     list instead.*/
  if (ntp->p_prio <= currp->p_prio) {
 8005f08:	2900      	cmp	r1, #0
 8005f0a:	f000 81f0 	beq.w	80062ee <main+0x65e>
  chDbgAssert((tp->p_state != CH_STATE_READY) &&
              (tp->p_state != CH_STATE_FINAL),
              "invalid state");

  tp->p_state = CH_STATE_READY;
  cp = (thread_t *)&ch.rlist.r_queue;
 8005f0e:	462b      	mov	r3, r5
  chDbgCheck(tp != NULL);
  chDbgAssert((tp->p_state != CH_STATE_READY) &&
              (tp->p_state != CH_STATE_FINAL),
              "invalid state");

  tp->p_state = CH_STATE_READY;
 8005f10:	f885 6094 	strb.w	r6, [r5, #148]	; 0x94
  cp = (thread_t *)&ch.rlist.r_queue;
  do {
    cp = cp->p_next;
 8005f14:	681b      	ldr	r3, [r3, #0]
  } while (cp->p_prio >= tp->p_prio);
 8005f16:	689e      	ldr	r6, [r3, #8]
 8005f18:	2e00      	cmp	r6, #0
 8005f1a:	d1fb      	bne.n	8005f14 <main+0x284>
  /* Insertion on p_prev.*/
  tp->p_next = cp;
  tp->p_prev = cp->p_prev;
 8005f1c:	6859      	ldr	r1, [r3, #4]
  cp = (thread_t *)&ch.rlist.r_queue;
  do {
    cp = cp->p_next;
  } while (cp->p_prio >= tp->p_prio);
  /* Insertion on p_prev.*/
  tp->p_next = cp;
 8005f1e:	67ab      	str	r3, [r5, #120]	; 0x78
  tp->p_prev = cp->p_prev;
 8005f20:	67e9      	str	r1, [r5, #124]	; 0x7c
  tp->p_prev->p_next = tp;
 8005f22:	600a      	str	r2, [r1, #0]
  cp->p_prev = tp;
 8005f24:	605a      	str	r2, [r3, #4]
 8005f26:	f386 8811 	msr	BASEPRI, r6
  /*
   * Activates the USB driver and then the USB bus pull-up on D+.
   * Note, a delay is inserted in order to not have to disconnect the cable
   * after a reset.
   */
  usbDisconnectBus(usbp);
 8005f2a:	4a1b      	ldr	r2, [pc, #108]	; (8005f98 <main+0x308>)
 * @xclass
 */
static inline void chRegSetThreadNameX(thread_t *tp, const char *name) {

#if CH_CFG_USE_REGISTRY == TRUE
  tp->p_name = name;
 8005f2c:	4b29      	ldr	r3, [pc, #164]	; (8005fd4 <main+0x344>)
 8005f2e:	f44f 7100 	mov.w	r1, #512	; 0x200
 8005f32:	6111      	str	r1, [r2, #16]
  chThdSleepMilliseconds(1500);
 8005f34:	f640 30b8 	movw	r0, #3000	; 0xbb8
 8005f38:	f8c5 3090 	str.w	r3, [r5, #144]	; 0x90
 8005f3c:	f001 f850 	bl	8006fe0 <chThdSleep>
 8005f40:	2320      	movs	r3, #32
 8005f42:	f383 8811 	msr	BASEPRI, r3
  osalDbgCheck((usbp != NULL) && (config != NULL));

  osalSysLock();
  osalDbgAssert((usbp->state == USB_STOP) || (usbp->state == USB_READY),
                "invalid state");
  usbp->config = config;
 8005f46:	4a24      	ldr	r2, [pc, #144]	; (8005fd8 <main+0x348>)
 8005f48:	4b24      	ldr	r3, [pc, #144]	; (8005fdc <main+0x34c>)
 8005f4a:	6062      	str	r2, [r4, #4]
 8005f4c:	f103 0220 	add.w	r2, r3, #32
  for (i = 0; i <= (unsigned)USB_MAX_ENDPOINTS; i++) {
    usbp->epc[i] = NULL;
 8005f50:	f843 6f04 	str.w	r6, [r3, #4]!

  osalSysLock();
  osalDbgAssert((usbp->state == USB_STOP) || (usbp->state == USB_READY),
                "invalid state");
  usbp->config = config;
  for (i = 0; i <= (unsigned)USB_MAX_ENDPOINTS; i++) {
 8005f54:	4293      	cmp	r3, r2
    usbp->epc[i] = NULL;
 8005f56:	f04f 0e00 	mov.w	lr, #0

  osalSysLock();
  osalDbgAssert((usbp->state == USB_STOP) || (usbp->state == USB_READY),
                "invalid state");
  usbp->config = config;
  for (i = 0; i <= (unsigned)USB_MAX_ENDPOINTS; i++) {
 8005f5a:	d1f9      	bne.n	8005f50 <main+0x2c0>
 *
 * @notapi
 */
void usb_lld_start(USBDriver *usbp) {

  if (usbp->state == USB_STOP) {
 8005f5c:	7826      	ldrb	r6, [r4, #0]
 8005f5e:	2e01      	cmp	r6, #1
 8005f60:	d15f      	bne.n	8006022 <main+0x392>
    /* Clock activation.*/
#if STM32_USB_USE_USB1
    if (&USBD1 == usbp) {
      /* USB clock enabled.*/
      rccEnableUSB(FALSE);
 8005f62:	4f0b      	ldr	r7, [pc, #44]	; (8005f90 <main+0x300>)

#if defined(__CORE_CM0_H_GENERIC)
  NVIC->IP[_IP_IDX(n)] = (NVIC->IP[_IP_IDX(n)] & ~(0xFFU << _BIT_SHIFT(n))) |
                         (NVIC_PRIORITY_MASK(prio) << _BIT_SHIFT(n));
#else
  NVIC->IP[n] = NVIC_PRIORITY_MASK(prio);
 8005f64:	4b11      	ldr	r3, [pc, #68]	; (8005fac <main+0x31c>)
 8005f66:	69fa      	ldr	r2, [r7, #28]
      /* Powers up the transceiver while holding the USB in reset state.*/
      STM32_USB->CNTR = CNTR_FRES;
 8005f68:	491d      	ldr	r1, [pc, #116]	; (8005fe0 <main+0x350>)
#endif
  NVIC->ICPR[n >> 5U] = 1U << (n & 0x1FU);
 8005f6a:	f44f 2500 	mov.w	r5, #524288	; 0x80000
 8005f6e:	f44f 1080 	mov.w	r0, #1048576	; 0x100000
  if (usbp->state == USB_STOP) {
    /* Clock activation.*/
#if STM32_USB_USE_USB1
    if (&USBD1 == usbp) {
      /* USB clock enabled.*/
      rccEnableUSB(FALSE);
 8005f72:	f442 0200 	orr.w	r2, r2, #8388608	; 0x800000

#if defined(__CORE_CM0_H_GENERIC)
  NVIC->IP[_IP_IDX(n)] = (NVIC->IP[_IP_IDX(n)] & ~(0xFFU << _BIT_SHIFT(n))) |
                         (NVIC_PRIORITY_MASK(prio) << _BIT_SHIFT(n));
#else
  NVIC->IP[n] = NVIC_PRIORITY_MASK(prio);
 8005f76:	f04f 08d0 	mov.w	r8, #208	; 0xd0
 8005f7a:	f04f 0ce0 	mov.w	ip, #224	; 0xe0
 8005f7e:	61fa      	str	r2, [r7, #28]
      /* Powers up the transceiver while holding the USB in reset state.*/
      STM32_USB->CNTR = CNTR_FRES;
 8005f80:	640e      	str	r6, [r1, #64]	; 0x40
 8005f82:	f883 8313 	strb.w	r8, [r3, #787]	; 0x313
#endif
  NVIC->ICPR[n >> 5U] = 1U << (n & 0x1FU);
 8005f86:	f8c3 5180 	str.w	r5, [r3, #384]	; 0x180
  NVIC->ISER[n >> 5U] = 1U << (n & 0x1FU);
 8005f8a:	601d      	str	r5, [r3, #0]
 8005f8c:	e040      	b.n	8006010 <main+0x380>
 8005f8e:	bf00      	nop
 8005f90:	40021000 	.word	0x40021000
 8005f94:	40007000 	.word	0x40007000
 8005f98:	40010c00 	.word	0x40010c00
 8005f9c:	40011000 	.word	0x40011000
 8005fa0:	200014b4 	.word	0x200014b4
 8005fa4:	40011400 	.word	0x40011400
 8005fa8:	40011800 	.word	0x40011800
 8005fac:	e000e100 	.word	0xe000e100
 8005fb0:	e000ed00 	.word	0xe000ed00
 8005fb4:	05fa0300 	.word	0x05fa0300
 8005fb8:	e000edf0 	.word	0xe000edf0
 8005fbc:	e0001000 	.word	0xe0001000
 8005fc0:	20001260 	.word	0x20001260
 8005fc4:	200013f8 	.word	0x200013f8
 8005fc8:	200015e7 	.word	0x200015e7
 8005fcc:	20005000 	.word	0x20005000
 8005fd0:	08009e30 	.word	0x08009e30
 8005fd4:	08009e60 	.word	0x08009e60
 8005fd8:	08009e50 	.word	0x08009e50
 8005fdc:	200014bc 	.word	0x200014bc
 8005fe0:	40005c00 	.word	0x40005c00
 8005fe4:	40010800 	.word	0x40010800
 8005fe8:	88884b88 	.word	0x88884b88
 8005fec:	88888838 	.word	0x88888838
 8005ff0:	888884b8 	.word	0x888884b8
 8005ff4:	88888844 	.word	0x88888844
 8005ff8:	e0042000 	.word	0xe0042000
 8005ffc:	08006551 	.word	0x08006551
 8006000:	200013dc 	.word	0x200013dc
 8006004:	20001418 	.word	0x20001418
 8006008:	08006601 	.word	0x08006601
 800600c:	08005231 	.word	0x08005231

#if defined(__CORE_CM0_H_GENERIC)
  NVIC->IP[_IP_IDX(n)] = (NVIC->IP[_IP_IDX(n)] & ~(0xFFU << _BIT_SHIFT(n))) |
                         (NVIC_PRIORITY_MASK(prio) << _BIT_SHIFT(n));
#else
  NVIC->IP[n] = NVIC_PRIORITY_MASK(prio);
 8006010:	f883 c314 	strb.w	ip, [r3, #788]	; 0x314
#endif
  NVIC->ICPR[n >> 5U] = 1U << (n & 0x1FU);
 8006014:	f8c3 0180 	str.w	r0, [r3, #384]	; 0x180
  NVIC->ISER[n >> 5U] = 1U << (n & 0x1FU);
 8006018:	6018      	str	r0, [r3, #0]
#if STM32_USB1_HP_NUMBER != STM32_USB1_LP_NUMBER
      nvicEnableVector(STM32_USB1_HP_NUMBER, STM32_USB_USB1_HP_IRQ_PRIORITY);
#endif
      nvicEnableVector(STM32_USB1_LP_NUMBER, STM32_USB_USB1_LP_IRQ_PRIORITY);
      /* Releases the USB reset.*/
      STM32_USB->CNTR = 0;
 800601a:	f8c1 e040 	str.w	lr, [r1, #64]	; 0x40
    }
#endif
    /* Reset procedure enforced on driver start.*/
    _usb_reset(usbp);
 800601e:	f002 fa3f 	bl	80084a0 <_usb_reset.constprop.16>
    usbp->epc[i] = NULL;
  }
  usb_lld_start(usbp);
  usbp->state = USB_READY;
 8006022:	2302      	movs	r3, #2
 8006024:	7023      	strb	r3, [r4, #0]
 8006026:	2100      	movs	r1, #0
 8006028:	f381 8811 	msr	BASEPRI, r1
  usbStart(usbp, &usbcfg);
  usbConnectBus(usbp);
 800602c:	4bbe      	ldr	r3, [pc, #760]	; (8006328 <main+0x698>)
 800602e:	f44f 7200 	mov.w	r2, #512	; 0x200
 8006032:	615a      	str	r2, [r3, #20]

  /* init printf */
  init_printf(NULL,sendchar_pf);

  /* Wait until the USB is active */
  while(USB_DRIVER.state != USB_ACTIVE)
 8006034:	7820      	ldrb	r0, [r4, #0]
void chOQObjectInit(output_queue_t *oqp, uint8_t *bp, size_t size,
                    qnotify_t onfy, void *link) {

  chThdQueueObjectInit(&oqp->q_waiting);
  oqp->q_counter = size;
  oqp->q_buffer  = bp;
 8006036:	4abd      	ldr	r2, [pc, #756]	; (800632c <main+0x69c>)
 *
 * @notapi
 */
static inline void queue_init(threads_queue_t *tqp) {

  tqp->p_next = (thread_t *)tqp;
 8006038:	4bbd      	ldr	r3, [pc, #756]	; (8006330 <main+0x6a0>)
 */
void chOQObjectInit(output_queue_t *oqp, uint8_t *bp, size_t size,
                    qnotify_t onfy, void *link) {

  chThdQueueObjectInit(&oqp->q_waiting);
  oqp->q_counter = size;
 800603a:	f04f 0c20 	mov.w	ip, #32
 *
 * @init
 */
static inline void chVTObjectInit(virtual_timer_t *vtp) {

  vtp->vt_func = NULL;
 800603e:	f8df a340 	ldr.w	sl, [pc, #832]	; 8006380 <main+0x6f0>
 8006042:	f8df 9340 	ldr.w	r9, [pc, #832]	; 8006384 <main+0x6f4>


void init_printf(void* putp,void (*putf) (void*,char))
    {
    stdout_putf=putf;
    stdout_putp=putp;
 8006046:	f8df 8340 	ldr.w	r8, [pc, #832]	; 8006388 <main+0x6f8>
  oqp->q_buffer  = bp;
  oqp->q_rdptr   = bp;
  oqp->q_wrptr   = bp;
  oqp->q_top     = bp + size;
  oqp->q_notify  = onfy;
 800604a:	4fba      	ldr	r7, [pc, #744]	; (8006334 <main+0x6a4>)
    }


void init_printf(void* putp,void (*putf) (void*,char))
    {
    stdout_putf=putf;
 800604c:	4dba      	ldr	r5, [pc, #744]	; (8006338 <main+0x6a8>)
 800604e:	4ebb      	ldr	r6, [pc, #748]	; (800633c <main+0x6ac>)
  chThdQueueObjectInit(&oqp->q_waiting);
  oqp->q_counter = size;
  oqp->q_buffer  = bp;
  oqp->q_rdptr   = bp;
  oqp->q_wrptr   = bp;
  oqp->q_top     = bp + size;
 8006050:	eb02 0e0c 	add.w	lr, r2, ip
 8006054:	2804      	cmp	r0, #4
 8006056:	f8ca 100c 	str.w	r1, [sl, #12]
 800605a:	f8c9 100c 	str.w	r1, [r9, #12]
    stdout_putp=putp;
 800605e:	f8c8 1000 	str.w	r1, [r8]
  oqp->q_notify  = onfy;
  oqp->q_link    = link;
 8006062:	621c      	str	r4, [r3, #32]
 8006064:	601b      	str	r3, [r3, #0]
  tqp->p_prev = (thread_t *)tqp;
 8006066:	605b      	str	r3, [r3, #4]
 */
void chOQObjectInit(output_queue_t *oqp, uint8_t *bp, size_t size,
                    qnotify_t onfy, void *link) {

  chThdQueueObjectInit(&oqp->q_waiting);
  oqp->q_counter = size;
 8006068:	f8c3 c008 	str.w	ip, [r3, #8]
  oqp->q_buffer  = bp;
 800606c:	60da      	str	r2, [r3, #12]
  oqp->q_rdptr   = bp;
 800606e:	619a      	str	r2, [r3, #24]
  oqp->q_wrptr   = bp;
 8006070:	615a      	str	r2, [r3, #20]
  oqp->q_top     = bp + size;
 8006072:	f8c3 e010 	str.w	lr, [r3, #16]
  oqp->q_notify  = onfy;
 8006076:	61df      	str	r7, [r3, #28]
    }


void init_printf(void* putp,void (*putf) (void*,char))
    {
    stdout_putf=putf;
 8006078:	602e      	str	r6, [r5, #0]
 800607a:	d005      	beq.n	8006088 <main+0x3f8>
    chThdSleepMilliseconds(50);
 800607c:	2064      	movs	r0, #100	; 0x64
 800607e:	f000 ffaf 	bl	8006fe0 <chThdSleep>

  /* init printf */
  init_printf(NULL,sendchar_pf);

  /* Wait until the USB is active */
  while(USB_DRIVER.state != USB_ACTIVE)
 8006082:	7823      	ldrb	r3, [r4, #0]
 8006084:	2b04      	cmp	r3, #4
 8006086:	d1f9      	bne.n	800607c <main+0x3ec>
    chThdSleepMilliseconds(50);

  print("USB configured.\n");
 8006088:	48ad      	ldr	r0, [pc, #692]	; (8006340 <main+0x6b0>)
 800608a:	f002 fb29 	bl	80086e0 <tfp_printf>
#define LED_TGL()   do { palTogglePad(MAPLE_LED_PORT, MAPLE_LED_PIN); } while (0)

void matrix_init(void)
{
    // debug on
    debug_config.enable = true;
 800608e:	4bad      	ldr	r3, [pc, #692]	; (8006344 <main+0x6b4>)
    debug_config.keyboard = true;
    debug_config.matrix = true;
    debug_config.mouse = true;
 8006090:	49ac      	ldr	r1, [pc, #688]	; (8006344 <main+0x6b4>)
#define LED_TGL()   do { palTogglePad(MAPLE_LED_PORT, MAPLE_LED_PIN); } while (0)

void matrix_init(void)
{
    // debug on
    debug_config.enable = true;
 8006092:	781a      	ldrb	r2, [r3, #0]
  if (mode == PAL_MODE_INPUT_PULLUP)
    port->BSRR = mask;
  else if (mode == PAL_MODE_INPUT_PULLDOWN)
    port->BRR = mask;
  cfg = cfgtab[mode];
  mh = ml = crh = crl = 0;
 8006094:	2300      	movs	r3, #0
    debug_config.keyboard = true;
    debug_config.matrix = true;
    debug_config.mouse = true;
 8006096:	f042 020f 	orr.w	r2, r2, #15
 800609a:	700a      	strb	r2, [r1, #0]
 800609c:	4618      	mov	r0, r3
 800609e:	4619      	mov	r1, r3
 80060a0:	2208      	movs	r2, #8
 80060a2:	f44f 7580 	mov.w	r5, #256	; 0x100
    crh <<= 4;
    if ((mask & 0x0080) == 0)
      ml |= 0xf;
    else
      crl |= cfg;
    if ((mask & 0x8000) == 0)
 80060a6:	042e      	lsls	r6, r5, #16
    port->BRR = mask;
  cfg = cfgtab[mode];
  mh = ml = crh = crl = 0;
  for (i = 0; i < 8; i++) {
    ml <<= 4;
    mh <<= 4;
 80060a8:	ea4f 1000 	mov.w	r0, r0, lsl #4
    crl <<= 4;
    crh <<= 4;
 80060ac:	ea4f 1303 	mov.w	r3, r3, lsl #4
  else if (mode == PAL_MODE_INPUT_PULLDOWN)
    port->BRR = mask;
  cfg = cfgtab[mode];
  mh = ml = crh = crl = 0;
  for (i = 0; i < 8; i++) {
    ml <<= 4;
 80060b0:	ea4f 1101 	mov.w	r1, r1, lsl #4
    if ((mask & 0x0080) == 0)
      ml |= 0xf;
    else
      crl |= cfg;
    if ((mask & 0x8000) == 0)
      mh |= 0xf;
 80060b4:	bf54      	ite	pl
 80060b6:	f040 000f 	orrpl.w	r0, r0, #15
    else
      crh |= cfg;
 80060ba:	f043 0304 	orrmi.w	r3, r3, #4
    port->BSRR = mask;
  else if (mode == PAL_MODE_INPUT_PULLDOWN)
    port->BRR = mask;
  cfg = cfgtab[mode];
  mh = ml = crh = crl = 0;
  for (i = 0; i < 8; i++) {
 80060be:	3a01      	subs	r2, #1
    ml <<= 4;
    mh <<= 4;
    crl <<= 4;
    crh <<= 4;
    if ((mask & 0x0080) == 0)
      ml |= 0xf;
 80060c0:	f041 010f 	orr.w	r1, r1, #15
      crl |= cfg;
    if ((mask & 0x8000) == 0)
      mh |= 0xf;
    else
      crh |= cfg;
    mask <<= 1;
 80060c4:	ea4f 0545 	mov.w	r5, r5, lsl #1
    port->BSRR = mask;
  else if (mode == PAL_MODE_INPUT_PULLDOWN)
    port->BRR = mask;
  cfg = cfgtab[mode];
  mh = ml = crh = crl = 0;
  for (i = 0; i < 8; i++) {
 80060c8:	d1ed      	bne.n	80060a6 <main+0x416>
      mh |= 0xf;
    else
      crh |= cfg;
    mask <<= 1;
  }
  port->CRH = (port->CRH & mh) | crh;
 80060ca:	4d97      	ldr	r5, [pc, #604]	; (8006328 <main+0x698>)
    unselect_rows();
    init_cols();

    // initialize matrix state: all keys off
    for (uint8_t i=0; i < MATRIX_ROWS; i++) {
        matrix[i] = 0;
 80060cc:	f8df a2bc 	ldr.w	sl, [pc, #700]	; 800638c <main+0x6fc>
 80060d0:	686e      	ldr	r6, [r5, #4]
        matrix_debouncing[i] = 0;
 80060d2:	4f9d      	ldr	r7, [pc, #628]	; (8006348 <main+0x6b8>)
 80060d4:	4030      	ands	r0, r6
 80060d6:	4303      	orrs	r3, r0
 80060d8:	606b      	str	r3, [r5, #4]
  port->CRL = (port->CRL & ml) | crl;
 80060da:	682b      	ldr	r3, [r5, #0]
    }

    LED_ON();
 80060dc:	2602      	movs	r6, #2
 80060de:	4019      	ands	r1, r3
 80060e0:	6029      	str	r1, [r5, #0]
    wait_ms(500);
 80060e2:	f44f 707a 	mov.w	r0, #1000	; 0x3e8
    unselect_rows();
    init_cols();

    // initialize matrix state: all keys off
    for (uint8_t i=0; i < MATRIX_ROWS; i++) {
        matrix[i] = 0;
 80060e6:	f88a 2000 	strb.w	r2, [sl]
        matrix_debouncing[i] = 0;
 80060ea:	703a      	strb	r2, [r7, #0]
    }

    LED_ON();
 80060ec:	612e      	str	r6, [r5, #16]
    wait_ms(500);
 80060ee:	f000 ff77 	bl	8006fe0 <chThdSleep>
    LED_OFF();
 80060f2:	616e      	str	r6, [r5, #20]
    wait_ms(500);
 80060f4:	f44f 707a 	mov.w	r0, #1000	; 0x3e8
 80060f8:	f000 ff72 	bl	8006fe0 <chThdSleep>
    LED_ON();
 80060fc:	612e      	str	r6, [r5, #16]
    wait_ms(500);
 80060fe:	f44f 707a 	mov.w	r0, #1000	; 0x3e8
 8006102:	f000 ff6d 	bl	8006fe0 <chThdSleep>
static uint16_t last_consumer_report = 0;


void host_set_driver(host_driver_t *d)
{
    driver = d;
 8006106:	4b91      	ldr	r3, [pc, #580]	; (800634c <main+0x6bc>)
 8006108:	4a91      	ldr	r2, [pc, #580]	; (8006350 <main+0x6c0>)
    LED_OFF();
 800610a:	616e      	str	r6, [r5, #20]

#ifdef SLEEP_LED_ENABLE
  sleep_led_init();
#endif

  print("Keyboard start.\n");
 800610c:	4891      	ldr	r0, [pc, #580]	; (8006354 <main+0x6c4>)
 800610e:	601a      	str	r2, [r3, #0]
 8006110:	f002 fae6 	bl	80086e0 <tfp_printf>
 8006114:	f8df 825c 	ldr.w	r8, [pc, #604]	; 8006374 <main+0x6e4>
  /* Main loop */
  while(true) {

    if(USB_DRIVER.state == USB_SUSPENDED) {
      print("[s]");
      while(USB_DRIVER.state == USB_SUSPENDED) {
 8006118:	4d8f      	ldr	r5, [pc, #572]	; (8006358 <main+0x6c8>)
    return ST2MS(chVTGetSystemTime());
}

uint16_t timer_elapsed(uint16_t last)
{
    return (uint16_t)(ST2MS(chVTTimeElapsedSinceX(MS2ST(last))));
 800611a:	f8df 9274 	ldr.w	r9, [pc, #628]	; 8006390 <main+0x700>
  print("Keyboard start.\n");

  /* Main loop */
  while(true) {

    if(USB_DRIVER.state == USB_SUSPENDED) {
 800611e:	7823      	ldrb	r3, [r4, #0]
 8006120:	2b05      	cmp	r3, #5
 8006122:	d113      	bne.n	800614c <main+0x4bc>
      print("[s]");
 8006124:	488d      	ldr	r0, [pc, #564]	; (800635c <main+0x6cc>)
 8006126:	f002 fadb 	bl	80086e0 <tfp_printf>
  USB0->CTL |= USBx_CTL_RESUME;
  chThdSleepMilliseconds(15);
  USB0->CTL &= ~USBx_CTL_RESUME;
#endif /* KINETIS_USB_USE_USB0 */
#elif defined(STM32F0XX) || defined(STM32F1XX) /* K20x || KL2x */
  STM32_USB->CNTR |= CNTR_RESUME;
 800612a:	4e8d      	ldr	r6, [pc, #564]	; (8006360 <main+0x6d0>)
 800612c:	e006      	b.n	800613c <main+0x4ac>
	// also shouldn't power down USB

	// on AVR, this enables the watchdog for 15ms (max), and goes to
	// SLEEP_MODE_PWR_DOWN

	chThdSleepMilliseconds(17);
 800612e:	f000 ff57 	bl	8006fe0 <chThdSleep>
      while(USB_DRIVER.state == USB_SUSPENDED) {
        /* Do this in the suspended state */
        suspend_power_down(); // on AVR this deep sleeps for 15ms
        /* Remote wakeup */
        if((USB_DRIVER.status & 2) && suspend_wakeup_condition()) {
 8006132:	f8b5 307c 	ldrh.w	r3, [r5, #124]	; 0x7c
 8006136:	079a      	lsls	r2, r3, #30
 8006138:	f100 812c 	bmi.w	8006394 <main+0x704>
  /* Main loop */
  while(true) {

    if(USB_DRIVER.state == USB_SUSPENDED) {
      print("[s]");
      while(USB_DRIVER.state == USB_SUSPENDED) {
 800613c:	7823      	ldrb	r3, [r4, #0]
 800613e:	2022      	movs	r0, #34	; 0x22
 8006140:	2b05      	cmp	r3, #5
 8006142:	d0f4      	beq.n	800612e <main+0x49e>
          send_remote_wakeup(&USB_DRIVER);
        }
      }
      /* Woken up */
      // variables has been already cleared by the wakeup hook
      send_keyboard_report();
 8006144:	f002 ffb4 	bl	80090b0 <send_keyboard_report>
#ifdef MOUSEKEY_ENABLE
      mousekey_send();
 8006148:	f002 fe72 	bl	8008e30 <mousekey_send>
#endif
    static uint8_t led_status = 0;
    matrix_row_t matrix_row = 0;
    matrix_row_t matrix_change = 0;

    matrix_scan();
 800614c:	f002 f950 	bl	80083f0 <matrix_scan>
    for (uint8_t r = 0; r < MATRIX_ROWS; r++) {
        matrix_row = matrix_get_row(r);
        matrix_change = matrix_row ^ matrix_prev[r];
 8006150:	4b84      	ldr	r3, [pc, #528]	; (8006364 <main+0x6d4>)
}

inline
matrix_row_t matrix_get_row(uint8_t row)
{
    return matrix[row];
 8006152:	f89a 7000 	ldrb.w	r7, [sl]
 8006156:	781a      	ldrb	r2, [r3, #0]
 8006158:	f8df b230 	ldr.w	fp, [pc, #560]	; 800638c <main+0x6fc>
        if (matrix_change) {
 800615c:	ea97 0602 	eors.w	r6, r7, r2
 8006160:	d007      	beq.n	8006172 <main+0x4e2>
                matrix_ghost[r] = matrix_row;
                continue;
            }
            matrix_ghost[r] = matrix_row;
#endif
            if (debug_matrix) matrix_print();
 8006162:	4b78      	ldr	r3, [pc, #480]	; (8006344 <main+0x6b4>)
 8006164:	781b      	ldrb	r3, [r3, #0]
 8006166:	079b      	lsls	r3, r3, #30
 8006168:	f100 813f 	bmi.w	80063ea <main+0x75a>
            for (uint8_t c = 0; c < MATRIX_COLS; c++) {
                if (matrix_change & ((matrix_row_t)1<<c)) {
 800616c:	07f6      	lsls	r6, r6, #31
 800616e:	f100 8164 	bmi.w	800643a <main+0x7aa>
                }
            }
        }
    }
    // call with pseudo tick event when no real key event.
    action_exec(TICK);
 8006172:	23ff      	movs	r3, #255	; 0xff
 8006174:	2200      	movs	r2, #0
 8006176:	f88d 3008 	strb.w	r3, [sp, #8]
 800617a:	f88d 3009 	strb.w	r3, [sp, #9]
 800617e:	f88d 200a 	strb.w	r2, [sp, #10]
 8006182:	f002 fa95 	bl	80086b0 <timer_read>
 8006186:	f040 0001 	orr.w	r0, r0, #1
 800618a:	f8ad 000c 	strh.w	r0, [sp, #12]
 800618e:	ab02      	add	r3, sp, #8
 8006190:	e893 0003 	ldmia.w	r3, {r0, r1}
 8006194:	f001 fd4c 	bl	8007c30 <action_exec>
 8006198:	4b73      	ldr	r3, [pc, #460]	; (8006368 <main+0x6d8>)
 800619a:	881a      	ldrh	r2, [r3, #0]
 800619c:	f44f 63fa 	mov.w	r3, #2000	; 0x7d0
 80061a0:	fb03 f302 	mul.w	r3, r3, r2
 80061a4:	f203 33e7 	addw	r3, r3, #999	; 0x3e7
 80061a8:	fba9 2303 	umull	r2, r3, r9, r3
 *
 * @notapi
 */
static inline systime_t st_lld_get_counter(void) {

  return (systime_t)STM32_ST_TIM->CNT;
 80061ac:	f04f 4280 	mov.w	r2, #1073741824	; 0x40000000
 80061b0:	6a51      	ldr	r1, [r2, #36]	; 0x24
 80061b2:	f44f 727a 	mov.w	r2, #1000	; 0x3e8
 *
 * @xclass
 */
static inline systime_t chVTTimeElapsedSinceX(systime_t start) {

  return chVTGetSystemTimeX() - start;
 80061b6:	eba1 1393 	sub.w	r3, r1, r3, lsr #6
 80061ba:	b29b      	uxth	r3, r3
 80061bc:	fb02 f303 	mul.w	r3, r2, r3
 80061c0:	f203 73cf 	addw	r3, r3, #1999	; 0x7cf
 80061c4:	fba9 2303 	umull	r2, r3, r9, r3
    return (unit > MOUSEKEY_WHEEL_MAX ? MOUSEKEY_WHEEL_MAX : (unit == 0 ? 1 : unit));
}

void mousekey_task(void)
{
    if (timer_elapsed(last_timer) < (mousekey_repeat ? mk_interval : mk_delay*10))
 80061c8:	4a68      	ldr	r2, [pc, #416]	; (800636c <main+0x6dc>)
 80061ca:	09db      	lsrs	r3, r3, #7
 80061cc:	7811      	ldrb	r1, [r2, #0]
 80061ce:	2900      	cmp	r1, #0
 80061d0:	f000 809e 	beq.w	8006310 <main+0x680>
 80061d4:	4a66      	ldr	r2, [pc, #408]	; (8006370 <main+0x6e0>)
 80061d6:	7812      	ldrb	r2, [r2, #0]
 80061d8:	4293      	cmp	r3, r2
 80061da:	db71      	blt.n	80062c0 <main+0x630>
        return;

    if (mouse_report.x == 0 && mouse_report.y == 0 && mouse_report.v == 0 && mouse_report.h == 0)
 80061dc:	4a65      	ldr	r2, [pc, #404]	; (8006374 <main+0x6e4>)
 80061de:	f898 3001 	ldrb.w	r3, [r8, #1]
 80061e2:	7896      	ldrb	r6, [r2, #2]
 80061e4:	2b00      	cmp	r3, #0
 80061e6:	f040 808c 	bne.w	8006302 <main+0x672>
 80061ea:	2e00      	cmp	r6, #0
 80061ec:	f040 80e5 	bne.w	80063ba <main+0x72a>
 80061f0:	78d7      	ldrb	r7, [r2, #3]
 80061f2:	2f00      	cmp	r7, #0
 80061f4:	f040 80e1 	bne.w	80063ba <main+0x72a>
 80061f8:	f892 b004 	ldrb.w	fp, [r2, #4]
 80061fc:	f1bb 0f00 	cmp.w	fp, #0
 8006200:	d05e      	beq.n	80062c0 <main+0x630>
        return;

    if (mousekey_repeat != UINT8_MAX)
 8006202:	29ff      	cmp	r1, #255	; 0xff
 8006204:	d00e      	beq.n	8006224 <main+0x594>
        mousekey_repeat++;
 8006206:	4a59      	ldr	r2, [pc, #356]	; (800636c <main+0x6dc>)
 8006208:	3101      	adds	r1, #1
 800620a:	7011      	strb	r1, [r2, #0]


    if (mouse_report.x > 0) mouse_report.x = move_unit();
 800620c:	b25a      	sxtb	r2, r3
 800620e:	2a00      	cmp	r2, #0
 8006210:	dd05      	ble.n	800621e <main+0x58e>
 8006212:	f002 f9f5 	bl	8008600 <move_unit.lto_priv.51>
 8006216:	b2c3      	uxtb	r3, r0
 8006218:	f888 3001 	strb.w	r3, [r8, #1]
 800621c:	b25a      	sxtb	r2, r3
    if (mouse_report.x < 0) mouse_report.x = move_unit() * -1;
 800621e:	2a00      	cmp	r2, #0
 8006220:	f2c0 80d6 	blt.w	80063d0 <main+0x740>
    if (mouse_report.y > 0) mouse_report.y = move_unit();
 8006224:	b276      	sxtb	r6, r6
 8006226:	2e00      	cmp	r6, #0
 8006228:	dd07      	ble.n	800623a <main+0x5aa>
 800622a:	9301      	str	r3, [sp, #4]
 800622c:	f002 f9e8 	bl	8008600 <move_unit.lto_priv.51>
 8006230:	9b01      	ldr	r3, [sp, #4]
 8006232:	b2c6      	uxtb	r6, r0
 8006234:	f888 6002 	strb.w	r6, [r8, #2]
 8006238:	b276      	sxtb	r6, r6
    if (mouse_report.y < 0) mouse_report.y = move_unit() * -1;
 800623a:	2e00      	cmp	r6, #0
 800623c:	db59      	blt.n	80062f2 <main+0x662>

    /* diagonal move [1/sqrt(2) = 0.7] */
    if (mouse_report.x && mouse_report.y) {
 800623e:	b303      	cbz	r3, 8006282 <main+0x5f2>
 8006240:	f898 c002 	ldrb.w	ip, [r8, #2]
 8006244:	4e4b      	ldr	r6, [pc, #300]	; (8006374 <main+0x6e4>)
 8006246:	f1bc 0f00 	cmp.w	ip, #0
 800624a:	d01a      	beq.n	8006282 <main+0x5f2>
        mouse_report.x *= 0.7;
 800624c:	b258      	sxtb	r0, r3
 800624e:	f8cd c004 	str.w	ip, [sp, #4]
 8006252:	f7ff f94f 	bl	80054f4 <__aeabi_i2d>
 8006256:	a332      	add	r3, pc, #200	; (adr r3, 8006320 <main+0x690>)
 8006258:	e9d3 2300 	ldrd	r2, r3, [r3]
 800625c:	f7ff f9b0 	bl	80055c0 <__aeabi_dmul>
 8006260:	f7ff fbc6 	bl	80059f0 <__aeabi_d2iz>
        mouse_report.y *= 0.7;
 8006264:	f8dd c004 	ldr.w	ip, [sp, #4]
    if (mouse_report.y > 0) mouse_report.y = move_unit();
    if (mouse_report.y < 0) mouse_report.y = move_unit() * -1;

    /* diagonal move [1/sqrt(2) = 0.7] */
    if (mouse_report.x && mouse_report.y) {
        mouse_report.x *= 0.7;
 8006268:	7070      	strb	r0, [r6, #1]
        mouse_report.y *= 0.7;
 800626a:	fa4f f08c 	sxtb.w	r0, ip
 800626e:	f7ff f941 	bl	80054f4 <__aeabi_i2d>
 8006272:	a32b      	add	r3, pc, #172	; (adr r3, 8006320 <main+0x690>)
 8006274:	e9d3 2300 	ldrd	r2, r3, [r3]
 8006278:	f7ff f9a2 	bl	80055c0 <__aeabi_dmul>
 800627c:	f7ff fbb8 	bl	80059f0 <__aeabi_d2iz>
 8006280:	70b0      	strb	r0, [r6, #2]
    }

    if (mouse_report.v > 0) mouse_report.v = wheel_unit();
 8006282:	b27f      	sxtb	r7, r7
 8006284:	2f00      	cmp	r7, #0
 8006286:	dd05      	ble.n	8006294 <main+0x604>
 8006288:	f002 f982 	bl	8008590 <wheel_unit.lto_priv.50>
 800628c:	b2c7      	uxtb	r7, r0
 800628e:	f888 7003 	strb.w	r7, [r8, #3]
 8006292:	b27f      	sxtb	r7, r7
    if (mouse_report.v < 0) mouse_report.v = wheel_unit() * -1;
 8006294:	2f00      	cmp	r7, #0
 8006296:	f2c0 80a2 	blt.w	80063de <main+0x74e>
    if (mouse_report.h > 0) mouse_report.h = wheel_unit();
 800629a:	fa4f fb8b 	sxtb.w	fp, fp
 800629e:	f1bb 0f00 	cmp.w	fp, #0
 80062a2:	dd07      	ble.n	80062b4 <main+0x624>
 80062a4:	f002 f974 	bl	8008590 <wheel_unit.lto_priv.50>
 80062a8:	fa5f fb80 	uxtb.w	fp, r0
 80062ac:	f888 b004 	strb.w	fp, [r8, #4]
 80062b0:	fa4f fb8b 	sxtb.w	fp, fp
    if (mouse_report.h < 0) mouse_report.h = wheel_unit() * -1;
 80062b4:	f1bb 0f00 	cmp.w	fp, #0
 80062b8:	f2c0 8084 	blt.w	80063c4 <main+0x734>

    mousekey_send();
 80062bc:	f002 fdb8 	bl	8008e30 <mousekey_send>
#ifdef ADB_MOUSE_ENABLE
        adb_mouse_task();
#endif

    // update LED
    if (led_status != host_keyboard_leds()) {
 80062c0:	f002 f88e 	bl	80083e0 <host_keyboard_leds>
 80062c4:	4b2c      	ldr	r3, [pc, #176]	; (8006378 <main+0x6e8>)
 80062c6:	4e2c      	ldr	r6, [pc, #176]	; (8006378 <main+0x6e8>)
 80062c8:	781b      	ldrb	r3, [r3, #0]
 80062ca:	4283      	cmp	r3, r0
 80062cc:	d00b      	beq.n	80062e6 <main+0x656>
        led_status = host_keyboard_leds();
 80062ce:	f002 f887 	bl	80083e0 <host_keyboard_leds>
    }
}

void keyboard_set_leds(uint8_t leds)
{
    if (debug_keyboard) { debug("keyboard_set_led: "); debug_hex8(leds); debug("\n"); }
 80062d2:	4b1c      	ldr	r3, [pc, #112]	; (8006344 <main+0x6b4>)
        adb_mouse_task();
#endif

    // update LED
    if (led_status != host_keyboard_leds()) {
        led_status = host_keyboard_leds();
 80062d4:	7030      	strb	r0, [r6, #0]
    }
}

void keyboard_set_leds(uint8_t leds)
{
    if (debug_keyboard) { debug("keyboard_set_led: "); debug_hex8(leds); debug("\n"); }
 80062d6:	781b      	ldrb	r3, [r3, #0]
        adb_mouse_task();
#endif

    // update LED
    if (led_status != host_keyboard_leds()) {
        led_status = host_keyboard_leds();
 80062d8:	4607      	mov	r7, r0
    }
}

void keyboard_set_leds(uint8_t leds)
{
    if (debug_keyboard) { debug("keyboard_set_led: "); debug_hex8(leds); debug("\n"); }
 80062da:	0758      	lsls	r0, r3, #29
 80062dc:	4e19      	ldr	r6, [pc, #100]	; (8006344 <main+0x6b4>)
 80062de:	d502      	bpl.n	80062e6 <main+0x656>
 80062e0:	07d9      	lsls	r1, r3, #31
 80062e2:	f100 80c5 	bmi.w	8006470 <main+0x7e0>
#endif /* MOUSEKEY_ENABLE */
    }

    keyboard_task();
    chThdSleepMilliseconds(5);
 80062e6:	200a      	movs	r0, #10
 80062e8:	f000 fe7a 	bl	8006fe0 <chThdSleep>
 80062ec:	e717      	b.n	800611e <main+0x48e>
  chDbgCheck(tp != NULL);
  chDbgAssert((tp->p_state != CH_STATE_READY) &&
              (tp->p_state != CH_STATE_FINAL),
              "invalid state");

  tp->p_state = CH_STATE_READY;
 80062ee:	7719      	strb	r1, [r3, #28]
 80062f0:	e7fe      	b.n	80062f0 <main+0x660>
 80062f2:	9301      	str	r3, [sp, #4]


    if (mouse_report.x > 0) mouse_report.x = move_unit();
    if (mouse_report.x < 0) mouse_report.x = move_unit() * -1;
    if (mouse_report.y > 0) mouse_report.y = move_unit();
    if (mouse_report.y < 0) mouse_report.y = move_unit() * -1;
 80062f4:	f002 f984 	bl	8008600 <move_unit.lto_priv.51>
 80062f8:	4240      	negs	r0, r0
 80062fa:	f888 0002 	strb.w	r0, [r8, #2]
 80062fe:	9b01      	ldr	r3, [sp, #4]
 8006300:	e79d      	b.n	800623e <main+0x5ae>
        return;

    if (mouse_report.x == 0 && mouse_report.y == 0 && mouse_report.v == 0 && mouse_report.h == 0)
        return;

    if (mousekey_repeat != UINT8_MAX)
 8006302:	29ff      	cmp	r1, #255	; 0xff
 8006304:	78d7      	ldrb	r7, [r2, #3]
 8006306:	f892 b004 	ldrb.w	fp, [r2, #4]
 800630a:	f47f af7c 	bne.w	8006206 <main+0x576>
 800630e:	e77d      	b.n	800620c <main+0x57c>
    return (unit > MOUSEKEY_WHEEL_MAX ? MOUSEKEY_WHEEL_MAX : (unit == 0 ? 1 : unit));
}

void mousekey_task(void)
{
    if (timer_elapsed(last_timer) < (mousekey_repeat ? mk_interval : mk_delay*10))
 8006310:	4a1a      	ldr	r2, [pc, #104]	; (800637c <main+0x6ec>)
 8006312:	7812      	ldrb	r2, [r2, #0]
 8006314:	eb02 0282 	add.w	r2, r2, r2, lsl #2
 8006318:	0052      	lsls	r2, r2, #1
 800631a:	e75d      	b.n	80061d8 <main+0x548>
 800631c:	f3af 8000 	nop.w
 8006320:	66666666 	.word	0x66666666
 8006324:	3fe66666 	.word	0x3fe66666
 8006328:	40010c00 	.word	0x40010c00
 800632c:	20001240 	.word	0x20001240
 8006330:	200013b4 	.word	0x200013b4
 8006334:	08005c31 	.word	0x08005c31
 8006338:	20001548 	.word	0x20001548
 800633c:	08005a41 	.word	0x08005a41
 8006340:	08009e68 	.word	0x08009e68
 8006344:	20001544 	.word	0x20001544
 8006348:	200014a8 	.word	0x200014a8
 800634c:	200014ac 	.word	0x200014ac
 8006350:	20001200 	.word	0x20001200
 8006354:	08009e7c 	.word	0x08009e7c
 8006358:	200014b4 	.word	0x200014b4
 800635c:	08009e90 	.word	0x08009e90
 8006360:	40005c00 	.word	0x40005c00
 8006364:	200013d8 	.word	0x200013d8
 8006368:	200014b0 	.word	0x200014b0
 800636c:	2000154f 	.word	0x2000154f
 8006370:	2000122f 	.word	0x2000122f
 8006374:	2000156c 	.word	0x2000156c
 8006378:	200013b0 	.word	0x200013b0
 800637c:	20001233 	.word	0x20001233
 8006380:	2000141c 	.word	0x2000141c
 8006384:	200013e0 	.word	0x200013e0
 8006388:	20001540 	.word	0x20001540
 800638c:	200014a4 	.word	0x200014a4
 8006390:	10624dd3 	.word	0x10624dd3
__attribute__ ((weak)) void matrix_power_up(void) {}
__attribute__ ((weak)) void matrix_power_down(void) {}
bool suspend_wakeup_condition(void)
{
    matrix_power_up();
    matrix_scan();
 8006394:	f002 f82c 	bl	80083f0 <matrix_scan>
    matrix_power_down();
    for (uint8_t r = 0; r < MATRIX_ROWS; r++) {
        if (matrix_get_row(r)) return true;
 8006398:	f89a 3000 	ldrb.w	r3, [sl]
 800639c:	2b00      	cmp	r3, #0
 800639e:	f43f aecd 	beq.w	800613c <main+0x4ac>
 80063a2:	6c33      	ldr	r3, [r6, #64]	; 0x40
  chThdSleepMilliseconds(15);
 80063a4:	201e      	movs	r0, #30
  USB0->CTL |= USBx_CTL_RESUME;
  chThdSleepMilliseconds(15);
  USB0->CTL &= ~USBx_CTL_RESUME;
#endif /* KINETIS_USB_USE_USB0 */
#elif defined(STM32F0XX) || defined(STM32F1XX) /* K20x || KL2x */
  STM32_USB->CNTR |= CNTR_RESUME;
 80063a6:	f043 0310 	orr.w	r3, r3, #16
 80063aa:	6433      	str	r3, [r6, #64]	; 0x40
  chThdSleepMilliseconds(15);
 80063ac:	f000 fe18 	bl	8006fe0 <chThdSleep>
  STM32_USB->CNTR &= ~CNTR_RESUME;
 80063b0:	6c33      	ldr	r3, [r6, #64]	; 0x40
 80063b2:	f023 0310 	bic.w	r3, r3, #16
 80063b6:	6433      	str	r3, [r6, #64]	; 0x40
 80063b8:	e6c0      	b.n	800613c <main+0x4ac>
 80063ba:	f898 7003 	ldrb.w	r7, [r8, #3]
 80063be:	f898 b004 	ldrb.w	fp, [r8, #4]
 80063c2:	e71e      	b.n	8006202 <main+0x572>
    }

    if (mouse_report.v > 0) mouse_report.v = wheel_unit();
    if (mouse_report.v < 0) mouse_report.v = wheel_unit() * -1;
    if (mouse_report.h > 0) mouse_report.h = wheel_unit();
    if (mouse_report.h < 0) mouse_report.h = wheel_unit() * -1;
 80063c4:	f002 f8e4 	bl	8008590 <wheel_unit.lto_priv.50>
 80063c8:	4240      	negs	r0, r0
 80063ca:	f888 0004 	strb.w	r0, [r8, #4]
 80063ce:	e775      	b.n	80062bc <main+0x62c>
    if (mousekey_repeat != UINT8_MAX)
        mousekey_repeat++;


    if (mouse_report.x > 0) mouse_report.x = move_unit();
    if (mouse_report.x < 0) mouse_report.x = move_unit() * -1;
 80063d0:	f002 f916 	bl	8008600 <move_unit.lto_priv.51>
 80063d4:	4240      	negs	r0, r0
 80063d6:	b2c3      	uxtb	r3, r0
 80063d8:	f888 3001 	strb.w	r3, [r8, #1]
 80063dc:	e722      	b.n	8006224 <main+0x594>
        mouse_report.x *= 0.7;
        mouse_report.y *= 0.7;
    }

    if (mouse_report.v > 0) mouse_report.v = wheel_unit();
    if (mouse_report.v < 0) mouse_report.v = wheel_unit() * -1;
 80063de:	f002 f8d7 	bl	8008590 <wheel_unit.lto_priv.50>
 80063e2:	4240      	negs	r0, r0
 80063e4:	f888 0003 	strb.w	r0, [r8, #3]
 80063e8:	e757      	b.n	800629a <main+0x60a>
}

void matrix_print(void)
{
    print("\nr/c 0123456789ABCDEF\n");
 80063ea:	482b      	ldr	r0, [pc, #172]	; (8006498 <main+0x808>)
 80063ec:	f002 f978 	bl	80086e0 <tfp_printf>
    for (uint8_t row = 0; row < MATRIX_ROWS; row++) {
        phex(row); print(": ");
 80063f0:	2100      	movs	r1, #0
 80063f2:	482a      	ldr	r0, [pc, #168]	; (800649c <main+0x80c>)
 80063f4:	f002 f974 	bl	80086e0 <tfp_printf>
 80063f8:	4829      	ldr	r0, [pc, #164]	; (80064a0 <main+0x810>)
 80063fa:	f002 f971 	bl	80086e0 <tfp_printf>
}

inline
matrix_row_t matrix_get_row(uint8_t row)
{
    return matrix[row];
 80063fe:	f89b 2000 	ldrb.w	r2, [fp]
void matrix_print(void)
{
    print("\nr/c 0123456789ABCDEF\n");
    for (uint8_t row = 0; row < MATRIX_ROWS; row++) {
        phex(row); print(": ");
        pbin_reverse16(matrix_get_row(row));
 8006402:	4828      	ldr	r0, [pc, #160]	; (80064a4 <main+0x814>)



uint8_t bitrev(uint8_t bits)
{
    bits = (bits & 0x0f)<<4 | (bits & 0xf0)>>4;
 8006404:	0913      	lsrs	r3, r2, #4
 8006406:	ea43 1202 	orr.w	r2, r3, r2, lsl #4
 800640a:	b2d2      	uxtb	r2, r2
    bits = (bits & 0b00110011)<<2 | (bits & 0b11001100)>>2;
 800640c:	f002 0333 	and.w	r3, r2, #51	; 0x33
 8006410:	009b      	lsls	r3, r3, #2
 8006412:	f002 02cc 	and.w	r2, r2, #204	; 0xcc
 8006416:	ea43 0392 	orr.w	r3, r3, r2, lsr #2
    bits = (bits & 0b01010101)<<1 | (bits & 0b10101010)>>1;
 800641a:	f003 0255 	and.w	r2, r3, #85	; 0x55
 800641e:	0052      	lsls	r2, r2, #1
 8006420:	f003 03aa 	and.w	r3, r3, #170	; 0xaa
    return bits;
}

uint16_t bitrev16(uint16_t bits)
{
    bits = bitrev(bits & 0x00ff)<<8 | bitrev((bits & 0xff00)>>8);
 8006424:	ea42 0153 	orr.w	r1, r2, r3, lsr #1
 8006428:	0209      	lsls	r1, r1, #8
 800642a:	f002 f959 	bl	80086e0 <tfp_printf>
        print("\n");
 800642e:	481e      	ldr	r0, [pc, #120]	; (80064a8 <main+0x818>)
 8006430:	f002 f956 	bl	80086e0 <tfp_printf>
            }
            matrix_ghost[r] = matrix_row;
#endif
            if (debug_matrix) matrix_print();
            for (uint8_t c = 0; c < MATRIX_COLS; c++) {
                if (matrix_change & ((matrix_row_t)1<<c)) {
 8006434:	07f6      	lsls	r6, r6, #31
 8006436:	f57f ae9c 	bpl.w	8006172 <main+0x4e2>
                    action_exec((keyevent_t){
 800643a:	2200      	movs	r2, #0
                        .key = (keypos_t){ .row = r, .col = c },
                        .pressed = (matrix_row & ((matrix_row_t)1<<c)),
 800643c:	f007 0301 	and.w	r3, r7, #1
            matrix_ghost[r] = matrix_row;
#endif
            if (debug_matrix) matrix_print();
            for (uint8_t c = 0; c < MATRIX_COLS; c++) {
                if (matrix_change & ((matrix_row_t)1<<c)) {
                    action_exec((keyevent_t){
 8006440:	f88d 2010 	strb.w	r2, [sp, #16]
 8006444:	f88d 2011 	strb.w	r2, [sp, #17]
                        .key = (keypos_t){ .row = r, .col = c },
                        .pressed = (matrix_row & ((matrix_row_t)1<<c)),
 8006448:	f88d 3012 	strb.w	r3, [sp, #18]
                        .time = (timer_read() | 1) /* time should not be 0 */
 800644c:	f002 f930 	bl	80086b0 <timer_read>
            matrix_ghost[r] = matrix_row;
#endif
            if (debug_matrix) matrix_print();
            for (uint8_t c = 0; c < MATRIX_COLS; c++) {
                if (matrix_change & ((matrix_row_t)1<<c)) {
                    action_exec((keyevent_t){
 8006450:	f040 0001 	orr.w	r0, r0, #1
 8006454:	ab04      	add	r3, sp, #16
 8006456:	f8ad 0014 	strh.w	r0, [sp, #20]
 800645a:	e893 0003 	ldmia.w	r3, {r0, r1}
 800645e:	f001 fbe7 	bl	8007c30 <action_exec>
                        .key = (keypos_t){ .row = r, .col = c },
                        .pressed = (matrix_row & ((matrix_row_t)1<<c)),
                        .time = (timer_read() | 1) /* time should not be 0 */
                    });
                    // record a processed key
                    matrix_prev[r] ^= ((matrix_row_t)1<<c);
 8006462:	4b12      	ldr	r3, [pc, #72]	; (80064ac <main+0x81c>)
 8006464:	4a11      	ldr	r2, [pc, #68]	; (80064ac <main+0x81c>)
 8006466:	781b      	ldrb	r3, [r3, #0]
 8006468:	f083 0301 	eor.w	r3, r3, #1
 800646c:	7013      	strb	r3, [r2, #0]
 800646e:	e693      	b.n	8006198 <main+0x508>
    }
}

void keyboard_set_leds(uint8_t leds)
{
    if (debug_keyboard) { debug("keyboard_set_led: "); debug_hex8(leds); debug("\n"); }
 8006470:	480f      	ldr	r0, [pc, #60]	; (80064b0 <main+0x820>)
 8006472:	f002 f935 	bl	80086e0 <tfp_printf>
 8006476:	7833      	ldrb	r3, [r6, #0]
 8006478:	07da      	lsls	r2, r3, #31
 800647a:	f57f af34 	bpl.w	80062e6 <main+0x656>
 800647e:	4639      	mov	r1, r7
 8006480:	4806      	ldr	r0, [pc, #24]	; (800649c <main+0x80c>)
 8006482:	f002 f92d 	bl	80086e0 <tfp_printf>
 8006486:	7833      	ldrb	r3, [r6, #0]
 8006488:	07db      	lsls	r3, r3, #31
 800648a:	f57f af2c 	bpl.w	80062e6 <main+0x656>
 800648e:	4806      	ldr	r0, [pc, #24]	; (80064a8 <main+0x818>)
 8006490:	f002 f926 	bl	80086e0 <tfp_printf>
 8006494:	e727      	b.n	80062e6 <main+0x656>
 8006496:	bf00      	nop
 8006498:	08009e94 	.word	0x08009e94
 800649c:	08009eac 	.word	0x08009eac
 80064a0:	0800a8f8 	.word	0x0800a8f8
 80064a4:	08009eb4 	.word	0x08009eb4
 80064a8:	0800a8c0 	.word	0x0800a8c0
 80064ac:	200013d8 	.word	0x200013d8
 80064b0:	08009ebc 	.word	0x08009ebc
 80064b4:	f3af 8000 	nop.w
 80064b8:	f3af 8000 	nop.w
 80064bc:	f3af 8000 	nop.w

080064c0 <send_extra_report.part.2.lto_priv.67>:
  /* STUB */
  (void)usbp;
  (void)ep;
}

static void send_extra_report(uint8_t report_id, uint16_t data) {
 80064c0:	b530      	push	{r4, r5, lr}
 80064c2:	b083      	sub	sp, #12
  if(usbGetDriverStateI(&USB_DRIVER) != USB_ACTIVE) {
    osalSysUnlock();
    return;
  }

  report_extra_t report = {
 80064c4:	f88d 0004 	strb.w	r0, [sp, #4]
 80064c8:	f8ad 1005 	strh.w	r1, [sp, #5]
 80064cc:	2400      	movs	r4, #0
 80064ce:	f384 8811 	msr	BASEPRI, r4
    .report_id = report_id,
    .usage = data
  };

  osalSysUnlock();
  usbPrepareTransmit(&USB_DRIVER, EXTRA_ENDPOINT, (uint8_t *)&report, sizeof(report_extra_t));
 80064d2:	4d09      	ldr	r5, [pc, #36]	; (80064f8 <send_extra_report.part.2.lto_priv.67+0x38>)
 80064d4:	aa01      	add	r2, sp, #4
 80064d6:	4628      	mov	r0, r5
 80064d8:	2104      	movs	r1, #4
 80064da:	2303      	movs	r3, #3
 80064dc:	f000 fba8 	bl	8006c30 <usbPrepareTransmit>
 80064e0:	2320      	movs	r3, #32
 80064e2:	f383 8811 	msr	BASEPRI, r3
  osalSysLock();
  usbStartTransmitI(&USB_DRIVER, EXTRA_ENDPOINT);
 80064e6:	2104      	movs	r1, #4
 80064e8:	4628      	mov	r0, r5
 80064ea:	f000 f8b1 	bl	8006650 <usbStartTransmitI>
 80064ee:	f384 8811 	msr	BASEPRI, r4
  osalSysUnlock();
}
 80064f2:	b003      	add	sp, #12
 80064f4:	bd30      	pop	{r4, r5, pc}
 80064f6:	bf00      	nop
 80064f8:	200014b4 	.word	0x200014b4
 80064fc:	f3af 8000 	nop.w

08006500 <set_address>:
 *
 * @param[in] usbp      pointer to the @p USBDriver object
 */
static void set_address(USBDriver *usbp) {

  usbp->address = usbp->setup[2];
 8006500:	f890 3076 	ldrb.w	r3, [r0, #118]	; 0x76
  usb_lld_set_address(usbp);
  _usb_isr_invoke_event_cb(usbp, USB_EVENT_ADDRESS);
 8006504:	6842      	ldr	r2, [r0, #4]
 *
 * @param[in] usbp      pointer to the @p USBDriver object
 */
static void set_address(USBDriver *usbp) {

  usbp->address = usbp->setup[2];
 8006506:	f880 307e 	strb.w	r3, [r0, #126]	; 0x7e
 *
 * @notapi
 */
void usb_lld_set_address(USBDriver *usbp) {

  STM32_USB->DADDR = (uint32_t)(usbp->address) | DADDR_EF;
 800650a:	4906      	ldr	r1, [pc, #24]	; (8006524 <set_address+0x24>)
  usb_lld_set_address(usbp);
  _usb_isr_invoke_event_cb(usbp, USB_EVENT_ADDRESS);
 800650c:	6812      	ldr	r2, [r2, #0]
 800650e:	f043 0380 	orr.w	r3, r3, #128	; 0x80
/**
 * @brief  SET ADDRESS transaction callback.
 *
 * @param[in] usbp      pointer to the @p USBDriver object
 */
static void set_address(USBDriver *usbp) {
 8006512:	b510      	push	{r4, lr}
 8006514:	4604      	mov	r4, r0
 8006516:	64cb      	str	r3, [r1, #76]	; 0x4c

  usbp->address = usbp->setup[2];
  usb_lld_set_address(usbp);
  _usb_isr_invoke_event_cb(usbp, USB_EVENT_ADDRESS);
 8006518:	b10a      	cbz	r2, 800651e <set_address+0x1e>
 800651a:	2101      	movs	r1, #1
 800651c:	4790      	blx	r2
  usbp->state = USB_SELECTED;
 800651e:	2303      	movs	r3, #3
 8006520:	7023      	strb	r3, [r4, #0]
 8006522:	bd10      	pop	{r4, pc}
 8006524:	40005c00 	.word	0x40005c00
 8006528:	f3af 8000 	nop.w
 800652c:	f3af 8000 	nop.w

08006530 <SVC_Handler>:
 */
__attribute__( ( always_inline ) ) __STATIC_INLINE uint32_t __get_PSP(void)
{
  register uint32_t result;

  __ASM volatile ("MRS %0, psp\n"  : "=r" (result) );
 8006530:	f3ef 8309 	mrs	r3, PSP
  /* The port_extctx structure is pointed by the PSP register.*/
  ctxp = (struct port_extctx *)__get_PSP();

  /* Discarding the current exception context and positioning the stack to
     point to the real one.*/
  ctxp++;
 8006534:	3320      	adds	r3, #32

    \param [in]    topOfProcStack  Process Stack Pointer value to set
 */
__attribute__( ( always_inline ) ) __STATIC_INLINE void __set_PSP(uint32_t topOfProcStack)
{
  __ASM volatile ("MSR psp, %0\n" : : "r" (topOfProcStack) : "sp");
 8006536:	f383 8809 	msr	PSP, r3

    \param [in]    basePri  Base Priority value to set
 */
__attribute__( ( always_inline ) ) __STATIC_INLINE void __set_BASEPRI(uint32_t value)
{
  __ASM volatile ("MSR basepri, %0" : : "r" (value) : "memory");
 800653a:	2300      	movs	r3, #0
 800653c:	f383 8811 	msr	BASEPRI, r3
 8006540:	4770      	bx	lr
 8006542:	bf00      	nop
 8006544:	f3af 8000 	nop.w
 8006548:	f3af 8000 	nop.w
 800654c:	f3af 8000 	nop.w

08006550 <chCoreAlloc>:
 * @return              A pointer to the allocated memory block.
 * @retval NULL         allocation failed, core memory exhausted.
 *
 * @api
 */
void *chCoreAlloc(size_t size) {
 8006550:	b410      	push	{r4}
 8006552:	2320      	movs	r3, #32
 8006554:	f383 8811 	msr	BASEPRI, r3

  chDbgCheckClassI();

  size = MEM_ALIGN_NEXT(size);
  /*lint -save -e9033 [10.8] The cast is safe.*/
  if ((size_t)(endmem - nextmem) < size) {
 8006558:	4c09      	ldr	r4, [pc, #36]	; (8006580 <chCoreAlloc+0x30>)
 800655a:	4b0a      	ldr	r3, [pc, #40]	; (8006584 <chCoreAlloc+0x34>)
 800655c:	6822      	ldr	r2, [r4, #0]
 800655e:	6819      	ldr	r1, [r3, #0]
void *chCoreAllocI(size_t size) {
  void *p;

  chDbgCheckClassI();

  size = MEM_ALIGN_NEXT(size);
 8006560:	1dc3      	adds	r3, r0, #7
 8006562:	f023 0307 	bic.w	r3, r3, #7
  /*lint -save -e9033 [10.8] The cast is safe.*/
  if ((size_t)(endmem - nextmem) < size) {
 8006566:	1a89      	subs	r1, r1, r2
 8006568:	428b      	cmp	r3, r1
  /*lint -restore*/
    return NULL;
  }
  p = nextmem;
  nextmem += size;
 800656a:	bf9d      	ittte	ls
 800656c:	189b      	addls	r3, r3, r2
 800656e:	6023      	strls	r3, [r4, #0]

  return p;
 8006570:	4610      	movls	r0, r2

  size = MEM_ALIGN_NEXT(size);
  /*lint -save -e9033 [10.8] The cast is safe.*/
  if ((size_t)(endmem - nextmem) < size) {
  /*lint -restore*/
    return NULL;
 8006572:	2000      	movhi	r0, #0
 8006574:	2300      	movs	r3, #0
 8006576:	f383 8811 	msr	BASEPRI, r3
  chSysLock();
  p = chCoreAllocI(size);
  chSysUnlock();

  return p;
}
 800657a:	f85d 4b04 	ldr.w	r4, [sp], #4
 800657e:	4770      	bx	lr
 8006580:	200013dc 	.word	0x200013dc
 8006584:	20001418 	.word	0x20001418
 8006588:	f3af 8000 	nop.w
 800658c:	f3af 8000 	nop.w

08006590 <wakeup.lto_priv.60>:
}

/*
 * Timeout wakeup callback.
 */
static void wakeup(void *p) {
 8006590:	b410      	push	{r4}
 8006592:	2320      	movs	r3, #32
 8006594:	f383 8811 	msr	BASEPRI, r3
  thread_t *tp = (thread_t *)p;

  chSysLockFromISR();
  switch (tp->p_state) {
 8006598:	7f03      	ldrb	r3, [r0, #28]
 800659a:	2b07      	cmp	r3, #7
 800659c:	d80e      	bhi.n	80065bc <wakeup.lto_priv.60+0x2c>
 800659e:	e8df f003 	tbb	[pc, r3]
 80065a2:	0d27      	.short	0x0d27
 80065a4:	0408230d 	.word	0x0408230d
 80065a8:	080d      	.short	0x080d
  case CH_STATE_SUSPENDED:
    *tp->p_u.wttrp = NULL;
    break;
#if CH_CFG_USE_SEMAPHORES == TRUE
  case CH_STATE_WTSEM:
    chSemFastSignalI(tp->p_u.wtsemp);
 80065aa:	6a02      	ldr	r2, [r0, #32]
 */
static inline void chSemFastSignalI(semaphore_t *sp) {

  chDbgCheckClassI();

  sp->s_cnt++;
 80065ac:	6893      	ldr	r3, [r2, #8]
 80065ae:	3301      	adds	r3, #1
 80065b0:	6093      	str	r3, [r2, #8]
  return tp;
}

static inline thread_t *queue_dequeue(thread_t *tp) {

  tp->p_prev->p_next = tp->p_next;
 80065b2:	e890 000c 	ldmia.w	r0, {r2, r3}
 80065b6:	601a      	str	r2, [r3, #0]
  tp->p_next->p_prev = tp->p_prev;
 80065b8:	6802      	ldr	r2, [r0, #0]
 80065ba:	6053      	str	r3, [r2, #4]
    break;
  default:
    /* Any other state, nothing to do.*/
    break;
  }
  tp->p_u.rdymsg = MSG_TIMEOUT;
 80065bc:	f04f 34ff 	mov.w	r4, #4294967295
  chDbgCheck(tp != NULL);
  chDbgAssert((tp->p_state != CH_STATE_READY) &&
              (tp->p_state != CH_STATE_FINAL),
              "invalid state");

  tp->p_state = CH_STATE_READY;
 80065c0:	2200      	movs	r2, #0
 80065c2:	6881      	ldr	r1, [r0, #8]
  cp = (thread_t *)&ch.rlist.r_queue;
 80065c4:	4b0d      	ldr	r3, [pc, #52]	; (80065fc <wakeup.lto_priv.60+0x6c>)
    break;
  default:
    /* Any other state, nothing to do.*/
    break;
  }
  tp->p_u.rdymsg = MSG_TIMEOUT;
 80065c6:	6204      	str	r4, [r0, #32]
  chDbgCheck(tp != NULL);
  chDbgAssert((tp->p_state != CH_STATE_READY) &&
              (tp->p_state != CH_STATE_FINAL),
              "invalid state");

  tp->p_state = CH_STATE_READY;
 80065c8:	7702      	strb	r2, [r0, #28]
  cp = (thread_t *)&ch.rlist.r_queue;
  do {
    cp = cp->p_next;
 80065ca:	681b      	ldr	r3, [r3, #0]
  } while (cp->p_prio >= tp->p_prio);
 80065cc:	689a      	ldr	r2, [r3, #8]
 80065ce:	428a      	cmp	r2, r1
 80065d0:	d2fb      	bcs.n	80065ca <wakeup.lto_priv.60+0x3a>
  /* Insertion on p_prev.*/
  tp->p_next = cp;
  tp->p_prev = cp->p_prev;
 80065d2:	685a      	ldr	r2, [r3, #4]
 80065d4:	2100      	movs	r1, #0
  cp = (thread_t *)&ch.rlist.r_queue;
  do {
    cp = cp->p_next;
  } while (cp->p_prio >= tp->p_prio);
  /* Insertion on p_prev.*/
  tp->p_next = cp;
 80065d6:	6003      	str	r3, [r0, #0]
  tp->p_prev = cp->p_prev;
 80065d8:	6042      	str	r2, [r0, #4]
  tp->p_prev->p_next = tp;
 80065da:	6010      	str	r0, [r2, #0]
  cp->p_prev = tp;
 80065dc:	6058      	str	r0, [r3, #4]
 80065de:	f381 8811 	msr	BASEPRI, r1
    break;
  }
  tp->p_u.rdymsg = MSG_TIMEOUT;
  (void) chSchReadyI(tp);
  chSysUnlockFromISR();
}
 80065e2:	f85d 4b04 	ldr.w	r4, [sp], #4
 80065e6:	4770      	bx	lr
    /* Handling the special case where the thread has been made ready by
       another thread with higher priority.*/
    chSysUnlockFromISR();
    return;
  case CH_STATE_SUSPENDED:
    *tp->p_u.wttrp = NULL;
 80065e8:	6a03      	ldr	r3, [r0, #32]
 80065ea:	2200      	movs	r2, #0
 80065ec:	601a      	str	r2, [r3, #0]
 80065ee:	e7e5      	b.n	80065bc <wakeup.lto_priv.60+0x2c>
 80065f0:	2300      	movs	r3, #0
 80065f2:	f383 8811 	msr	BASEPRI, r3
    break;
  }
  tp->p_u.rdymsg = MSG_TIMEOUT;
  (void) chSchReadyI(tp);
  chSysUnlockFromISR();
}
 80065f6:	f85d 4b04 	ldr.w	r4, [sp], #4
 80065fa:	4770      	bx	lr
 80065fc:	20001260 	.word	0x20001260

08006600 <_idle_thread.lto_priv.59>:
 *          that this thread is executed only if there are no other ready
 *          threads in the system.
 *
 * @param[in] p         the thread parameter, unused in this scenario
 */
static void _idle_thread(void *p) {
 8006600:	e7fe      	b.n	8006600 <_idle_thread.lto_priv.59>
 8006602:	bf00      	nop
 8006604:	f3af 8000 	nop.w
 8006608:	f3af 8000 	nop.w
 800660c:	f3af 8000 	nop.w

08006610 <usb_packet_write_from_buffer.lto_priv.68>:
 *
 * @notapi
 */
static void usb_packet_write_from_buffer(stm32_usb_descriptor_t *udp,
                                         const uint8_t *buf,
                                         size_t n) {
 8006610:	b470      	push	{r4, r5, r6}
  uint32_t w;
  size_t i;
  stm32_usb_pma_t *pmap;

  pmap = USB_ADDR2PTR(udp->TXADDR0);
 8006612:	6805      	ldr	r5, [r0, #0]
  udp->TXCOUNT0 = (stm32_usb_pma_t)n;
 8006614:	6042      	str	r2, [r0, #4]
                                         size_t n) {
  uint32_t w;
  size_t i;
  stm32_usb_pma_t *pmap;

  pmap = USB_ADDR2PTR(udp->TXADDR0);
 8006616:	f105 5500 	add.w	r5, r5, #536870912	; 0x20000000
 800661a:	f505 5540 	add.w	r5, r5, #12288	; 0x3000
 800661e:	006d      	lsls	r5, r5, #1
  udp->TXCOUNT0 = (stm32_usb_pma_t)n;

  /* Pushing all complete words.*/
  i = 0;
  w = 0; /* Useless but silences a warning.*/
  while (i < n) {
 8006620:	b19a      	cbz	r2, 800664a <usb_packet_write_from_buffer.lto_priv.68+0x3a>
 8006622:	460b      	mov	r3, r1
 8006624:	188e      	adds	r6, r1, r2
 8006626:	2000      	movs	r0, #0
 8006628:	1a5c      	subs	r4, r3, r1
    if ((i & 1) == 0) {
 800662a:	07e4      	lsls	r4, r4, #31
      w = (uint32_t)*buf;
    }
    else {
      w |= (uint32_t)*buf << 8;
 800662c:	bf4a      	itet	mi
 800662e:	781c      	ldrbmi	r4, [r3, #0]
  /* Pushing all complete words.*/
  i = 0;
  w = 0; /* Useless but silences a warning.*/
  while (i < n) {
    if ((i & 1) == 0) {
      w = (uint32_t)*buf;
 8006630:	7818      	ldrbpl	r0, [r3, #0]
    }
    else {
      w |= (uint32_t)*buf << 8;
 8006632:	ea40 2004 	orrmi.w	r0, r0, r4, lsl #8
      *pmap = (stm32_usb_pma_t)w;
      pmap++;
    }
    i++;
    buf++;
 8006636:	f103 0301 	add.w	r3, r3, #1
    if ((i & 1) == 0) {
      w = (uint32_t)*buf;
    }
    else {
      w |= (uint32_t)*buf << 8;
      *pmap = (stm32_usb_pma_t)w;
 800663a:	bf48      	it	mi
 800663c:	f845 0b04 	strmi.w	r0, [r5], #4
  udp->TXCOUNT0 = (stm32_usb_pma_t)n;

  /* Pushing all complete words.*/
  i = 0;
  w = 0; /* Useless but silences a warning.*/
  while (i < n) {
 8006640:	42b3      	cmp	r3, r6
 8006642:	d1f1      	bne.n	8006628 <usb_packet_write_from_buffer.lto_priv.68+0x18>
    i++;
    buf++;
  }

  /* Remaining byte.*/
  if ((i & 1) != 0) {
 8006644:	07d3      	lsls	r3, r2, #31
    *pmap = (stm32_usb_pma_t)w;
 8006646:	bf48      	it	mi
 8006648:	6028      	strmi	r0, [r5, #0]
  }
}
 800664a:	bc70      	pop	{r4, r5, r6}
 800664c:	4770      	bx	lr
 800664e:	bf00      	nop

08006650 <usbStartTransmitI>:
bool usbStartTransmitI(USBDriver *usbp, usbep_t ep) {

  osalDbgCheckClassI();
  osalDbgCheck(usbp != NULL);

  if (usbGetTransmitStatusI(usbp, ep)) {
 8006650:	2201      	movs	r2, #1
 * @retval false        Operation started successfully.
 * @retval true         Endpoint busy, operation not started.
 *
 * @iclass
 */
bool usbStartTransmitI(USBDriver *usbp, usbep_t ep) {
 8006652:	b430      	push	{r4, r5}

  osalDbgCheckClassI();
  osalDbgCheck(usbp != NULL);

  if (usbGetTransmitStatusI(usbp, ep)) {
 8006654:	fa02 f301 	lsl.w	r3, r2, r1
 8006658:	8904      	ldrh	r4, [r0, #8]
 800665a:	b29b      	uxth	r3, r3
 800665c:	ea13 0504 	ands.w	r5, r3, r4
 8006660:	d002      	beq.n	8006668 <usbStartTransmitI+0x18>
  }

  usbp->transmitting |= (uint16_t)((unsigned)1U << (unsigned)ep);
  usb_lld_start_in(usbp, ep);
  return false;
}
 8006662:	bc30      	pop	{r4, r5}

  osalDbgCheckClassI();
  osalDbgCheck(usbp != NULL);

  if (usbGetTransmitStatusI(usbp, ep)) {
    return true;
 8006664:	4610      	mov	r0, r2
  }

  usbp->transmitting |= (uint16_t)((unsigned)1U << (unsigned)ep);
  usb_lld_start_in(usbp, ep);
  return false;
}
 8006666:	4770      	bx	lr
 8006668:	0089      	lsls	r1, r1, #2
 800666a:	f101 4180 	add.w	r1, r1, #1073741824	; 0x40000000
 800666e:	f501 41b8 	add.w	r1, r1, #23552	; 0x5c00
 */
void usb_lld_start_in(USBDriver *usbp, usbep_t ep) {

  (void)usbp;

  EPR_SET_STAT_TX(ep, EPR_STAT_TX_VALID);
 8006672:	680a      	ldr	r2, [r1, #0]

  if (usbGetTransmitStatusI(usbp, ep)) {
    return true;
  }

  usbp->transmitting |= (uint16_t)((unsigned)1U << (unsigned)ep);
 8006674:	4323      	orrs	r3, r4
 8006676:	f422 42f0 	bic.w	r2, r2, #30720	; 0x7800
 800667a:	f022 0240 	bic.w	r2, r2, #64	; 0x40
 800667e:	f082 0230 	eor.w	r2, r2, #48	; 0x30
 8006682:	f442 4200 	orr.w	r2, r2, #32768	; 0x8000
 8006686:	f042 0280 	orr.w	r2, r2, #128	; 0x80
 800668a:	8103      	strh	r3, [r0, #8]
  usb_lld_start_in(usbp, ep);
  return false;
 800668c:	4628      	mov	r0, r5
}
 800668e:	bc30      	pop	{r4, r5}
 8006690:	600a      	str	r2, [r1, #0]
 8006692:	4770      	bx	lr
 8006694:	f3af 8000 	nop.w
 8006698:	f3af 8000 	nop.w
 800669c:	f3af 8000 	nop.w

080066a0 <_usb_ep0out>:
 * @notapi
 */
void _usb_ep0out(USBDriver *usbp, usbep_t ep) {

  (void)ep;
  switch (usbp->ep0state) {
 80066a0:	f890 2064 	ldrb.w	r2, [r0, #100]	; 0x64
 * @param[in] usbp      pointer to the @p USBDriver object
 * @param[in] ep        endpoint number, always zero
 *
 * @notapi
 */
void _usb_ep0out(USBDriver *usbp, usbep_t ep) {
 80066a4:	b538      	push	{r3, r4, r5, lr}
 80066a6:	2a06      	cmp	r2, #6
 80066a8:	d80a      	bhi.n	80066c0 <_usb_ep0out+0x20>
 80066aa:	2301      	movs	r3, #1
 80066ac:	4093      	lsls	r3, r2
 80066ae:	f013 0f67 	tst.w	r3, #103	; 0x67
 80066b2:	4604      	mov	r4, r0
 80066b4:	d111      	bne.n	80066da <_usb_ep0out+0x3a>
 80066b6:	f013 0508 	ands.w	r5, r3, #8
 80066ba:	d102      	bne.n	80066c2 <_usb_ep0out+0x22>
 80066bc:	06db      	lsls	r3, r3, #27
 80066be:	d42e      	bmi.n	800671e <_usb_ep0out+0x7e>
 80066c0:	bd38      	pop	{r3, r4, r5, pc}
    return;
  case USB_EP0_WAITING_STS:
    /* Status packet received, it must be zero sized, invoking the callback
       if defined.*/
#if (USB_EP0_STATUS_STAGE == USB_EP0_STATUS_STAGE_SW)
    if (usbGetReceiveTransactionSizeI(usbp, 0) != 0U) {
 80066c2:	68c3      	ldr	r3, [r0, #12]
 80066c4:	699b      	ldr	r3, [r3, #24]
 80066c6:	689b      	ldr	r3, [r3, #8]
 80066c8:	2b00      	cmp	r3, #0
 80066ca:	d1f9      	bne.n	80066c0 <_usb_ep0out+0x20>
      break;
    }
#endif
    if (usbp->ep0endcb != NULL) {
 80066cc:	6f03      	ldr	r3, [r0, #112]	; 0x70
 80066ce:	b103      	cbz	r3, 80066d2 <_usb_ep0out+0x32>
      usbp->ep0endcb(usbp);
 80066d0:	4798      	blx	r3
    }
    usbp->ep0state = USB_EP0_WAITING_SETUP;
 80066d2:	2300      	movs	r3, #0
 80066d4:	f884 3064 	strb.w	r3, [r4, #100]	; 0x64
 80066d8:	bd38      	pop	{r3, r4, r5, pc}
 */
void usb_lld_stall_in(USBDriver *usbp, usbep_t ep) {

  (void)usbp;

  EPR_SET_STAT_TX(ep, EPR_STAT_TX_STALL);
 80066da:	4a1c      	ldr	r2, [pc, #112]	; (800674c <_usb_ep0out+0xac>)
    /* Error response, the state machine goes into an error state, the low
       level layer will have to reset it to USB_EP0_WAITING_SETUP after
       receiving a SETUP packet.*/
    usb_lld_stall_in(usbp, 0);
    usb_lld_stall_out(usbp, 0);
    _usb_isr_invoke_event_cb(usbp, USB_EVENT_STALLED);
 80066dc:	6841      	ldr	r1, [r0, #4]
 80066de:	6813      	ldr	r3, [r2, #0]
 80066e0:	680d      	ldr	r5, [r1, #0]
 80066e2:	f423 43f0 	bic.w	r3, r3, #30720	; 0x7800
 80066e6:	f023 0340 	bic.w	r3, r3, #64	; 0x40
 80066ea:	f083 0310 	eor.w	r3, r3, #16
 80066ee:	f443 4300 	orr.w	r3, r3, #32768	; 0x8000
 80066f2:	f043 0380 	orr.w	r3, r3, #128	; 0x80
 80066f6:	6013      	str	r3, [r2, #0]
 */
void usb_lld_stall_out(USBDriver *usbp, usbep_t ep) {

  (void)usbp;

  EPR_SET_STAT_RX(ep, EPR_STAT_RX_STALL);
 80066f8:	6813      	ldr	r3, [r2, #0]
 80066fa:	f423 4390 	bic.w	r3, r3, #18432	; 0x4800
 80066fe:	f023 0370 	bic.w	r3, r3, #112	; 0x70
 8006702:	f483 5380 	eor.w	r3, r3, #4096	; 0x1000
 8006706:	f443 4300 	orr.w	r3, r3, #32768	; 0x8000
 800670a:	f043 0380 	orr.w	r3, r3, #128	; 0x80
 800670e:	6013      	str	r3, [r2, #0]
 8006710:	b10d      	cbz	r5, 8006716 <_usb_ep0out+0x76>
 8006712:	2105      	movs	r1, #5
 8006714:	47a8      	blx	r5
    usbp->ep0state = USB_EP0_ERROR;
 8006716:	2306      	movs	r3, #6
 8006718:	f884 3064 	strb.w	r3, [r4, #100]	; 0x64
 800671c:	bd38      	pop	{r3, r4, r5, pc}
 *
 * @special
 */
void usbPrepareTransmit(USBDriver *usbp, usbep_t ep,
                        const uint8_t *buf, size_t n) {
  USBInEndpointState *isp = usbp->epc[ep]->in_state;
 800671e:	68c3      	ldr	r3, [r0, #12]

  (void)ep;
  switch (usbp->ep0state) {
  case USB_EP0_RX:
    /* Receive phase over, sending the zero sized status packet.*/
    usbp->ep0state = USB_EP0_SENDING_STS;
 8006720:	2205      	movs	r2, #5
 *
 * @special
 */
void usbPrepareTransmit(USBDriver *usbp, usbep_t ep,
                        const uint8_t *buf, size_t n) {
  USBInEndpointState *isp = usbp->epc[ep]->in_state;
 8006722:	695b      	ldr	r3, [r3, #20]
  isp->txqueued           = false;
  isp->mode.linear.txbuf  = buf;
  isp->txsize             = n;
  isp->txcnt              = 0;

  usb_lld_prepare_transmit(usbp, ep);
 8006724:	4629      	mov	r1, r5

  (void)ep;
  switch (usbp->ep0state) {
  case USB_EP0_RX:
    /* Receive phase over, sending the zero sized status packet.*/
    usbp->ep0state = USB_EP0_SENDING_STS;
 8006726:	f880 2064 	strb.w	r2, [r0, #100]	; 0x64
 */
void usbPrepareTransmit(USBDriver *usbp, usbep_t ep,
                        const uint8_t *buf, size_t n) {
  USBInEndpointState *isp = usbp->epc[ep]->in_state;

  isp->txqueued           = false;
 800672a:	701d      	strb	r5, [r3, #0]
  isp->mode.linear.txbuf  = buf;
 800672c:	60dd      	str	r5, [r3, #12]
  isp->txsize             = n;
 800672e:	605d      	str	r5, [r3, #4]
  isp->txcnt              = 0;
 8006730:	609d      	str	r5, [r3, #8]

  usb_lld_prepare_transmit(usbp, ep);
 8006732:	f001 f9d5 	bl	8007ae0 <usb_lld_prepare_transmit>
 8006736:	2320      	movs	r3, #32
 8006738:	f383 8811 	msr	BASEPRI, r3
    /* Receive phase over, sending the zero sized status packet.*/
    usbp->ep0state = USB_EP0_SENDING_STS;
#if (USB_EP0_STATUS_STAGE == USB_EP0_STATUS_STAGE_SW)
    usbPrepareTransmit(usbp, 0, NULL, 0);
    osalSysLockFromISR();
    (void) usbStartTransmitI(usbp, 0);
 800673c:	4620      	mov	r0, r4
 800673e:	4629      	mov	r1, r5
 8006740:	f7ff ff86 	bl	8006650 <usbStartTransmitI>
 8006744:	f385 8811 	msr	BASEPRI, r5
 8006748:	bd38      	pop	{r3, r4, r5, pc}
 800674a:	bf00      	nop
 800674c:	40005c00 	.word	0x40005c00

08006750 <_usb_ep0in>:
 * @param[in] usbp      pointer to the @p USBDriver object
 * @param[in] ep        endpoint number, always zero
 *
 * @notapi
 */
void _usb_ep0in(USBDriver *usbp, usbep_t ep) {
 8006750:	b538      	push	{r3, r4, r5, lr}
  size_t max;

  (void)ep;
  switch (usbp->ep0state) {
 8006752:	f890 3064 	ldrb.w	r3, [r0, #100]	; 0x64
 * @param[in] usbp      pointer to the @p USBDriver object
 * @param[in] ep        endpoint number, always zero
 *
 * @notapi
 */
void _usb_ep0in(USBDriver *usbp, usbep_t ep) {
 8006756:	4604      	mov	r4, r0
  size_t max;

  (void)ep;
  switch (usbp->ep0state) {
 8006758:	2b06      	cmp	r3, #6
 800675a:	d826      	bhi.n	80067aa <_usb_ep0in+0x5a>
 800675c:	e8df f003 	tbb	[pc, r3]
 8006760:	042d4304 	.word	0x042d4304
 8006764:	2604      	.short	0x2604
 8006766:	04          	.byte	0x04
 8006767:	00          	.byte	0x00
 */
void usb_lld_stall_in(USBDriver *usbp, usbep_t ep) {

  (void)usbp;

  EPR_SET_STAT_TX(ep, EPR_STAT_TX_STALL);
 8006768:	4a32      	ldr	r2, [pc, #200]	; (8006834 <_usb_ep0in+0xe4>)
    /* Error response, the state machine goes into an error state, the low
       level layer will have to reset it to USB_EP0_WAITING_SETUP after
       receiving a SETUP packet.*/
    usb_lld_stall_in(usbp, 0);
    usb_lld_stall_out(usbp, 0);
    _usb_isr_invoke_event_cb(usbp, USB_EVENT_STALLED);
 800676a:	6841      	ldr	r1, [r0, #4]
 800676c:	6813      	ldr	r3, [r2, #0]
 800676e:	680d      	ldr	r5, [r1, #0]
 8006770:	f423 43f0 	bic.w	r3, r3, #30720	; 0x7800
 8006774:	f023 0340 	bic.w	r3, r3, #64	; 0x40
 8006778:	f083 0310 	eor.w	r3, r3, #16
 800677c:	f443 4300 	orr.w	r3, r3, #32768	; 0x8000
 8006780:	f043 0380 	orr.w	r3, r3, #128	; 0x80
 8006784:	6013      	str	r3, [r2, #0]
 */
void usb_lld_stall_out(USBDriver *usbp, usbep_t ep) {

  (void)usbp;

  EPR_SET_STAT_RX(ep, EPR_STAT_RX_STALL);
 8006786:	6813      	ldr	r3, [r2, #0]
 8006788:	f423 4390 	bic.w	r3, r3, #18432	; 0x4800
 800678c:	f023 0370 	bic.w	r3, r3, #112	; 0x70
 8006790:	f483 5380 	eor.w	r3, r3, #4096	; 0x1000
 8006794:	f443 4300 	orr.w	r3, r3, #32768	; 0x8000
 8006798:	f043 0380 	orr.w	r3, r3, #128	; 0x80
 800679c:	6013      	str	r3, [r2, #0]
 800679e:	b10d      	cbz	r5, 80067a4 <_usb_ep0in+0x54>
 80067a0:	2105      	movs	r1, #5
 80067a2:	47a8      	blx	r5
    usbp->ep0state = USB_EP0_ERROR;
 80067a4:	2306      	movs	r3, #6
 80067a6:	f884 3064 	strb.w	r3, [r4, #100]	; 0x64
 80067aa:	bd38      	pop	{r3, r4, r5, pc}
    usb_lld_end_setup(usbp, ep);
#endif
    return;
  case USB_EP0_SENDING_STS:
    /* Status packet sent, invoking the callback if defined.*/
    if (usbp->ep0endcb != NULL) {
 80067ac:	6f03      	ldr	r3, [r0, #112]	; 0x70
 80067ae:	b103      	cbz	r3, 80067b2 <_usb_ep0in+0x62>
      usbp->ep0endcb(usbp);
 80067b0:	4798      	blx	r3
    }
    usbp->ep0state = USB_EP0_WAITING_SETUP;
 80067b2:	2300      	movs	r3, #0
 80067b4:	f884 3064 	strb.w	r3, [r4, #100]	; 0x64
 80067b8:	bd38      	pop	{r3, r4, r5, pc}
 80067ba:	68c3      	ldr	r3, [r0, #12]
 * @param[in] n         transaction size
 *
 * @special
 */
void usbPrepareReceive(USBDriver *usbp, usbep_t ep, uint8_t *buf, size_t n) {
  USBOutEndpointState *osp = usbp->epc[ep]->out_state;
 80067bc:	699b      	ldr	r3, [r3, #24]

  osp->rxqueued           = false;
 80067be:	2500      	movs	r5, #0
      return;
    }
    /* Falls into, it is intentional.*/
  case USB_EP0_WAITING_TX0:
    /* Transmit phase over, receiving the zero sized status packet.*/
    usbp->ep0state = USB_EP0_WAITING_STS;
 80067c0:	2203      	movs	r2, #3
 80067c2:	f884 2064 	strb.w	r2, [r4, #100]	; 0x64
  osp->rxqueued           = false;
  osp->mode.linear.rxbuf  = buf;
  osp->rxsize             = n;
  osp->rxcnt              = 0;

  usb_lld_prepare_receive(usbp, ep);
 80067c6:	4620      	mov	r0, r4
 * @special
 */
void usbPrepareReceive(USBDriver *usbp, usbep_t ep, uint8_t *buf, size_t n) {
  USBOutEndpointState *osp = usbp->epc[ep]->out_state;

  osp->rxqueued           = false;
 80067c8:	701d      	strb	r5, [r3, #0]
  osp->mode.linear.rxbuf  = buf;
 80067ca:	60dd      	str	r5, [r3, #12]
  osp->rxsize             = n;
 80067cc:	605d      	str	r5, [r3, #4]
  osp->rxcnt              = 0;
 80067ce:	609d      	str	r5, [r3, #8]

  usb_lld_prepare_receive(usbp, ep);
 80067d0:	f001 fece 	bl	8008570 <usb_lld_prepare_receive.constprop.7>
 80067d4:	2320      	movs	r3, #32
 80067d6:	f383 8811 	msr	BASEPRI, r3
    /* Transmit phase over, receiving the zero sized status packet.*/
    usbp->ep0state = USB_EP0_WAITING_STS;
#if (USB_EP0_STATUS_STAGE == USB_EP0_STATUS_STAGE_SW)
    usbPrepareReceive(usbp, 0, NULL, 0);
    osalSysLockFromISR();
    (void) usbStartReceiveI(usbp, 0);
 80067da:	4620      	mov	r0, r4
 80067dc:	f001 fea8 	bl	8008530 <usbStartReceiveI.constprop.10>
 80067e0:	f385 8811 	msr	BASEPRI, r5
 80067e4:	bd38      	pop	{r3, r4, r5, pc}

static uint16_t get_hword(uint8_t *p) {
  uint16_t hw;

  hw  = (uint16_t)*p++;
  hw |= (uint16_t)*p << 8U;
 80067e6:	f890 207b 	ldrb.w	r2, [r0, #123]	; 0x7b
 80067ea:	f890 307a 	ldrb.w	r3, [r0, #122]	; 0x7a
  case USB_EP0_TX:
    max = (size_t)get_hword(&usbp->setup[6]);
    /* If the transmitted size is less than the requested size and it is a
       multiple of the maximum packet size then a zero size packet must be
       transmitted.*/
    if ((usbp->ep0n < max) &&
 80067ee:	6ec1      	ldr	r1, [r0, #108]	; 0x6c
  size_t max;

  (void)ep;
  switch (usbp->ep0state) {
  case USB_EP0_TX:
    max = (size_t)get_hword(&usbp->setup[6]);
 80067f0:	ea43 2302 	orr.w	r3, r3, r2, lsl #8
    /* If the transmitted size is less than the requested size and it is a
       multiple of the maximum packet size then a zero size packet must be
       transmitted.*/
    if ((usbp->ep0n < max) &&
 80067f4:	428b      	cmp	r3, r1
        ((usbp->ep0n % usbp->epc[0]->in_maxsize) == 0U)) {
 80067f6:	68c3      	ldr	r3, [r0, #12]
  case USB_EP0_TX:
    max = (size_t)get_hword(&usbp->setup[6]);
    /* If the transmitted size is less than the requested size and it is a
       multiple of the maximum packet size then a zero size packet must be
       transmitted.*/
    if ((usbp->ep0n < max) &&
 80067f8:	d9e0      	bls.n	80067bc <_usb_ep0in+0x6c>
        ((usbp->ep0n % usbp->epc[0]->in_maxsize) == 0U)) {
 80067fa:	8a1d      	ldrh	r5, [r3, #16]
 80067fc:	fbb1 f2f5 	udiv	r2, r1, r5
 8006800:	fb05 1512 	mls	r5, r5, r2, r1
  case USB_EP0_TX:
    max = (size_t)get_hword(&usbp->setup[6]);
    /* If the transmitted size is less than the requested size and it is a
       multiple of the maximum packet size then a zero size packet must be
       transmitted.*/
    if ((usbp->ep0n < max) &&
 8006804:	2d00      	cmp	r5, #0
 8006806:	d1d9      	bne.n	80067bc <_usb_ep0in+0x6c>
 *
 * @special
 */
void usbPrepareTransmit(USBDriver *usbp, usbep_t ep,
                        const uint8_t *buf, size_t n) {
  USBInEndpointState *isp = usbp->epc[ep]->in_state;
 8006808:	695b      	ldr	r3, [r3, #20]
  isp->txqueued           = false;
  isp->mode.linear.txbuf  = buf;
  isp->txsize             = n;
  isp->txcnt              = 0;

  usb_lld_prepare_transmit(usbp, ep);
 800680a:	4629      	mov	r1, r5
 */
void usbPrepareTransmit(USBDriver *usbp, usbep_t ep,
                        const uint8_t *buf, size_t n) {
  USBInEndpointState *isp = usbp->epc[ep]->in_state;

  isp->txqueued           = false;
 800680c:	701d      	strb	r5, [r3, #0]
  isp->mode.linear.txbuf  = buf;
 800680e:	60dd      	str	r5, [r3, #12]
  isp->txsize             = n;
 8006810:	605d      	str	r5, [r3, #4]
  isp->txcnt              = 0;
 8006812:	609d      	str	r5, [r3, #8]

  usb_lld_prepare_transmit(usbp, ep);
 8006814:	f001 f964 	bl	8007ae0 <usb_lld_prepare_transmit>
 8006818:	2320      	movs	r3, #32
 800681a:	f383 8811 	msr	BASEPRI, r3
       transmitted.*/
    if ((usbp->ep0n < max) &&
        ((usbp->ep0n % usbp->epc[0]->in_maxsize) == 0U)) {
      usbPrepareTransmit(usbp, 0, NULL, 0);
      osalSysLockFromISR();
      (void) usbStartTransmitI(usbp, 0);
 800681e:	4620      	mov	r0, r4
 8006820:	4629      	mov	r1, r5
 8006822:	f7ff ff15 	bl	8006650 <usbStartTransmitI>
 8006826:	f385 8811 	msr	BASEPRI, r5
      osalSysUnlockFromISR();
      usbp->ep0state = USB_EP0_WAITING_TX0;
 800682a:	2302      	movs	r3, #2
 800682c:	f884 3064 	strb.w	r3, [r4, #100]	; 0x64
 8006830:	bd38      	pop	{r3, r4, r5, pc}
 8006832:	bf00      	nop
 8006834:	40005c00 	.word	0x40005c00
 8006838:	f3af 8000 	nop.w
 800683c:	f3af 8000 	nop.w

08006840 <_usb_ep0setup>:
 * @param[in] usbp      pointer to the @p USBDriver object
 * @param[in] ep        endpoint number, always zero
 *
 * @notapi
 */
void _usb_ep0setup(USBDriver *usbp, usbep_t ep) {
 8006840:	b5f8      	push	{r3, r4, r5, r6, r7, lr}
 8006842:	4604      	mov	r4, r0
  stm32_usb_pma_t *pmap;
  stm32_usb_descriptor_t *udp;
  uint32_t n;

  (void)usbp;
  udp = USB_GET_DESCRIPTOR(ep);
 8006844:	4bba      	ldr	r3, [pc, #744]	; (8006b30 <_usb_ep0setup+0x2f0>)
  size_t max;

  usbp->ep0state = USB_EP0_WAITING_SETUP;
 8006846:	2200      	movs	r2, #0
 8006848:	6d1b      	ldr	r3, [r3, #80]	; 0x50
 800684a:	f880 2064 	strb.w	r2, [r0, #100]	; 0x64
 800684e:	f103 5300 	add.w	r3, r3, #536870912	; 0x20000000
 8006852:	f503 5340 	add.w	r3, r3, #12288	; 0x3000
 8006856:	eb03 01c1 	add.w	r1, r3, r1, lsl #3
 800685a:	0049      	lsls	r1, r1, #1
  pmap = USB_ADDR2PTR(udp->RXADDR0);
 800685c:	688b      	ldr	r3, [r1, #8]
  usbReadSetup(usbp, ep, usbp->setup);
 800685e:	f100 0274 	add.w	r2, r0, #116	; 0x74
 8006862:	f103 5300 	add.w	r3, r3, #536870912	; 0x20000000
 8006866:	f503 5340 	add.w	r3, r3, #12288	; 0x3000
 800686a:	005b      	lsls	r3, r3, #1
 800686c:	f100 067c 	add.w	r6, r0, #124	; 0x7c
  for (n = 0; n < 4; n++) {
    *(uint16_t *)buf = (uint16_t)*pmap++;
 8006870:	f853 1b04 	ldr.w	r1, [r3], #4
 8006874:	f822 1b02 	strh.w	r1, [r2], #2
  uint32_t n;

  (void)usbp;
  udp = USB_GET_DESCRIPTOR(ep);
  pmap = USB_ADDR2PTR(udp->RXADDR0);
  for (n = 0; n < 4; n++) {
 8006878:	42b2      	cmp	r2, r6
 800687a:	d1f9      	bne.n	8006870 <_usb_ep0setup+0x30>

  /* First verify if the application has an handler installed for this
     request.*/
  /*lint -save -e9007 [13.5] No side effects, it is intentional.*/
  if ((usbp->config->requests_hook_cb == NULL) ||
 800687c:	6863      	ldr	r3, [r4, #4]
 800687e:	689b      	ldr	r3, [r3, #8]
 8006880:	b36b      	cbz	r3, 80068de <_usb_ep0setup+0x9e>
      !(usbp->config->requests_hook_cb(usbp))) {
 8006882:	4620      	mov	r0, r4
 8006884:	4798      	blx	r3
  usbReadSetup(usbp, ep, usbp->setup);

  /* First verify if the application has an handler installed for this
     request.*/
  /*lint -save -e9007 [13.5] No side effects, it is intentional.*/
  if ((usbp->config->requests_hook_cb == NULL) ||
 8006886:	b350      	cbz	r0, 80068de <_usb_ep0setup+0x9e>
 8006888:	6ee5      	ldr	r5, [r4, #108]	; 0x6c
 800688a:	f894 3074 	ldrb.w	r3, [r4, #116]	; 0x74

static uint16_t get_hword(uint8_t *p) {
  uint16_t hw;

  hw  = (uint16_t)*p++;
  hw |= (uint16_t)*p << 8U;
 800688e:	f894 107b 	ldrb.w	r1, [r4, #123]	; 0x7b
 8006892:	f894 207a 	ldrb.w	r2, [r4, #122]	; 0x7a
  }
#endif
  /* Transfer preparation. The request handler must have populated
     correctly the fields ep0next, ep0n and ep0endcb using the macro
     usbSetupTransfer().*/
  max = (size_t)get_hword(&usbp->setup[6]);
 8006896:	ea42 2201 	orr.w	r2, r2, r1, lsl #8
  /* The transfer size cannot exceed the specified amount.*/
  if (usbp->ep0n > max) {
 800689a:	42aa      	cmp	r2, r5
    usbp->ep0n = max;
 800689c:	bf3c      	itt	cc
 800689e:	4615      	movcc	r5, r2
 80068a0:	66e2      	strcc	r2, [r4, #108]	; 0x6c
  }
  if ((usbp->setup[0] & USB_RTYPE_DIR_MASK) == USB_RTYPE_DIR_DEV2HOST) {
 80068a2:	f013 0f80 	tst.w	r3, #128	; 0x80
 *
 * @special
 */
void usbPrepareTransmit(USBDriver *usbp, usbep_t ep,
                        const uint8_t *buf, size_t n) {
  USBInEndpointState *isp = usbp->epc[ep]->in_state;
 80068a6:	68e3      	ldr	r3, [r4, #12]
  max = (size_t)get_hword(&usbp->setup[6]);
  /* The transfer size cannot exceed the specified amount.*/
  if (usbp->ep0n > max) {
    usbp->ep0n = max;
  }
  if ((usbp->setup[0] & USB_RTYPE_DIR_MASK) == USB_RTYPE_DIR_DEV2HOST) {
 80068a8:	f040 80b0 	bne.w	8006a0c <_usb_ep0setup+0x1cc>
#endif
    }
  }
  else {
    /* OUT phase.*/
    if (usbp->ep0n != 0U) {
 80068ac:	2d00      	cmp	r5, #0
 80068ae:	f040 8097 	bne.w	80069e0 <_usb_ep0setup+0x1a0>
 *
 * @special
 */
void usbPrepareTransmit(USBDriver *usbp, usbep_t ep,
                        const uint8_t *buf, size_t n) {
  USBInEndpointState *isp = usbp->epc[ep]->in_state;
 80068b2:	695b      	ldr	r3, [r3, #20]
      osalSysUnlockFromISR();
    }
    else {
      /* No receive phase, directly sending the zero sized status
         packet.*/
      usbp->ep0state = USB_EP0_SENDING_STS;
 80068b4:	2205      	movs	r2, #5
 80068b6:	f884 2064 	strb.w	r2, [r4, #100]	; 0x64
  isp->txqueued           = false;
  isp->mode.linear.txbuf  = buf;
  isp->txsize             = n;
  isp->txcnt              = 0;

  usb_lld_prepare_transmit(usbp, ep);
 80068ba:	4620      	mov	r0, r4
 */
void usbPrepareTransmit(USBDriver *usbp, usbep_t ep,
                        const uint8_t *buf, size_t n) {
  USBInEndpointState *isp = usbp->epc[ep]->in_state;

  isp->txqueued           = false;
 80068bc:	701d      	strb	r5, [r3, #0]
  isp->mode.linear.txbuf  = buf;
 80068be:	60dd      	str	r5, [r3, #12]
  isp->txsize             = n;
 80068c0:	605d      	str	r5, [r3, #4]
  isp->txcnt              = 0;
 80068c2:	609d      	str	r5, [r3, #8]

  usb_lld_prepare_transmit(usbp, ep);
 80068c4:	4629      	mov	r1, r5
 80068c6:	f001 f90b 	bl	8007ae0 <usb_lld_prepare_transmit>
 80068ca:	2320      	movs	r3, #32
 80068cc:	f383 8811 	msr	BASEPRI, r3
         packet.*/
      usbp->ep0state = USB_EP0_SENDING_STS;
#if (USB_EP0_STATUS_STAGE == USB_EP0_STATUS_STAGE_SW)
      usbPrepareTransmit(usbp, 0, NULL, 0);
      osalSysLockFromISR();
      (void) usbStartTransmitI(usbp, 0);
 80068d0:	4620      	mov	r0, r4
 80068d2:	4629      	mov	r1, r5
 80068d4:	f7ff febc 	bl	8006650 <usbStartTransmitI>
 80068d8:	f385 8811 	msr	BASEPRI, r5
 80068dc:	bdf8      	pop	{r3, r4, r5, r6, r7, pc}
      !(usbp->config->requests_hook_cb(usbp))) {
  /*lint -restore*/
    /* Invoking the default handler, if this fails then stalls the
       endpoint zero as error.*/
    /*lint -save -e9007 [13.5] No side effects, it is intentional.*/
    if (((usbp->setup[0] & USB_RTYPE_TYPE_MASK) != USB_RTYPE_TYPE_STD) ||
 80068de:	f894 3074 	ldrb.w	r3, [r4, #116]	; 0x74
 80068e2:	f013 0760 	ands.w	r7, r3, #96	; 0x60
 80068e6:	d022      	beq.n	800692e <_usb_ep0setup+0xee>
 */
void usb_lld_stall_in(USBDriver *usbp, usbep_t ep) {

  (void)usbp;

  EPR_SET_STAT_TX(ep, EPR_STAT_TX_STALL);
 80068e8:	4a91      	ldr	r2, [pc, #580]	; (8006b30 <_usb_ep0setup+0x2f0>)
      /* Error response, the state machine goes into an error state, the low
         level layer will have to reset it to USB_EP0_WAITING_SETUP after
         receiving a SETUP packet.*/
      usb_lld_stall_in(usbp, 0);
      usb_lld_stall_out(usbp, 0);
      _usb_isr_invoke_event_cb(usbp, USB_EVENT_STALLED);
 80068ea:	6861      	ldr	r1, [r4, #4]
 80068ec:	6813      	ldr	r3, [r2, #0]
 80068ee:	680d      	ldr	r5, [r1, #0]
 80068f0:	f423 43f0 	bic.w	r3, r3, #30720	; 0x7800
 80068f4:	f023 0340 	bic.w	r3, r3, #64	; 0x40
 80068f8:	f083 0310 	eor.w	r3, r3, #16
 80068fc:	f443 4300 	orr.w	r3, r3, #32768	; 0x8000
 8006900:	f043 0380 	orr.w	r3, r3, #128	; 0x80
 8006904:	6013      	str	r3, [r2, #0]
 */
void usb_lld_stall_out(USBDriver *usbp, usbep_t ep) {

  (void)usbp;

  EPR_SET_STAT_RX(ep, EPR_STAT_RX_STALL);
 8006906:	6813      	ldr	r3, [r2, #0]
 8006908:	f423 4390 	bic.w	r3, r3, #18432	; 0x4800
 800690c:	f023 0370 	bic.w	r3, r3, #112	; 0x70
 8006910:	f483 5380 	eor.w	r3, r3, #4096	; 0x1000
 8006914:	f443 4300 	orr.w	r3, r3, #32768	; 0x8000
 8006918:	f043 0380 	orr.w	r3, r3, #128	; 0x80
 800691c:	6013      	str	r3, [r2, #0]
 800691e:	b115      	cbz	r5, 8006926 <_usb_ep0setup+0xe6>
 8006920:	4620      	mov	r0, r4
 8006922:	2105      	movs	r1, #5
 8006924:	47a8      	blx	r5
      usbp->ep0state = USB_EP0_ERROR;
 8006926:	2306      	movs	r3, #6
 8006928:	f884 3064 	strb.w	r3, [r4, #100]	; 0x64
 800692c:	bdf8      	pop	{r3, r4, r5, r6, r7, pc}
  const USBDescriptor *dp;

  /* Decoding the request.*/
  switch ((((uint32_t)usbp->setup[0] & (USB_RTYPE_RECIPIENT_MASK |
                                        USB_RTYPE_TYPE_MASK)) |
           ((uint32_t)usbp->setup[1] << 8U))) {
 800692e:	f894 5075 	ldrb.w	r5, [r4, #117]	; 0x75
 */
static bool default_handler(USBDriver *usbp) {
  const USBDescriptor *dp;

  /* Decoding the request.*/
  switch ((((uint32_t)usbp->setup[0] & (USB_RTYPE_RECIPIENT_MASK |
 8006932:	f003 027f 	and.w	r2, r3, #127	; 0x7f
                                        USB_RTYPE_TYPE_MASK)) |
 8006936:	ea42 2505 	orr.w	r5, r2, r5, lsl #8
 */
static bool default_handler(USBDriver *usbp) {
  const USBDescriptor *dp;

  /* Decoding the request.*/
  switch ((((uint32_t)usbp->setup[0] & (USB_RTYPE_RECIPIENT_MASK |
 800693a:	f5b5 7f40 	cmp.w	r5, #768	; 0x300
 800693e:	f000 8116 	beq.w	8006b6e <_usb_ep0setup+0x32e>
 8006942:	d918      	bls.n	8006976 <_usb_ep0setup+0x136>
 8006944:	f5b5 6fc0 	cmp.w	r5, #1536	; 0x600
 8006948:	f000 80f8 	beq.w	8006b3c <_usb_ep0setup+0x2fc>
 800694c:	f240 808b 	bls.w	8006a66 <_usb_ep0setup+0x226>
 8006950:	f5b5 6f10 	cmp.w	r5, #2304	; 0x900
 8006954:	f000 8095 	beq.w	8006a82 <_usb_ep0setup+0x242>
 8006958:	f640 4202 	movw	r2, #3074	; 0xc02
 800695c:	4295      	cmp	r5, r2
 800695e:	f000 80df 	beq.w	8006b20 <_usb_ep0setup+0x2e0>
 8006962:	f5b5 6f00 	cmp.w	r5, #2048	; 0x800
 8006966:	d1bf      	bne.n	80068e8 <_usb_ep0setup+0xa8>
    usbSetupTransfer(usbp, (uint8_t *)dp->ud_string, dp->ud_size, NULL);
    /*lint -restore*/
    return true;
  case (uint32_t)USB_RTYPE_RECIPIENT_DEVICE | ((uint32_t)USB_REQ_GET_CONFIGURATION << 8):
    /* Returning the last selected configuration.*/
    usbSetupTransfer(usbp, &usbp->configuration, 1, NULL);
 8006968:	f104 027f 	add.w	r2, r4, #127	; 0x7f
 800696c:	2501      	movs	r5, #1
 800696e:	6727      	str	r7, [r4, #112]	; 0x70
 8006970:	66a2      	str	r2, [r4, #104]	; 0x68
 8006972:	66e5      	str	r5, [r4, #108]	; 0x6c
 8006974:	e78b      	b.n	800688e <_usb_ep0setup+0x4e>
 */
static bool default_handler(USBDriver *usbp) {
  const USBDescriptor *dp;

  /* Decoding the request.*/
  switch ((((uint32_t)usbp->setup[0] & (USB_RTYPE_RECIPIENT_MASK |
 8006976:	2d02      	cmp	r5, #2
 8006978:	f000 8109 	beq.w	8006b8e <_usb_ep0setup+0x34e>
 800697c:	f240 80c6 	bls.w	8006b0c <_usb_ep0setup+0x2cc>
 8006980:	f5b5 7f80 	cmp.w	r5, #256	; 0x100
 8006984:	f000 8090 	beq.w	8006aa8 <_usb_ep0setup+0x268>
 8006988:	f5b5 7f81 	cmp.w	r5, #258	; 0x102
 800698c:	d1ac      	bne.n	80068e8 <_usb_ep0setup+0xa8>
        return false;
      }
    }
  case (uint32_t)USB_RTYPE_RECIPIENT_ENDPOINT | ((uint32_t)USB_REQ_CLEAR_FEATURE << 8):
    /* Only ENDPOINT_HALT is handled as feature.*/
    if (usbp->setup[2] != USB_FEATURE_ENDPOINT_HALT) {
 800698e:	f894 2076 	ldrb.w	r2, [r4, #118]	; 0x76
 8006992:	2a00      	cmp	r2, #0
 8006994:	d1a8      	bne.n	80068e8 <_usb_ep0setup+0xa8>
      return false;
    }
    /* Clearing the EP status, not valid for EP0, it is ignored in that case.*/
    if ((usbp->setup[4] & 0x0FU) != 0U) {
 8006996:	f894 1078 	ldrb.w	r1, [r4, #120]	; 0x78
 800699a:	f011 020f 	ands.w	r2, r1, #15
 800699e:	d01a      	beq.n	80069d6 <_usb_ep0setup+0x196>
 80069a0:	0092      	lsls	r2, r2, #2
 80069a2:	f102 4280 	add.w	r2, r2, #1073741824	; 0x40000000
 80069a6:	f502 42b8 	add.w	r2, r2, #23552	; 0x5c00
      if ((usbp->setup[4] & 0x80U) != 0U) {
 80069aa:	f011 0f80 	tst.w	r1, #128	; 0x80

  (void)usbp;

  /* Makes sure to not put to NAK an endpoint that is already
     transferring.*/
  if ((STM32_USB->EPR[ep] & EPR_STAT_TX_MASK) != EPR_STAT_TX_VALID)
 80069ae:	6811      	ldr	r1, [r2, #0]
 80069b0:	f040 8111 	bne.w	8006bd6 <_usb_ep0setup+0x396>

  (void)usbp;

  /* Makes sure to not put to NAK an endpoint that is already
     transferring.*/
  if ((STM32_USB->EPR[ep] & EPR_STAT_RX_MASK) != EPR_STAT_RX_VALID)
 80069b4:	f401 5140 	and.w	r1, r1, #12288	; 0x3000
 80069b8:	f5b1 5f40 	cmp.w	r1, #12288	; 0x3000
 80069bc:	d00b      	beq.n	80069d6 <_usb_ep0setup+0x196>
    EPR_SET_STAT_TX(ep, EPR_STAT_RX_NAK);
 80069be:	6813      	ldr	r3, [r2, #0]
 80069c0:	f423 43f0 	bic.w	r3, r3, #30720	; 0x7800
 80069c4:	f023 0340 	bic.w	r3, r3, #64	; 0x40
 80069c8:	f443 4320 	orr.w	r3, r3, #40960	; 0xa000
 80069cc:	f043 0380 	orr.w	r3, r3, #128	; 0x80
 80069d0:	6013      	str	r3, [r2, #0]
 80069d2:	f894 3074 	ldrb.w	r3, [r4, #116]	; 0x74
      }
      else {
        usb_lld_stall_out(usbp, usbp->setup[4] & 0x0FU);
      }
    }
    usbSetupTransfer(usbp, NULL, 0, NULL);
 80069d6:	2500      	movs	r5, #0
 80069d8:	66a5      	str	r5, [r4, #104]	; 0x68
 80069da:	66e5      	str	r5, [r4, #108]	; 0x6c
 80069dc:	6725      	str	r5, [r4, #112]	; 0x70
 80069de:	e756      	b.n	800688e <_usb_ep0setup+0x4e>
 * @param[in] n         transaction size
 *
 * @special
 */
void usbPrepareReceive(USBDriver *usbp, usbep_t ep, uint8_t *buf, size_t n) {
  USBOutEndpointState *osp = usbp->epc[ep]->out_state;
 80069e0:	699b      	ldr	r3, [r3, #24]
  else {
    /* OUT phase.*/
    if (usbp->ep0n != 0U) {
      /* Starts the receive phase.*/
      usbp->ep0state = USB_EP0_RX;
      usbPrepareReceive(usbp, 0, usbp->ep0next, usbp->ep0n);
 80069e2:	6ea2      	ldr	r2, [r4, #104]	; 0x68
  }
  else {
    /* OUT phase.*/
    if (usbp->ep0n != 0U) {
      /* Starts the receive phase.*/
      usbp->ep0state = USB_EP0_RX;
 80069e4:	2104      	movs	r1, #4
 * @special
 */
void usbPrepareReceive(USBDriver *usbp, usbep_t ep, uint8_t *buf, size_t n) {
  USBOutEndpointState *osp = usbp->epc[ep]->out_state;

  osp->rxqueued           = false;
 80069e6:	2600      	movs	r6, #0
  }
  else {
    /* OUT phase.*/
    if (usbp->ep0n != 0U) {
      /* Starts the receive phase.*/
      usbp->ep0state = USB_EP0_RX;
 80069e8:	f884 1064 	strb.w	r1, [r4, #100]	; 0x64
  osp->rxqueued           = false;
  osp->mode.linear.rxbuf  = buf;
  osp->rxsize             = n;
  osp->rxcnt              = 0;

  usb_lld_prepare_receive(usbp, ep);
 80069ec:	4620      	mov	r0, r4
 */
void usbPrepareReceive(USBDriver *usbp, usbep_t ep, uint8_t *buf, size_t n) {
  USBOutEndpointState *osp = usbp->epc[ep]->out_state;

  osp->rxqueued           = false;
  osp->mode.linear.rxbuf  = buf;
 80069ee:	60da      	str	r2, [r3, #12]
  osp->rxsize             = n;
 80069f0:	605d      	str	r5, [r3, #4]
 * @special
 */
void usbPrepareReceive(USBDriver *usbp, usbep_t ep, uint8_t *buf, size_t n) {
  USBOutEndpointState *osp = usbp->epc[ep]->out_state;

  osp->rxqueued           = false;
 80069f2:	701e      	strb	r6, [r3, #0]
  osp->mode.linear.rxbuf  = buf;
  osp->rxsize             = n;
  osp->rxcnt              = 0;
 80069f4:	609e      	str	r6, [r3, #8]

  usb_lld_prepare_receive(usbp, ep);
 80069f6:	f001 fdbb 	bl	8008570 <usb_lld_prepare_receive.constprop.7>
 80069fa:	2320      	movs	r3, #32
 80069fc:	f383 8811 	msr	BASEPRI, r3
    if (usbp->ep0n != 0U) {
      /* Starts the receive phase.*/
      usbp->ep0state = USB_EP0_RX;
      usbPrepareReceive(usbp, 0, usbp->ep0next, usbp->ep0n);
      osalSysLockFromISR();
      (void) usbStartReceiveI(usbp, 0);
 8006a00:	4620      	mov	r0, r4
 8006a02:	f001 fd95 	bl	8008530 <usbStartReceiveI.constprop.10>
 8006a06:	f386 8811 	msr	BASEPRI, r6
 8006a0a:	bdf8      	pop	{r3, r4, r5, r6, r7, pc}
  if (usbp->ep0n > max) {
    usbp->ep0n = max;
  }
  if ((usbp->setup[0] & USB_RTYPE_DIR_MASK) == USB_RTYPE_DIR_DEV2HOST) {
    /* IN phase.*/
    if (usbp->ep0n != 0U) {
 8006a0c:	b1bd      	cbz	r5, 8006a3e <_usb_ep0setup+0x1fe>
 *
 * @special
 */
void usbPrepareTransmit(USBDriver *usbp, usbep_t ep,
                        const uint8_t *buf, size_t n) {
  USBInEndpointState *isp = usbp->epc[ep]->in_state;
 8006a0e:	695b      	ldr	r3, [r3, #20]
  if ((usbp->setup[0] & USB_RTYPE_DIR_MASK) == USB_RTYPE_DIR_DEV2HOST) {
    /* IN phase.*/
    if (usbp->ep0n != 0U) {
      /* Starts the transmit phase.*/
      usbp->ep0state = USB_EP0_TX;
      usbPrepareTransmit(usbp, 0, usbp->ep0next, usbp->ep0n);
 8006a10:	6ea2      	ldr	r2, [r4, #104]	; 0x68
 */
void usbPrepareTransmit(USBDriver *usbp, usbep_t ep,
                        const uint8_t *buf, size_t n) {
  USBInEndpointState *isp = usbp->epc[ep]->in_state;

  isp->txqueued           = false;
 8006a12:	2600      	movs	r6, #0
  }
  if ((usbp->setup[0] & USB_RTYPE_DIR_MASK) == USB_RTYPE_DIR_DEV2HOST) {
    /* IN phase.*/
    if (usbp->ep0n != 0U) {
      /* Starts the transmit phase.*/
      usbp->ep0state = USB_EP0_TX;
 8006a14:	2101      	movs	r1, #1
 8006a16:	f884 1064 	strb.w	r1, [r4, #100]	; 0x64
  isp->txqueued           = false;
  isp->mode.linear.txbuf  = buf;
  isp->txsize             = n;
  isp->txcnt              = 0;

  usb_lld_prepare_transmit(usbp, ep);
 8006a1a:	4620      	mov	r0, r4
void usbPrepareTransmit(USBDriver *usbp, usbep_t ep,
                        const uint8_t *buf, size_t n) {
  USBInEndpointState *isp = usbp->epc[ep]->in_state;

  isp->txqueued           = false;
  isp->mode.linear.txbuf  = buf;
 8006a1c:	60da      	str	r2, [r3, #12]
  isp->txsize             = n;
 8006a1e:	605d      	str	r5, [r3, #4]
 */
void usbPrepareTransmit(USBDriver *usbp, usbep_t ep,
                        const uint8_t *buf, size_t n) {
  USBInEndpointState *isp = usbp->epc[ep]->in_state;

  isp->txqueued           = false;
 8006a20:	701e      	strb	r6, [r3, #0]
  isp->mode.linear.txbuf  = buf;
  isp->txsize             = n;
  isp->txcnt              = 0;
 8006a22:	609e      	str	r6, [r3, #8]

  usb_lld_prepare_transmit(usbp, ep);
 8006a24:	4631      	mov	r1, r6
 8006a26:	f001 f85b 	bl	8007ae0 <usb_lld_prepare_transmit>
 8006a2a:	2320      	movs	r3, #32
 8006a2c:	f383 8811 	msr	BASEPRI, r3
    if (usbp->ep0n != 0U) {
      /* Starts the transmit phase.*/
      usbp->ep0state = USB_EP0_TX;
      usbPrepareTransmit(usbp, 0, usbp->ep0next, usbp->ep0n);
      osalSysLockFromISR();
      (void) usbStartTransmitI(usbp, 0);
 8006a30:	4620      	mov	r0, r4
 8006a32:	4631      	mov	r1, r6
 8006a34:	f7ff fe0c 	bl	8006650 <usbStartTransmitI>
 8006a38:	f386 8811 	msr	BASEPRI, r6
 8006a3c:	bdf8      	pop	{r3, r4, r5, r6, r7, pc}
 * @param[in] n         transaction size
 *
 * @special
 */
void usbPrepareReceive(USBDriver *usbp, usbep_t ep, uint8_t *buf, size_t n) {
  USBOutEndpointState *osp = usbp->epc[ep]->out_state;
 8006a3e:	699b      	ldr	r3, [r3, #24]
      osalSysUnlockFromISR();
    }
    else {
      /* No transmission phase, directly receiving the zero sized status
         packet.*/
      usbp->ep0state = USB_EP0_WAITING_STS;
 8006a40:	2203      	movs	r2, #3
 8006a42:	f884 2064 	strb.w	r2, [r4, #100]	; 0x64
  osp->rxqueued           = false;
  osp->mode.linear.rxbuf  = buf;
  osp->rxsize             = n;
  osp->rxcnt              = 0;

  usb_lld_prepare_receive(usbp, ep);
 8006a46:	4620      	mov	r0, r4
 * @special
 */
void usbPrepareReceive(USBDriver *usbp, usbep_t ep, uint8_t *buf, size_t n) {
  USBOutEndpointState *osp = usbp->epc[ep]->out_state;

  osp->rxqueued           = false;
 8006a48:	701d      	strb	r5, [r3, #0]
  osp->mode.linear.rxbuf  = buf;
 8006a4a:	60dd      	str	r5, [r3, #12]
  osp->rxsize             = n;
 8006a4c:	605d      	str	r5, [r3, #4]
  osp->rxcnt              = 0;
 8006a4e:	609d      	str	r5, [r3, #8]

  usb_lld_prepare_receive(usbp, ep);
 8006a50:	f001 fd8e 	bl	8008570 <usb_lld_prepare_receive.constprop.7>
 8006a54:	2320      	movs	r3, #32
 8006a56:	f383 8811 	msr	BASEPRI, r3
         packet.*/
      usbp->ep0state = USB_EP0_WAITING_STS;
#if (USB_EP0_STATUS_STAGE == USB_EP0_STATUS_STAGE_SW)
      usbPrepareReceive(usbp, 0, NULL, 0);
      osalSysLockFromISR();
      (void) usbStartReceiveI(usbp, 0);
 8006a5a:	4620      	mov	r0, r4
 8006a5c:	f001 fd68 	bl	8008530 <usbStartReceiveI.constprop.10>
 8006a60:	f385 8811 	msr	BASEPRI, r5
 8006a64:	bdf8      	pop	{r3, r4, r5, r6, r7, pc}
 */
static bool default_handler(USBDriver *usbp) {
  const USBDescriptor *dp;

  /* Decoding the request.*/
  switch ((((uint32_t)usbp->setup[0] & (USB_RTYPE_RECIPIENT_MASK |
 8006a66:	f240 3202 	movw	r2, #770	; 0x302
 8006a6a:	4295      	cmp	r5, r2
 8006a6c:	d02c      	beq.n	8006ac8 <_usb_ep0setup+0x288>
 8006a6e:	f5b5 6fa0 	cmp.w	r5, #1280	; 0x500
 8006a72:	f47f af39 	bne.w	80068e8 <_usb_ep0setup+0xa8>
        (usbp->setup[1] == USB_REQ_SET_ADDRESS)) {
      set_address(usbp);
    }
    usbSetupTransfer(usbp, NULL, 0, NULL);
#else
    usbSetupTransfer(usbp, NULL, 0, set_address);
 8006a76:	4a2f      	ldr	r2, [pc, #188]	; (8006b34 <_usb_ep0setup+0x2f4>)
 8006a78:	66a7      	str	r7, [r4, #104]	; 0x68
 8006a7a:	66e7      	str	r7, [r4, #108]	; 0x6c
 8006a7c:	463d      	mov	r5, r7
 8006a7e:	6722      	str	r2, [r4, #112]	; 0x70
 8006a80:	e705      	b.n	800688e <_usb_ep0setup+0x4e>
    /* Returning the last selected configuration.*/
    usbSetupTransfer(usbp, &usbp->configuration, 1, NULL);
    return true;
  case (uint32_t)USB_RTYPE_RECIPIENT_DEVICE | ((uint32_t)USB_REQ_SET_CONFIGURATION << 8):
    /* Handling configuration selection from the host.*/
    usbp->configuration = usbp->setup[2];
 8006a82:	f894 2076 	ldrb.w	r2, [r4, #118]	; 0x76
 8006a86:	f884 207f 	strb.w	r2, [r4, #127]	; 0x7f
    if (usbp->configuration == 0U) {
 8006a8a:	2a00      	cmp	r2, #0
 8006a8c:	f040 8095 	bne.w	8006bba <_usb_ep0setup+0x37a>
      usbp->state = USB_SELECTED;
 8006a90:	2203      	movs	r2, #3
 8006a92:	7022      	strb	r2, [r4, #0]
    }
    else {
      usbp->state = USB_ACTIVE;
    }
    _usb_isr_invoke_event_cb(usbp, USB_EVENT_CONFIGURED);
 8006a94:	6862      	ldr	r2, [r4, #4]
 8006a96:	6812      	ldr	r2, [r2, #0]
 8006a98:	2a00      	cmp	r2, #0
 8006a9a:	d09c      	beq.n	80069d6 <_usb_ep0setup+0x196>
 8006a9c:	4620      	mov	r0, r4
 8006a9e:	2102      	movs	r1, #2
 8006aa0:	4790      	blx	r2
 8006aa2:	f894 3074 	ldrb.w	r3, [r4, #116]	; 0x74
 8006aa6:	e796      	b.n	80069d6 <_usb_ep0setup+0x196>
    usbSetupTransfer(usbp, (uint8_t *)&usbp->status, 2, NULL);
    return true;
  case (uint32_t)USB_RTYPE_RECIPIENT_DEVICE | ((uint32_t)USB_REQ_CLEAR_FEATURE << 8):
    /* Only the DEVICE_REMOTE_WAKEUP is handled here, any other feature
       number is handled as an error.*/
    if (usbp->setup[2] == USB_FEATURE_DEVICE_REMOTE_WAKEUP) {
 8006aa8:	f894 2076 	ldrb.w	r2, [r4, #118]	; 0x76
 8006aac:	2a01      	cmp	r2, #1
 8006aae:	f47f af1b 	bne.w	80068e8 <_usb_ep0setup+0xa8>
      usbp->status &= ~2U;
 8006ab2:	f8b4 207c 	ldrh.w	r2, [r4, #124]	; 0x7c
      usbSetupTransfer(usbp, NULL, 0, NULL);
 8006ab6:	66a7      	str	r7, [r4, #104]	; 0x68
    return true;
  case (uint32_t)USB_RTYPE_RECIPIENT_DEVICE | ((uint32_t)USB_REQ_CLEAR_FEATURE << 8):
    /* Only the DEVICE_REMOTE_WAKEUP is handled here, any other feature
       number is handled as an error.*/
    if (usbp->setup[2] == USB_FEATURE_DEVICE_REMOTE_WAKEUP) {
      usbp->status &= ~2U;
 8006ab8:	f022 0202 	bic.w	r2, r2, #2
      usbSetupTransfer(usbp, NULL, 0, NULL);
 8006abc:	66e7      	str	r7, [r4, #108]	; 0x6c
 8006abe:	6727      	str	r7, [r4, #112]	; 0x70
 8006ac0:	463d      	mov	r5, r7
    return true;
  case (uint32_t)USB_RTYPE_RECIPIENT_DEVICE | ((uint32_t)USB_REQ_CLEAR_FEATURE << 8):
    /* Only the DEVICE_REMOTE_WAKEUP is handled here, any other feature
       number is handled as an error.*/
    if (usbp->setup[2] == USB_FEATURE_DEVICE_REMOTE_WAKEUP) {
      usbp->status &= ~2U;
 8006ac2:	f8a4 207c 	strh.w	r2, [r4, #124]	; 0x7c
 8006ac6:	e6e2      	b.n	800688e <_usb_ep0setup+0x4e>
    }
    usbSetupTransfer(usbp, NULL, 0, NULL);
    return true;
  case (uint32_t)USB_RTYPE_RECIPIENT_ENDPOINT | ((uint32_t)USB_REQ_SET_FEATURE << 8):
    /* Only ENDPOINT_HALT is handled as feature.*/
    if (usbp->setup[2] != USB_FEATURE_ENDPOINT_HALT) {
 8006ac8:	f894 2076 	ldrb.w	r2, [r4, #118]	; 0x76
 8006acc:	2a00      	cmp	r2, #0
 8006ace:	f47f af0b 	bne.w	80068e8 <_usb_ep0setup+0xa8>
      return false;
    }
    /* Stalling the EP, not valid for EP0, it is ignored in that case.*/
    if ((usbp->setup[4] & 0x0FU) != 0U) {
 8006ad2:	f894 1078 	ldrb.w	r1, [r4, #120]	; 0x78
 8006ad6:	f011 020f 	ands.w	r2, r1, #15
 8006ada:	f43f af7c 	beq.w	80069d6 <_usb_ep0setup+0x196>
 8006ade:	0093      	lsls	r3, r2, #2
 8006ae0:	f103 4380 	add.w	r3, r3, #1073741824	; 0x40000000
 8006ae4:	f503 43b8 	add.w	r3, r3, #23552	; 0x5c00
      if ((usbp->setup[4] & 0x80U) != 0U) {
 8006ae8:	0609      	lsls	r1, r1, #24
 */
void usb_lld_stall_in(USBDriver *usbp, usbep_t ep) {

  (void)usbp;

  EPR_SET_STAT_TX(ep, EPR_STAT_TX_STALL);
 8006aea:	681a      	ldr	r2, [r3, #0]
 8006aec:	f100 8087 	bmi.w	8006bfe <_usb_ep0setup+0x3be>
 */
void usb_lld_stall_out(USBDriver *usbp, usbep_t ep) {

  (void)usbp;

  EPR_SET_STAT_RX(ep, EPR_STAT_RX_STALL);
 8006af0:	f422 4290 	bic.w	r2, r2, #18432	; 0x4800
 8006af4:	f022 0270 	bic.w	r2, r2, #112	; 0x70
 8006af8:	f482 5280 	eor.w	r2, r2, #4096	; 0x1000
 8006afc:	f442 4200 	orr.w	r2, r2, #32768	; 0x8000
 8006b00:	f042 0280 	orr.w	r2, r2, #128	; 0x80
 8006b04:	601a      	str	r2, [r3, #0]
 8006b06:	f894 3074 	ldrb.w	r3, [r4, #116]	; 0x74
 8006b0a:	e764      	b.n	80069d6 <_usb_ep0setup+0x196>
 */
static bool default_handler(USBDriver *usbp) {
  const USBDescriptor *dp;

  /* Decoding the request.*/
  switch ((((uint32_t)usbp->setup[0] & (USB_RTYPE_RECIPIENT_MASK |
 8006b0c:	b92d      	cbnz	r5, 8006b1a <_usb_ep0setup+0x2da>
                                        USB_RTYPE_TYPE_MASK)) |
           ((uint32_t)usbp->setup[1] << 8U))) {
  case (uint32_t)USB_RTYPE_RECIPIENT_DEVICE | ((uint32_t)USB_REQ_GET_STATUS << 8):
    /* Just returns the current status word.*/
    usbSetupTransfer(usbp, (uint8_t *)&usbp->status, 2, NULL);
 8006b0e:	2202      	movs	r2, #2
 8006b10:	6725      	str	r5, [r4, #112]	; 0x70
 8006b12:	66a6      	str	r6, [r4, #104]	; 0x68
 8006b14:	66e2      	str	r2, [r4, #108]	; 0x6c
 8006b16:	4615      	mov	r5, r2
 8006b18:	e6b9      	b.n	800688e <_usb_ep0setup+0x4e>
 */
static bool default_handler(USBDriver *usbp) {
  const USBDescriptor *dp;

  /* Decoding the request.*/
  switch ((((uint32_t)usbp->setup[0] & (USB_RTYPE_RECIPIENT_MASK |
 8006b1a:	2d01      	cmp	r5, #1
 8006b1c:	f47f aee4 	bne.w	80068e8 <_usb_ep0setup+0xa8>
  case (uint32_t)USB_RTYPE_RECIPIENT_INTERFACE | ((uint32_t)USB_REQ_GET_STATUS << 8):
  case (uint32_t)USB_RTYPE_RECIPIENT_ENDPOINT | ((uint32_t)USB_REQ_SYNCH_FRAME << 8):
    /* Just sending two zero bytes, the application can change the behavior
       using a hook..*/
    /*lint -save -e9005 [11.8] Removing const is fine.*/
    usbSetupTransfer(usbp, (uint8_t *)zero_status, 2, NULL);
 8006b20:	4905      	ldr	r1, [pc, #20]	; (8006b38 <_usb_ep0setup+0x2f8>)
 8006b22:	2502      	movs	r5, #2
 8006b24:	2200      	movs	r2, #0
 8006b26:	66a1      	str	r1, [r4, #104]	; 0x68
 8006b28:	66e5      	str	r5, [r4, #108]	; 0x6c
 8006b2a:	6722      	str	r2, [r4, #112]	; 0x70
 8006b2c:	e6af      	b.n	800688e <_usb_ep0setup+0x4e>
 8006b2e:	bf00      	nop
 8006b30:	40005c00 	.word	0x40005c00
 8006b34:	08006501 	.word	0x08006501
 8006b38:	08009ed0 	.word	0x08009ed0
    usbSetupTransfer(usbp, NULL, 0, set_address);
#endif
    return true;
  case (uint32_t)USB_RTYPE_RECIPIENT_DEVICE | ((uint32_t)USB_REQ_GET_DESCRIPTOR << 8):
    /* Handling descriptor requests from the host.*/
    dp = usbp->config->get_descriptor_cb(usbp, usbp->setup[3],
 8006b3c:	6861      	ldr	r1, [r4, #4]

static uint16_t get_hword(uint8_t *p) {
  uint16_t hw;

  hw  = (uint16_t)*p++;
  hw |= (uint16_t)*p << 8U;
 8006b3e:	f894 2079 	ldrb.w	r2, [r4, #121]	; 0x79
 8006b42:	f894 3078 	ldrb.w	r3, [r4, #120]	; 0x78
    usbSetupTransfer(usbp, NULL, 0, set_address);
#endif
    return true;
  case (uint32_t)USB_RTYPE_RECIPIENT_DEVICE | ((uint32_t)USB_REQ_GET_DESCRIPTOR << 8):
    /* Handling descriptor requests from the host.*/
    dp = usbp->config->get_descriptor_cb(usbp, usbp->setup[3],
 8006b46:	684d      	ldr	r5, [r1, #4]
 8006b48:	ea43 2302 	orr.w	r3, r3, r2, lsl #8
 8006b4c:	4620      	mov	r0, r4
 8006b4e:	f894 1077 	ldrb.w	r1, [r4, #119]	; 0x77
 8006b52:	f894 2076 	ldrb.w	r2, [r4, #118]	; 0x76
 8006b56:	47a8      	blx	r5
                                         usbp->setup[2],
                                         get_hword(&usbp->setup[4]));
    if (dp == NULL) {
 8006b58:	2800      	cmp	r0, #0
 8006b5a:	f43f aec5 	beq.w	80068e8 <_usb_ep0setup+0xa8>
      return false;
    }
    /*lint -save -e9005 [11.8] Removing const is fine.*/
    usbSetupTransfer(usbp, (uint8_t *)dp->ud_string, dp->ud_size, NULL);
 8006b5e:	6843      	ldr	r3, [r0, #4]
 8006b60:	6805      	ldr	r5, [r0, #0]
 8006b62:	66a3      	str	r3, [r4, #104]	; 0x68
 8006b64:	66e5      	str	r5, [r4, #108]	; 0x6c
 8006b66:	6727      	str	r7, [r4, #112]	; 0x70
 8006b68:	f894 3074 	ldrb.w	r3, [r4, #116]	; 0x74
 8006b6c:	e68f      	b.n	800688e <_usb_ep0setup+0x4e>
    }
    return false;
  case (uint32_t)USB_RTYPE_RECIPIENT_DEVICE | ((uint32_t)USB_REQ_SET_FEATURE << 8):
    /* Only the DEVICE_REMOTE_WAKEUP is handled here, any other feature
       number is handled as an error.*/
    if (usbp->setup[2] == USB_FEATURE_DEVICE_REMOTE_WAKEUP) {
 8006b6e:	f894 2076 	ldrb.w	r2, [r4, #118]	; 0x76
 8006b72:	2a01      	cmp	r2, #1
 8006b74:	f47f aeb8 	bne.w	80068e8 <_usb_ep0setup+0xa8>
      usbp->status |= 2U;
 8006b78:	f8b4 207c 	ldrh.w	r2, [r4, #124]	; 0x7c
      usbSetupTransfer(usbp, NULL, 0, NULL);
 8006b7c:	66a7      	str	r7, [r4, #104]	; 0x68
    return false;
  case (uint32_t)USB_RTYPE_RECIPIENT_DEVICE | ((uint32_t)USB_REQ_SET_FEATURE << 8):
    /* Only the DEVICE_REMOTE_WAKEUP is handled here, any other feature
       number is handled as an error.*/
    if (usbp->setup[2] == USB_FEATURE_DEVICE_REMOTE_WAKEUP) {
      usbp->status |= 2U;
 8006b7e:	f042 0202 	orr.w	r2, r2, #2
      usbSetupTransfer(usbp, NULL, 0, NULL);
 8006b82:	66e7      	str	r7, [r4, #108]	; 0x6c
 8006b84:	6727      	str	r7, [r4, #112]	; 0x70
 8006b86:	463d      	mov	r5, r7
    return false;
  case (uint32_t)USB_RTYPE_RECIPIENT_DEVICE | ((uint32_t)USB_REQ_SET_FEATURE << 8):
    /* Only the DEVICE_REMOTE_WAKEUP is handled here, any other feature
       number is handled as an error.*/
    if (usbp->setup[2] == USB_FEATURE_DEVICE_REMOTE_WAKEUP) {
      usbp->status |= 2U;
 8006b88:	f8a4 207c 	strh.w	r2, [r4, #124]	; 0x7c
 8006b8c:	e67f      	b.n	800688e <_usb_ep0setup+0x4e>
    usbSetupTransfer(usbp, (uint8_t *)zero_status, 2, NULL);
    /*lint -restore*/
    return true;
  case (uint32_t)USB_RTYPE_RECIPIENT_ENDPOINT | ((uint32_t)USB_REQ_GET_STATUS << 8):
    /* Sending the EP status.*/
    if ((usbp->setup[4] & 0x80U) != 0U) {
 8006b8e:	f894 2078 	ldrb.w	r2, [r4, #120]	; 0x78
 * @notapi
 */
usbepstatus_t usb_lld_get_status_in(USBDriver *usbp, usbep_t ep) {

  (void)usbp;
  switch (STM32_USB->EPR[ep] & EPR_STAT_TX_MASK) {
 8006b92:	4922      	ldr	r1, [pc, #136]	; (8006c1c <_usb_ep0setup+0x3dc>)
 8006b94:	f012 0f80 	tst.w	r2, #128	; 0x80
 8006b98:	f002 020f 	and.w	r2, r2, #15
 8006b9c:	f851 2022 	ldr.w	r2, [r1, r2, lsl #2]
 8006ba0:	d10e      	bne.n	8006bc0 <_usb_ep0setup+0x380>
 * @notapi
 */
usbepstatus_t usb_lld_get_status_out(USBDriver *usbp, usbep_t ep) {

  (void)usbp;
  switch (STM32_USB->EPR[ep] & EPR_STAT_RX_MASK) {
 8006ba2:	f412 5240 	ands.w	r2, r2, #12288	; 0x3000
 8006ba6:	f43f ae9f 	beq.w	80068e8 <_usb_ep0setup+0xa8>
 8006baa:	f5b2 5f80 	cmp.w	r2, #4096	; 0x1000
 8006bae:	d10d      	bne.n	8006bcc <_usb_ep0setup+0x38c>
    }
    else {
      switch (usb_lld_get_status_out(usbp, usbp->setup[4] & 0x0FU)) {
      case EP_STATUS_STALLED:
        /*lint -save -e9005 [11.8] Removing const is fine.*/
        usbSetupTransfer(usbp, (uint8_t *)halted_status, 2, NULL);
 8006bb0:	4a1b      	ldr	r2, [pc, #108]	; (8006c20 <_usb_ep0setup+0x3e0>)
 8006bb2:	66e5      	str	r5, [r4, #108]	; 0x6c
 8006bb4:	6727      	str	r7, [r4, #112]	; 0x70
 8006bb6:	66a2      	str	r2, [r4, #104]	; 0x68
 8006bb8:	e669      	b.n	800688e <_usb_ep0setup+0x4e>
    usbp->configuration = usbp->setup[2];
    if (usbp->configuration == 0U) {
      usbp->state = USB_SELECTED;
    }
    else {
      usbp->state = USB_ACTIVE;
 8006bba:	2204      	movs	r2, #4
 8006bbc:	7022      	strb	r2, [r4, #0]
 8006bbe:	e769      	b.n	8006a94 <_usb_ep0setup+0x254>
 * @notapi
 */
usbepstatus_t usb_lld_get_status_in(USBDriver *usbp, usbep_t ep) {

  (void)usbp;
  switch (STM32_USB->EPR[ep] & EPR_STAT_TX_MASK) {
 8006bc0:	f012 0230 	ands.w	r2, r2, #48	; 0x30
 8006bc4:	f43f ae90 	beq.w	80068e8 <_usb_ep0setup+0xa8>
 8006bc8:	2a10      	cmp	r2, #16
 8006bca:	d0f1      	beq.n	8006bb0 <_usb_ep0setup+0x370>
        usbSetupTransfer(usbp, (uint8_t *)halted_status, 2, NULL);
        /*lint -restore*/
        return true;
      case EP_STATUS_ACTIVE:
        /*lint -save -e9005 [11.8] Removing const is fine.*/
        usbSetupTransfer(usbp, (uint8_t *)active_status, 2, NULL);
 8006bcc:	4a15      	ldr	r2, [pc, #84]	; (8006c24 <_usb_ep0setup+0x3e4>)
 8006bce:	66e5      	str	r5, [r4, #108]	; 0x6c
 8006bd0:	6727      	str	r7, [r4, #112]	; 0x70
 8006bd2:	66a2      	str	r2, [r4, #104]	; 0x68
 8006bd4:	e65b      	b.n	800688e <_usb_ep0setup+0x4e>

  (void)usbp;

  /* Makes sure to not put to NAK an endpoint that is already
     transferring.*/
  if ((STM32_USB->EPR[ep] & EPR_STAT_TX_MASK) != EPR_STAT_TX_VALID)
 8006bd6:	f001 0130 	and.w	r1, r1, #48	; 0x30
 8006bda:	2930      	cmp	r1, #48	; 0x30
 8006bdc:	f43f aefb 	beq.w	80069d6 <_usb_ep0setup+0x196>
    EPR_SET_STAT_TX(ep, EPR_STAT_TX_NAK);
 8006be0:	6813      	ldr	r3, [r2, #0]
 8006be2:	f423 43f0 	bic.w	r3, r3, #30720	; 0x7800
 8006be6:	f023 0340 	bic.w	r3, r3, #64	; 0x40
 8006bea:	f083 0320 	eor.w	r3, r3, #32
 8006bee:	f443 4300 	orr.w	r3, r3, #32768	; 0x8000
 8006bf2:	f043 0380 	orr.w	r3, r3, #128	; 0x80
 8006bf6:	6013      	str	r3, [r2, #0]
 8006bf8:	f894 3074 	ldrb.w	r3, [r4, #116]	; 0x74
 8006bfc:	e6eb      	b.n	80069d6 <_usb_ep0setup+0x196>
 */
void usb_lld_stall_in(USBDriver *usbp, usbep_t ep) {

  (void)usbp;

  EPR_SET_STAT_TX(ep, EPR_STAT_TX_STALL);
 8006bfe:	f422 42f0 	bic.w	r2, r2, #30720	; 0x7800
 8006c02:	f022 0240 	bic.w	r2, r2, #64	; 0x40
 8006c06:	f082 0210 	eor.w	r2, r2, #16
 8006c0a:	f442 4200 	orr.w	r2, r2, #32768	; 0x8000
 8006c0e:	f042 0280 	orr.w	r2, r2, #128	; 0x80
 8006c12:	601a      	str	r2, [r3, #0]
 8006c14:	f894 3074 	ldrb.w	r3, [r4, #116]	; 0x74
 8006c18:	e6dd      	b.n	80069d6 <_usb_ep0setup+0x196>
 8006c1a:	bf00      	nop
 8006c1c:	40005c00 	.word	0x40005c00
 8006c20:	08009ef0 	.word	0x08009ef0
 8006c24:	08009ee0 	.word	0x08009ee0
 8006c28:	f3af 8000 	nop.w
 8006c2c:	f3af 8000 	nop.w

08006c30 <usbPrepareTransmit>:
 * @param[in] n         transaction size
 *
 * @special
 */
void usbPrepareTransmit(USBDriver *usbp, usbep_t ep,
                        const uint8_t *buf, size_t n) {
 8006c30:	b430      	push	{r4, r5}
  USBInEndpointState *isp = usbp->epc[ep]->in_state;
 8006c32:	eb00 0481 	add.w	r4, r0, r1, lsl #2
 8006c36:	68e4      	ldr	r4, [r4, #12]

  isp->txqueued           = false;
 8006c38:	2500      	movs	r5, #0
 *
 * @special
 */
void usbPrepareTransmit(USBDriver *usbp, usbep_t ep,
                        const uint8_t *buf, size_t n) {
  USBInEndpointState *isp = usbp->epc[ep]->in_state;
 8006c3a:	6964      	ldr	r4, [r4, #20]

  isp->txqueued           = false;
  isp->mode.linear.txbuf  = buf;
 8006c3c:	60e2      	str	r2, [r4, #12]
  isp->txsize             = n;
 8006c3e:	6063      	str	r3, [r4, #4]
 */
void usbPrepareTransmit(USBDriver *usbp, usbep_t ep,
                        const uint8_t *buf, size_t n) {
  USBInEndpointState *isp = usbp->epc[ep]->in_state;

  isp->txqueued           = false;
 8006c40:	7025      	strb	r5, [r4, #0]
  isp->mode.linear.txbuf  = buf;
  isp->txsize             = n;
  isp->txcnt              = 0;
 8006c42:	60a5      	str	r5, [r4, #8]

  usb_lld_prepare_transmit(usbp, ep);
}
 8006c44:	bc30      	pop	{r4, r5}
  isp->txqueued           = false;
  isp->mode.linear.txbuf  = buf;
  isp->txsize             = n;
  isp->txcnt              = 0;

  usb_lld_prepare_transmit(usbp, ep);
 8006c46:	f000 bf4b 	b.w	8007ae0 <usb_lld_prepare_transmit>
 8006c4a:	bf00      	nop
 8006c4c:	f3af 8000 	nop.w

08006c50 <usbInitEndpointI>:
  osalDbgAssert(usbp->state == USB_ACTIVE,
                "invalid state");
  osalDbgAssert(usbp->epc[ep] == NULL, "already initialized");

  /* Logically enabling the endpoint in the USBDriver structure.*/
  if (epcp->in_state != NULL) {
 8006c50:	6953      	ldr	r3, [r2, #20]
 * @param[in] epcp      the endpoint configuration
 *
 * @iclass
 */
void usbInitEndpointI(USBDriver *usbp, usbep_t ep,
                      const USBEndpointConfig *epcp) {
 8006c52:	b570      	push	{r4, r5, r6, lr}
 8006c54:	4614      	mov	r4, r2
 8006c56:	4606      	mov	r6, r0
 8006c58:	460d      	mov	r5, r1
  osalDbgAssert(usbp->state == USB_ACTIVE,
                "invalid state");
  osalDbgAssert(usbp->epc[ep] == NULL, "already initialized");

  /* Logically enabling the endpoint in the USBDriver structure.*/
  if (epcp->in_state != NULL) {
 8006c5a:	b123      	cbz	r3, 8006c66 <usbInitEndpointI+0x16>
    memset(epcp->in_state, 0, sizeof(USBInEndpointState));
 8006c5c:	4618      	mov	r0, r3
 8006c5e:	2100      	movs	r1, #0
 8006c60:	2210      	movs	r2, #16
 8006c62:	f003 f895 	bl	8009d90 <memset>
  }
  if (epcp->out_state != NULL) {
 8006c66:	69a0      	ldr	r0, [r4, #24]
 8006c68:	b118      	cbz	r0, 8006c72 <usbInitEndpointI+0x22>
    memset(epcp->out_state, 0, sizeof(USBOutEndpointState));
 8006c6a:	2100      	movs	r1, #0
 8006c6c:	2214      	movs	r2, #20
 8006c6e:	f003 f88f 	bl	8009d90 <memset>
  }

  usbp->epc[ep] = epcp;
 8006c72:	eb06 0385 	add.w	r3, r6, r5, lsl #2
 8006c76:	60dc      	str	r4, [r3, #12]

  /* Low level endpoint activation.*/
  usb_lld_init_endpoint(usbp, ep);
 8006c78:	4630      	mov	r0, r6
 8006c7a:	4629      	mov	r1, r5
}
 8006c7c:	e8bd 4070 	ldmia.w	sp!, {r4, r5, r6, lr}
  }

  usbp->epc[ep] = epcp;

  /* Low level endpoint activation.*/
  usb_lld_init_endpoint(usbp, ep);
 8006c80:	f000 bf5e 	b.w	8007b40 <usb_lld_init_endpoint>
 8006c84:	f3af 8000 	nop.w
 8006c88:	f3af 8000 	nop.w
 8006c8c:	f3af 8000 	nop.w

08006c90 <_port_irq_epilogue>:
 8006c90:	2320      	movs	r3, #32
 8006c92:	f383 8811 	msr	BASEPRI, r3
 * @brief   Exception exit redirection to _port_switch_from_isr().
 */
void _port_irq_epilogue(void) {

  port_lock_from_isr();
  if ((SCB->ICSR & SCB_ICSR_RETTOBASE_Msk) != 0U) {
 8006c96:	4b0f      	ldr	r3, [pc, #60]	; (8006cd4 <_port_irq_epilogue+0x44>)
 8006c98:	685b      	ldr	r3, [r3, #4]
 8006c9a:	f413 6300 	ands.w	r3, r3, #2048	; 0x800
 8006c9e:	d102      	bne.n	8006ca6 <_port_irq_epilogue+0x16>
 8006ca0:	f383 8811 	msr	BASEPRI, r3
 8006ca4:	4770      	bx	lr
 */
__attribute__( ( always_inline ) ) __STATIC_INLINE uint32_t __get_PSP(void)
{
  register uint32_t result;

  __ASM volatile ("MRS %0, psp\n"  : "=r" (result) );
 8006ca6:	f3ef 8309 	mrs	r3, PSP
    /* Adding an artificial exception return context, there is no need to
       populate it fully.*/
    ctxp--;

    /* Setting up a fake XPSR register value.*/
    ctxp->xpsr = (regarm_t)0x01000000;
 8006caa:	f04f 7280 	mov.w	r2, #16777216	; 0x1000000
 8006cae:	f843 2c04 	str.w	r2, [r3, #-4]
    /* The port_extctx structure is pointed by the PSP register.*/
    ctxp = (struct port_extctx *)__get_PSP();

    /* Adding an artificial exception return context, there is no need to
       populate it fully.*/
    ctxp--;
 8006cb2:	f1a3 0220 	sub.w	r2, r3, #32

    \param [in]    topOfProcStack  Process Stack Pointer value to set
 */
__attribute__( ( always_inline ) ) __STATIC_INLINE void __set_PSP(uint32_t topOfProcStack)
{
  __ASM volatile ("MSR psp, %0\n" : : "r" (topOfProcStack) : "sp");
 8006cb6:	f382 8809 	msr	PSP, r2
 * @retval false        if preemption is not required.
 *
 * @special
 */
bool chSchIsPreemptionRequired(void) {
  tprio_t p1 = firstprio(&ch.rlist.r_queue);
 8006cba:	4a07      	ldr	r2, [pc, #28]	; (8006cd8 <_port_irq_epilogue+0x48>)
 8006cbc:	6811      	ldr	r1, [r2, #0]
  tprio_t p2 = currp->p_prio;
 8006cbe:	6992      	ldr	r2, [r2, #24]
    /* Writing back the modified PSP value.*/
    __set_PSP((uint32_t)ctxp);

    /* The exit sequence is different depending on if a preemption is
       required or not.*/
    if (chSchIsPreemptionRequired()) {
 8006cc0:	6889      	ldr	r1, [r1, #8]
 8006cc2:	6892      	ldr	r2, [r2, #8]
 8006cc4:	4291      	cmp	r1, r2
      /* Preemption is required we need to enforce a context switch.*/
      ctxp->pc = (regarm_t)_port_switch_from_isr;
 8006cc6:	bf8c      	ite	hi
 8006cc8:	4a04      	ldrhi	r2, [pc, #16]	; (8006cdc <_port_irq_epilogue+0x4c>)
    }
    else {
      /* Preemption not required, we just need to exit the exception
         atomically.*/
      ctxp->pc = (regarm_t)_port_exit_from_isr;
 8006cca:	4a05      	ldrls	r2, [pc, #20]	; (8006ce0 <_port_irq_epilogue+0x50>)
 8006ccc:	f843 2c08 	str.w	r2, [r3, #-8]
 8006cd0:	4770      	bx	lr
 8006cd2:	bf00      	nop
 8006cd4:	e000ed00 	.word	0xe000ed00
 8006cd8:	20001260 	.word	0x20001260
 8006cdc:	08005241 	.word	0x08005241
 8006ce0:	08005244 	.word	0x08005244
 8006ce4:	f3af 8000 	nop.w
 8006ce8:	f3af 8000 	nop.w
 8006cec:	f3af 8000 	nop.w

08006cf0 <VectorB0>:
 * @brief   TIM2 interrupt handler.
 * @details This interrupt is used for system tick in free running mode.
 *
 * @isr
 */
OSAL_IRQ_HANDLER(ST_HANDLER) {
 8006cf0:	e92d 41f0 	stmdb	sp!, {r4, r5, r6, r7, r8, lr}
  OSAL_IRQ_PROLOGUE();

  /* Note, under rare circumstances an interrupt can remain latched even if
     the timer SR register has been cleared, in those cases the interrupt
     is simply ignored.*/
  if ((STM32_ST_TIM->SR & TIM_SR_CC1IF) != 0U) {
 8006cf4:	f04f 4480 	mov.w	r4, #1073741824	; 0x40000000
 8006cf8:	6923      	ldr	r3, [r4, #16]
 8006cfa:	079b      	lsls	r3, r3, #30
 8006cfc:	d403      	bmi.n	8006d06 <VectorB0+0x16>
    osalOsTimerHandlerI();
    osalSysUnlockFromISR();
  }

  OSAL_IRQ_EPILOGUE();
}
 8006cfe:	e8bd 41f0 	ldmia.w	sp!, {r4, r5, r6, r7, r8, lr}
    osalSysLockFromISR();
    osalOsTimerHandlerI();
    osalSysUnlockFromISR();
  }

  OSAL_IRQ_EPILOGUE();
 8006d02:	f7ff bfc5 	b.w	8006c90 <_port_irq_epilogue>

  /* Note, under rare circumstances an interrupt can remain latched even if
     the timer SR register has been cleared, in those cases the interrupt
     is simply ignored.*/
  if ((STM32_ST_TIM->SR & TIM_SR_CC1IF) != 0U) {
    STM32_ST_TIM->SR = 0U;
 8006d06:	2700      	movs	r7, #0
 8006d08:	6127      	str	r7, [r4, #16]

    \param [in]    basePri  Base Priority value to set
 */
__attribute__( ( always_inline ) ) __STATIC_INLINE void __set_BASEPRI(uint32_t value)
{
  __ASM volatile ("MSR basepri, %0" : : "r" (value) : "memory");
 8006d0a:	2520      	movs	r5, #32
 8006d0c:	f385 8811 	msr	BASEPRI, r5
#else /* CH_CFG_ST_TIMEDELTA > 0 */
  virtual_timer_t *vtp;
  systime_t now, delta;

  /* First timer to be processed.*/
  vtp = ch.vtlist.vt_next;
 8006d10:	4e1e      	ldr	r6, [pc, #120]	; (8006d8c <VectorB0+0x9c>)
 8006d12:	6a62      	ldr	r2, [r4, #36]	; 0x24

  /* All timers within the time window are triggered and removed,
     note that the loop is stopped by the timers header having
     "ch.vtlist.vt_delta == (systime_t)-1" which is greater than
     all deltas.*/
  while (vtp->vt_delta <= (systime_t)(now - ch.vtlist.vt_lasttime)) {
 8006d14:	f8b6 e026 	ldrh.w	lr, [r6, #38]	; 0x26
#else /* CH_CFG_ST_TIMEDELTA > 0 */
  virtual_timer_t *vtp;
  systime_t now, delta;

  /* First timer to be processed.*/
  vtp = ch.vtlist.vt_next;
 8006d18:	69f3      	ldr	r3, [r6, #28]
 8006d1a:	b290      	uxth	r0, r2

  /* All timers within the time window are triggered and removed,
     note that the loop is stopped by the timers header having
     "ch.vtlist.vt_delta == (systime_t)-1" which is greater than
     all deltas.*/
  while (vtp->vt_delta <= (systime_t)(now - ch.vtlist.vt_lasttime)) {
 8006d1c:	ebce 0100 	rsb	r1, lr, r0
 8006d20:	891a      	ldrh	r2, [r3, #8]
 8006d22:	b289      	uxth	r1, r1
 8006d24:	4291      	cmp	r1, r2
 8006d26:	f106 081c 	add.w	r8, r6, #28
 8006d2a:	d31b      	bcc.n	8006d64 <VectorB0+0x74>
    vtfunc_t fn;

    /* The "last time" becomes this timer's expiration time.*/
    ch.vtlist.vt_lasttime += vtp->vt_delta;

    vtp->vt_next->vt_prev = (virtual_timer_t *)&ch.vtlist;
 8006d2c:	6819      	ldr	r1, [r3, #0]
     all deltas.*/
  while (vtp->vt_delta <= (systime_t)(now - ch.vtlist.vt_lasttime)) {
    vtfunc_t fn;

    /* The "last time" becomes this timer's expiration time.*/
    ch.vtlist.vt_lasttime += vtp->vt_delta;
 8006d2e:	4472      	add	r2, lr
    ch.vtlist.vt_next = vtp->vt_next;
    fn = vtp->vt_func;
    vtp->vt_func = NULL;

    /* if the list becomes empty then the timer is stopped.*/
    if (ch.vtlist.vt_next == (virtual_timer_t *)&ch.vtlist) {
 8006d30:	4541      	cmp	r1, r8
     all deltas.*/
  while (vtp->vt_delta <= (systime_t)(now - ch.vtlist.vt_lasttime)) {
    vtfunc_t fn;

    /* The "last time" becomes this timer's expiration time.*/
    ch.vtlist.vt_lasttime += vtp->vt_delta;
 8006d32:	84f2      	strh	r2, [r6, #38]	; 0x26

    vtp->vt_next->vt_prev = (virtual_timer_t *)&ch.vtlist;
    ch.vtlist.vt_next = vtp->vt_next;
    fn = vtp->vt_func;
 8006d34:	68da      	ldr	r2, [r3, #12]
    vtfunc_t fn;

    /* The "last time" becomes this timer's expiration time.*/
    ch.vtlist.vt_lasttime += vtp->vt_delta;

    vtp->vt_next->vt_prev = (virtual_timer_t *)&ch.vtlist;
 8006d36:	f8c1 8004 	str.w	r8, [r1, #4]
    ch.vtlist.vt_next = vtp->vt_next;
 8006d3a:	61f1      	str	r1, [r6, #28]
    fn = vtp->vt_func;
    vtp->vt_func = NULL;
 8006d3c:	60df      	str	r7, [r3, #12]
 *
 * @notapi
 */
static inline void st_lld_stop_alarm(void) {

  STM32_ST_TIM->DIER = 0;
 8006d3e:	bf08      	it	eq
 8006d40:	60e7      	streq	r7, [r4, #12]
 8006d42:	f387 8811 	msr	BASEPRI, r7
       and in order to give a preemption chance to higher priority
       interrupts.*/
    chSysUnlockFromISR();

    /* The callback is invoked outside the kernel critical zone.*/
    fn(vtp->vt_par);
 8006d46:	6918      	ldr	r0, [r3, #16]
 8006d48:	4790      	blx	r2
 8006d4a:	f385 8811 	msr	BASEPRI, r5
 *
 * @notapi
 */
static inline systime_t st_lld_get_counter(void) {

  return (systime_t)STM32_ST_TIM->CNT;
 8006d4e:	6a62      	ldr	r2, [r4, #36]	; 0x24

  /* All timers within the time window are triggered and removed,
     note that the loop is stopped by the timers header having
     "ch.vtlist.vt_delta == (systime_t)-1" which is greater than
     all deltas.*/
  while (vtp->vt_delta <= (systime_t)(now - ch.vtlist.vt_lasttime)) {
 8006d50:	f8b6 e026 	ldrh.w	lr, [r6, #38]	; 0x26
       of the list.*/
    chSysLockFromISR();

    /* Next element in the list, the current time could have advanced so
       recalculating the time window.*/
    vtp = ch.vtlist.vt_next;
 8006d54:	69f3      	ldr	r3, [r6, #28]
 8006d56:	b290      	uxth	r0, r2

  /* All timers within the time window are triggered and removed,
     note that the loop is stopped by the timers header having
     "ch.vtlist.vt_delta == (systime_t)-1" which is greater than
     all deltas.*/
  while (vtp->vt_delta <= (systime_t)(now - ch.vtlist.vt_lasttime)) {
 8006d58:	ebce 0100 	rsb	r1, lr, r0
 8006d5c:	891a      	ldrh	r2, [r3, #8]
 8006d5e:	b289      	uxth	r1, r1
 8006d60:	428a      	cmp	r2, r1
 8006d62:	d9e3      	bls.n	8006d2c <VectorB0+0x3c>
    vtp = ch.vtlist.vt_next;
    now = chVTGetSystemTimeX();
  }

  /* if the list is empty, nothing else to do.*/
  if (ch.vtlist.vt_next == (virtual_timer_t *)&ch.vtlist) {
 8006d64:	4543      	cmp	r3, r8
 8006d66:	d00a      	beq.n	8006d7e <VectorB0+0x8e>
    return;
  }

  /* Recalculating the next alarm time.*/
  delta = ch.vtlist.vt_lasttime + vtp->vt_delta - now;
 8006d68:	4472      	add	r2, lr
 8006d6a:	1a12      	subs	r2, r2, r0
 8006d6c:	b292      	uxth	r2, r2
  if (delta < (systime_t)CH_CFG_ST_TIMEDELTA) {
    delta = (systime_t)CH_CFG_ST_TIMEDELTA;
 8006d6e:	2a01      	cmp	r2, #1
 8006d70:	bf98      	it	ls
 8006d72:	2202      	movls	r2, #2
  }
  port_timer_set_alarm(now + delta);
 8006d74:	4402      	add	r2, r0
 *
 * @notapi
 */
static inline void st_lld_set_alarm(systime_t time) {

  STM32_ST_TIM->CCR[0] = (uint32_t)time;
 8006d76:	b292      	uxth	r2, r2
 8006d78:	f04f 4380 	mov.w	r3, #1073741824	; 0x40000000
 8006d7c:	635a      	str	r2, [r3, #52]	; 0x34
 8006d7e:	2300      	movs	r3, #0
 8006d80:	f383 8811 	msr	BASEPRI, r3
    osalOsTimerHandlerI();
    osalSysUnlockFromISR();
  }

  OSAL_IRQ_EPILOGUE();
}
 8006d84:	e8bd 41f0 	ldmia.w	sp!, {r4, r5, r6, r7, r8, lr}
    osalSysLockFromISR();
    osalOsTimerHandlerI();
    osalSysUnlockFromISR();
  }

  OSAL_IRQ_EPILOGUE();
 8006d88:	f7ff bf82 	b.w	8006c90 <_port_irq_epilogue>
 8006d8c:	20001260 	.word	0x20001260

08006d90 <chTMStopMeasurementX>:
 *
 * @return              The realtime counter value.
 */
static inline rtcnt_t port_rt_get_counter_value(void) {

  return DWT->CYCCNT;
 8006d90:	4b0e      	ldr	r3, [pc, #56]	; (8006dcc <chTMStopMeasurementX+0x3c>)
 *
 * @xclass
 */
NOINLINE void chTMStopMeasurementX(time_measurement_t *tmp) {

  tm_stop(tmp, chSysGetRealtimeCounterX(), ch.tm.offset);
 8006d92:	490f      	ldr	r1, [pc, #60]	; (8006dd0 <chTMStopMeasurementX+0x40>)
 8006d94:	685a      	ldr	r2, [r3, #4]
static inline void tm_stop(time_measurement_t *tmp,
                           rtcnt_t now,
                           rtcnt_t offset) {

  tmp->n++;
  tmp->last = (now - tmp->last) - offset;
 8006d96:	6883      	ldr	r3, [r0, #8]
 *
 * @xclass
 */
NOINLINE void chTMStopMeasurementX(time_measurement_t *tmp) {

  tm_stop(tmp, chSysGetRealtimeCounterX(), ch.tm.offset);
 8006d98:	6f09      	ldr	r1, [r1, #112]	; 0x70
static inline void tm_stop(time_measurement_t *tmp,
                           rtcnt_t now,
                           rtcnt_t offset) {

  tmp->n++;
  tmp->last = (now - tmp->last) - offset;
 8006d9a:	1ad3      	subs	r3, r2, r3
 8006d9c:	1a5b      	subs	r3, r3, r1

static inline void tm_stop(time_measurement_t *tmp,
                           rtcnt_t now,
                           rtcnt_t offset) {

  tmp->n++;
 8006d9e:	68c2      	ldr	r2, [r0, #12]
  tmp->last = (now - tmp->last) - offset;
  tmp->cumulative += (rttime_t)tmp->last;
  /*lint -save -e9013 [15.7] There is no else because it is not needed.*/
  if (tmp->last > tmp->worst) {
 8006da0:	6841      	ldr	r1, [r0, #4]
 *
 * @param[in,out] tmp   pointer to a @p time_measurement_t structure
 *
 * @xclass
 */
NOINLINE void chTMStopMeasurementX(time_measurement_t *tmp) {
 8006da2:	b430      	push	{r4, r5}
                           rtcnt_t now,
                           rtcnt_t offset) {

  tmp->n++;
  tmp->last = (now - tmp->last) - offset;
  tmp->cumulative += (rttime_t)tmp->last;
 8006da4:	e9d0 4504 	ldrd	r4, r5, [r0, #16]
 8006da8:	18e4      	adds	r4, r4, r3
 8006daa:	f145 0500 	adc.w	r5, r5, #0

static inline void tm_stop(time_measurement_t *tmp,
                           rtcnt_t now,
                           rtcnt_t offset) {

  tmp->n++;
 8006dae:	3201      	adds	r2, #1
  tmp->last = (now - tmp->last) - offset;
  tmp->cumulative += (rttime_t)tmp->last;
  /*lint -save -e9013 [15.7] There is no else because it is not needed.*/
  if (tmp->last > tmp->worst) {
 8006db0:	428b      	cmp	r3, r1

static inline void tm_stop(time_measurement_t *tmp,
                           rtcnt_t now,
                           rtcnt_t offset) {

  tmp->n++;
 8006db2:	60c2      	str	r2, [r0, #12]
  tmp->last = (now - tmp->last) - offset;
 8006db4:	6083      	str	r3, [r0, #8]
  tmp->cumulative += (rttime_t)tmp->last;
 8006db6:	e9c0 4504 	strd	r4, r5, [r0, #16]
  /*lint -save -e9013 [15.7] There is no else because it is not needed.*/
  if (tmp->last > tmp->worst) {
 8006dba:	d805      	bhi.n	8006dc8 <chTMStopMeasurementX+0x38>
    tmp->worst = tmp->last;
  }
  else if (tmp->last < tmp->best) {
 8006dbc:	6802      	ldr	r2, [r0, #0]
 8006dbe:	4293      	cmp	r3, r2
    tmp->best = tmp->last;
 8006dc0:	bf38      	it	cc
 8006dc2:	6003      	strcc	r3, [r0, #0]
 * @xclass
 */
NOINLINE void chTMStopMeasurementX(time_measurement_t *tmp) {

  tm_stop(tmp, chSysGetRealtimeCounterX(), ch.tm.offset);
}
 8006dc4:	bc30      	pop	{r4, r5}
 8006dc6:	4770      	bx	lr
  tmp->n++;
  tmp->last = (now - tmp->last) - offset;
  tmp->cumulative += (rttime_t)tmp->last;
  /*lint -save -e9013 [15.7] There is no else because it is not needed.*/
  if (tmp->last > tmp->worst) {
    tmp->worst = tmp->last;
 8006dc8:	6043      	str	r3, [r0, #4]
 8006dca:	e7fb      	b.n	8006dc4 <chTMStopMeasurementX+0x34>
 8006dcc:	e0001000 	.word	0xe0001000
 8006dd0:	20001260 	.word	0x20001260
 8006dd4:	f3af 8000 	nop.w
 8006dd8:	f3af 8000 	nop.w
 8006ddc:	f3af 8000 	nop.w

08006de0 <chSchDoRescheduleAhead>:
 * @special
 */
void chSchDoRescheduleAhead(void) {
  thread_t *otp, *cp;

  otp = currp;
 8006de0:	4a0d      	ldr	r2, [pc, #52]	; (8006e18 <chSchDoRescheduleAhead+0x38>)
 * @note    Not a user function, it is meant to be invoked by the scheduler
 *          itself or from within the port layer.
 *
 * @special
 */
void chSchDoRescheduleAhead(void) {
 8006de2:	b4f0      	push	{r4, r5, r6, r7}
  tp->p_prev->p_next = tp;
  tqp->p_prev = tp;
}

static inline thread_t *queue_fifo_remove(threads_queue_t *tqp) {
  thread_t *tp = tqp->p_next;
 8006de4:	6810      	ldr	r0, [r2, #0]
  thread_t *otp, *cp;

  otp = currp;
 8006de6:	6994      	ldr	r4, [r2, #24]

  tqp->p_next = tp->p_next;
 8006de8:	6805      	ldr	r5, [r0, #0]
#if defined(CH_CFG_IDLE_LEAVE_HOOK)
  if (otp->p_prio == IDLEPRIO) {
    CH_CFG_IDLE_LEAVE_HOOK();
  }
#endif
  currp->p_state = CH_STATE_CURRENT;
 8006dea:	2701      	movs	r7, #1

  otp->p_state = CH_STATE_READY;
 8006dec:	2600      	movs	r6, #0
 8006dee:	68a1      	ldr	r1, [r4, #8]
 8006df0:	462b      	mov	r3, r5
  tqp->p_next->p_prev = (thread_t *)tqp;
 8006df2:	606a      	str	r2, [r5, #4]
}

static inline thread_t *queue_fifo_remove(threads_queue_t *tqp) {
  thread_t *tp = tqp->p_next;

  tqp->p_next = tp->p_next;
 8006df4:	6015      	str	r5, [r2, #0]
#if defined(CH_CFG_IDLE_LEAVE_HOOK)
  if (otp->p_prio == IDLEPRIO) {
    CH_CFG_IDLE_LEAVE_HOOK();
  }
#endif
  currp->p_state = CH_STATE_CURRENT;
 8006df6:	7707      	strb	r7, [r0, #28]
void chSchDoRescheduleAhead(void) {
  thread_t *otp, *cp;

  otp = currp;
  /* Picks the first thread from the ready queue and makes it current.*/
  setcurrp(queue_fifo_remove(&ch.rlist.r_queue));
 8006df8:	6190      	str	r0, [r2, #24]
    CH_CFG_IDLE_LEAVE_HOOK();
  }
#endif
  currp->p_state = CH_STATE_CURRENT;

  otp->p_state = CH_STATE_READY;
 8006dfa:	7726      	strb	r6, [r4, #28]
 8006dfc:	e000      	b.n	8006e00 <chSchDoRescheduleAhead+0x20>
 8006dfe:	681b      	ldr	r3, [r3, #0]
  cp = (thread_t *)&ch.rlist.r_queue;
  do {
    cp = cp->p_next;
  } while (cp->p_prio > otp->p_prio);
 8006e00:	689a      	ldr	r2, [r3, #8]
 8006e02:	428a      	cmp	r2, r1
 8006e04:	d8fb      	bhi.n	8006dfe <chSchDoRescheduleAhead+0x1e>
  /* Insertion on p_prev.*/
  otp->p_next = cp;
  otp->p_prev = cp->p_prev;
 8006e06:	685a      	ldr	r2, [r3, #4]
  otp->p_prev->p_next = otp;
  cp->p_prev = otp;

  chSysSwitch(currp, otp);
 8006e08:	4621      	mov	r1, r4
  cp = (thread_t *)&ch.rlist.r_queue;
  do {
    cp = cp->p_next;
  } while (cp->p_prio > otp->p_prio);
  /* Insertion on p_prev.*/
  otp->p_next = cp;
 8006e0a:	6023      	str	r3, [r4, #0]
  otp->p_prev = cp->p_prev;
 8006e0c:	6062      	str	r2, [r4, #4]
  otp->p_prev->p_next = otp;
 8006e0e:	6014      	str	r4, [r2, #0]
  cp->p_prev = otp;
 8006e10:	605c      	str	r4, [r3, #4]

  chSysSwitch(currp, otp);
}
 8006e12:	bcf0      	pop	{r4, r5, r6, r7}
  otp->p_next = cp;
  otp->p_prev = cp->p_prev;
  otp->p_prev->p_next = otp;
  cp->p_prev = otp;

  chSysSwitch(currp, otp);
 8006e14:	f7fe ba04 	b.w	8005220 <_port_switch>
 8006e18:	20001260 	.word	0x20001260
 8006e1c:	f3af 8000 	nop.w

08006e20 <chSchDoReschedule>:
    chSchDoRescheduleAhead();
  }
#else /* !(CH_CFG_TIME_QUANTUM > 0) */
  /* If the round-robin mechanism is disabled then the thread goes always
     ahead of its peers.*/
  chSchDoRescheduleAhead();
 8006e20:	f7ff bfde 	b.w	8006de0 <chSchDoRescheduleAhead>
 8006e24:	f3af 8000 	nop.w
 8006e28:	f3af 8000 	nop.w
 8006e2c:	f3af 8000 	nop.w

08006e30 <chSchGoSleepS>:
void chSchGoSleepS(tstate_t newstate) {
  thread_t *otp;

  chDbgCheckClassS();

  otp = currp;
 8006e30:	4b07      	ldr	r3, [pc, #28]	; (8006e50 <chSchGoSleepS+0x20>)
 *
 * @param[in] newstate  the new thread state
 *
 * @sclass
 */
void chSchGoSleepS(tstate_t newstate) {
 8006e32:	b430      	push	{r4, r5}
  tp->p_prev->p_next = tp;
  tqp->p_prev = tp;
}

static inline thread_t *queue_fifo_remove(threads_queue_t *tqp) {
  thread_t *tp = tqp->p_next;
 8006e34:	681a      	ldr	r2, [r3, #0]
  thread_t *otp;

  chDbgCheckClassS();

  otp = currp;
 8006e36:	6999      	ldr	r1, [r3, #24]

  tqp->p_next = tp->p_next;
 8006e38:	6814      	ldr	r4, [r2, #0]
#if defined(CH_CFG_IDLE_ENTER_HOOK)
  if (currp->p_prio == IDLEPRIO) {
    CH_CFG_IDLE_ENTER_HOOK();
  }
#endif
  currp->p_state = CH_STATE_CURRENT;
 8006e3a:	2501      	movs	r5, #1
  thread_t *otp;

  chDbgCheckClassS();

  otp = currp;
  otp->p_state = newstate;
 8006e3c:	7708      	strb	r0, [r1, #28]
  tqp->p_next->p_prev = (thread_t *)tqp;
 8006e3e:	6063      	str	r3, [r4, #4]
#if defined(CH_CFG_IDLE_ENTER_HOOK)
  if (currp->p_prio == IDLEPRIO) {
    CH_CFG_IDLE_ENTER_HOOK();
  }
#endif
  currp->p_state = CH_STATE_CURRENT;
 8006e40:	7715      	strb	r5, [r2, #28]
}

static inline thread_t *queue_fifo_remove(threads_queue_t *tqp) {
  thread_t *tp = tqp->p_next;

  tqp->p_next = tp->p_next;
 8006e42:	601c      	str	r4, [r3, #0]
  chSysSwitch(currp, otp);
 8006e44:	4610      	mov	r0, r2
}
 8006e46:	bc30      	pop	{r4, r5}
#if CH_CFG_TIME_QUANTUM > 0
  /* The thread is renouncing its remaining time slices so it will have a new
     time quantum when it will wakeup.*/
  otp->p_preempt = (tslices_t)CH_CFG_TIME_QUANTUM;
#endif
  setcurrp(queue_fifo_remove(&ch.rlist.r_queue));
 8006e48:	619a      	str	r2, [r3, #24]
  if (currp->p_prio == IDLEPRIO) {
    CH_CFG_IDLE_ENTER_HOOK();
  }
#endif
  currp->p_state = CH_STATE_CURRENT;
  chSysSwitch(currp, otp);
 8006e4a:	f7fe b9e9 	b.w	8005220 <_port_switch>
 8006e4e:	bf00      	nop
 8006e50:	20001260 	.word	0x20001260
 8006e54:	f3af 8000 	nop.w
 8006e58:	f3af 8000 	nop.w
 8006e5c:	f3af 8000 	nop.w

08006e60 <chSchReadyI>:
 * @param[in] tp        the thread to be made ready
 * @return              The thread pointer.
 *
 * @iclass
 */
thread_t *chSchReadyI(thread_t *tp) {
 8006e60:	b410      	push	{r4}
 8006e62:	4604      	mov	r4, r0
  chDbgCheck(tp != NULL);
  chDbgAssert((tp->p_state != CH_STATE_READY) &&
              (tp->p_state != CH_STATE_FINAL),
              "invalid state");

  tp->p_state = CH_STATE_READY;
 8006e64:	2200      	movs	r2, #0
 8006e66:	6881      	ldr	r1, [r0, #8]
  cp = (thread_t *)&ch.rlist.r_queue;
 8006e68:	4b07      	ldr	r3, [pc, #28]	; (8006e88 <chSchReadyI+0x28>)
  chDbgCheck(tp != NULL);
  chDbgAssert((tp->p_state != CH_STATE_READY) &&
              (tp->p_state != CH_STATE_FINAL),
              "invalid state");

  tp->p_state = CH_STATE_READY;
 8006e6a:	7702      	strb	r2, [r0, #28]
  cp = (thread_t *)&ch.rlist.r_queue;
  do {
    cp = cp->p_next;
 8006e6c:	681b      	ldr	r3, [r3, #0]
  } while (cp->p_prio >= tp->p_prio);
 8006e6e:	689a      	ldr	r2, [r3, #8]
 8006e70:	428a      	cmp	r2, r1
 8006e72:	d2fb      	bcs.n	8006e6c <chSchReadyI+0xc>
  /* Insertion on p_prev.*/
  tp->p_next = cp;
  tp->p_prev = cp->p_prev;
 8006e74:	685a      	ldr	r2, [r3, #4]
  tp->p_prev->p_next = tp;
  cp->p_prev = tp;

  return tp;
}
 8006e76:	4620      	mov	r0, r4
  cp = (thread_t *)&ch.rlist.r_queue;
  do {
    cp = cp->p_next;
  } while (cp->p_prio >= tp->p_prio);
  /* Insertion on p_prev.*/
  tp->p_next = cp;
 8006e78:	6023      	str	r3, [r4, #0]
  tp->p_prev = cp->p_prev;
 8006e7a:	6062      	str	r2, [r4, #4]
  tp->p_prev->p_next = tp;
 8006e7c:	6014      	str	r4, [r2, #0]
  cp->p_prev = tp;
 8006e7e:	605c      	str	r4, [r3, #4]

  return tp;
}
 8006e80:	f85d 4b04 	ldr.w	r4, [sp], #4
 8006e84:	4770      	bx	lr
 8006e86:	bf00      	nop
 8006e88:	20001260 	.word	0x20001260
 8006e8c:	f3af 8000 	nop.w

08006e90 <chThdExit>:
 *
 * @param[in] msg       thread exit code
 *
 * @api
 */
void chThdExit(msg_t msg) {
 8006e90:	b538      	push	{r3, r4, r5, lr}
 8006e92:	2220      	movs	r2, #32
 8006e94:	4603      	mov	r3, r0
 8006e96:	f382 8811 	msr	BASEPRI, r2
 * @param[in] msg       thread exit code
 *
 * @sclass
 */
void chThdExitS(msg_t msg) {
  thread_t *tp = currp;
 8006e9a:	4a0e      	ldr	r2, [pc, #56]	; (8006ed4 <chThdExit+0x44>)
 8006e9c:	6994      	ldr	r4, [r2, #24]
 *
 * @notapi
 */
static inline bool list_notempty(threads_list_t *tlp) {

  return (bool)(tlp->p_next != (thread_t *)tlp);
 8006e9e:	6a60      	ldr	r0, [r4, #36]	; 0x24
  tp->p_u.exitcode = msg;
#if defined(CH_CFG_THREAD_EXIT_HOOK)
  CH_CFG_THREAD_EXIT_HOOK(tp);
#endif
#if CH_CFG_USE_WAITEXIT == TRUE
  while (list_notempty(&tp->p_waiting)) {
 8006ea0:	f104 0524 	add.w	r5, r4, #36	; 0x24
 8006ea4:	42a8      	cmp	r0, r5
 * @sclass
 */
void chThdExitS(msg_t msg) {
  thread_t *tp = currp;

  tp->p_u.exitcode = msg;
 8006ea6:	6223      	str	r3, [r4, #32]
#if defined(CH_CFG_THREAD_EXIT_HOOK)
  CH_CFG_THREAD_EXIT_HOOK(tp);
#endif
#if CH_CFG_USE_WAITEXIT == TRUE
  while (list_notempty(&tp->p_waiting)) {
 8006ea8:	d006      	beq.n	8006eb8 <chThdExit+0x28>
}

static inline thread_t *list_remove(threads_list_t *tlp) {

  thread_t *tp = tlp->p_next;
  tlp->p_next = tp->p_next;
 8006eaa:	6803      	ldr	r3, [r0, #0]
 8006eac:	6263      	str	r3, [r4, #36]	; 0x24
    (void) chSchReadyI(list_remove(&tp->p_waiting));
 8006eae:	f7ff ffd7 	bl	8006e60 <chSchReadyI>
 *
 * @notapi
 */
static inline bool list_notempty(threads_list_t *tlp) {

  return (bool)(tlp->p_next != (thread_t *)tlp);
 8006eb2:	6a60      	ldr	r0, [r4, #36]	; 0x24
  tp->p_u.exitcode = msg;
#if defined(CH_CFG_THREAD_EXIT_HOOK)
  CH_CFG_THREAD_EXIT_HOOK(tp);
#endif
#if CH_CFG_USE_WAITEXIT == TRUE
  while (list_notempty(&tp->p_waiting)) {
 8006eb4:	42a8      	cmp	r0, r5
 8006eb6:	d1f8      	bne.n	8006eaa <chThdExit+0x1a>
  }
#endif
#if CH_CFG_USE_REGISTRY == TRUE
  /* Static threads are immediately removed from the registry because
     there is no memory to recover.*/
  if ((tp->p_flags & CH_FLAG_MODE_MASK) == CH_FLAG_MODE_STATIC) {
 8006eb8:	7f63      	ldrb	r3, [r4, #29]
 8006eba:	079b      	lsls	r3, r3, #30
 8006ebc:	d104      	bne.n	8006ec8 <chThdExit+0x38>
    REG_REMOVE(tp);
 8006ebe:	6922      	ldr	r2, [r4, #16]
 8006ec0:	6963      	ldr	r3, [r4, #20]
 8006ec2:	611a      	str	r2, [r3, #16]
 8006ec4:	6922      	ldr	r2, [r4, #16]
 8006ec6:	6153      	str	r3, [r2, #20]
  }
#endif
  chSchGoSleepS(CH_STATE_FINAL);
 8006ec8:	200f      	movs	r0, #15
void chThdExit(msg_t msg) {

  chSysLock();
  chThdExitS(msg);
  /* The thread never returns here.*/
}
 8006eca:	e8bd 4038 	ldmia.w	sp!, {r3, r4, r5, lr}
     there is no memory to recover.*/
  if ((tp->p_flags & CH_FLAG_MODE_MASK) == CH_FLAG_MODE_STATIC) {
    REG_REMOVE(tp);
  }
#endif
  chSchGoSleepS(CH_STATE_FINAL);
 8006ece:	f7ff bfaf 	b.w	8006e30 <chSchGoSleepS>
 8006ed2:	bf00      	nop
 8006ed4:	20001260 	.word	0x20001260
 8006ed8:	f3af 8000 	nop.w
 8006edc:	f3af 8000 	nop.w

08006ee0 <chVTDoResetI>:
#else /* CH_CFG_ST_TIMEDELTA > 0 */
  systime_t nowdelta, delta;

  /* If the timer is not the first of the list then it is simply unlinked
     else the operation is more complex.*/
  if (ch.vtlist.vt_next != vtp) {
 8006ee0:	4b1c      	ldr	r3, [pc, #112]	; (8006f54 <chVTDoResetI+0x74>)
 *
 * @param[in] vtp       the @p virtual_timer_t structure pointer
 *
 * @iclass
 */
void chVTDoResetI(virtual_timer_t *vtp) {
 8006ee2:	b470      	push	{r4, r5, r6}
#else /* CH_CFG_ST_TIMEDELTA > 0 */
  systime_t nowdelta, delta;

  /* If the timer is not the first of the list then it is simply unlinked
     else the operation is more complex.*/
  if (ch.vtlist.vt_next != vtp) {
 8006ee4:	69da      	ldr	r2, [r3, #28]
 8006ee6:	4282      	cmp	r2, r0
 8006ee8:	d00f      	beq.n	8006f0a <chVTDoResetI+0x2a>
    /* Removing the element from the delta list.*/
    vtp->vt_prev->vt_next = vtp->vt_next;
 8006eea:	6802      	ldr	r2, [r0, #0]
 8006eec:	6841      	ldr	r1, [r0, #4]
    vtp->vt_next->vt_prev = vtp->vt_prev;
    vtp->vt_func = NULL;

    /* Adding delta to the next element, if it is not the last one.*/
    if (&ch.vtlist != (virtual_timers_list_t *)vtp->vt_next)
 8006eee:	331c      	adds	r3, #28

  /* If the timer is not the first of the list then it is simply unlinked
     else the operation is more complex.*/
  if (ch.vtlist.vt_next != vtp) {
    /* Removing the element from the delta list.*/
    vtp->vt_prev->vt_next = vtp->vt_next;
 8006ef0:	600a      	str	r2, [r1, #0]
    vtp->vt_next->vt_prev = vtp->vt_prev;
 8006ef2:	6802      	ldr	r2, [r0, #0]
    vtp->vt_func = NULL;
 8006ef4:	2400      	movs	r4, #0

    /* Adding delta to the next element, if it is not the last one.*/
    if (&ch.vtlist != (virtual_timers_list_t *)vtp->vt_next)
 8006ef6:	429a      	cmp	r2, r3
  /* If the timer is not the first of the list then it is simply unlinked
     else the operation is more complex.*/
  if (ch.vtlist.vt_next != vtp) {
    /* Removing the element from the delta list.*/
    vtp->vt_prev->vt_next = vtp->vt_next;
    vtp->vt_next->vt_prev = vtp->vt_prev;
 8006ef8:	6051      	str	r1, [r2, #4]
    vtp->vt_func = NULL;
 8006efa:	60c4      	str	r4, [r0, #12]

    /* Adding delta to the next element, if it is not the last one.*/
    if (&ch.vtlist != (virtual_timers_list_t *)vtp->vt_next)
 8006efc:	d003      	beq.n	8006f06 <chVTDoResetI+0x26>
      vtp->vt_next->vt_delta += vtp->vt_delta;
 8006efe:	8901      	ldrh	r1, [r0, #8]
 8006f00:	8913      	ldrh	r3, [r2, #8]
 8006f02:	440b      	add	r3, r1
 8006f04:	8113      	strh	r3, [r2, #8]
    delta = (systime_t)CH_CFG_ST_TIMEDELTA;
  }

  port_timer_set_alarm(ch.vtlist.vt_lasttime + nowdelta + delta);
#endif /* CH_CFG_ST_TIMEDELTA > 0 */
}
 8006f06:	bc70      	pop	{r4, r5, r6}
 8006f08:	4770      	bx	lr

    return;
  }

  /* Removing the first timer from the list.*/
  ch.vtlist.vt_next = vtp->vt_next;
 8006f0a:	4619      	mov	r1, r3
 8006f0c:	6815      	ldr	r5, [r2, #0]
  ch.vtlist.vt_next->vt_prev = (virtual_timer_t *)&ch.vtlist;
  vtp->vt_func = NULL;
 8006f0e:	2000      	movs	r0, #0

    return;
  }

  /* Removing the first timer from the list.*/
  ch.vtlist.vt_next = vtp->vt_next;
 8006f10:	f841 5f1c 	str.w	r5, [r1, #28]!
  ch.vtlist.vt_next->vt_prev = (virtual_timer_t *)&ch.vtlist;
  vtp->vt_func = NULL;

  /* If the list become empty then the alarm timer is stopped and done.*/
  if (&ch.vtlist == (virtual_timers_list_t *)ch.vtlist.vt_next) {
 8006f14:	428d      	cmp	r5, r1
    return;
  }

  /* Removing the first timer from the list.*/
  ch.vtlist.vt_next = vtp->vt_next;
  ch.vtlist.vt_next->vt_prev = (virtual_timer_t *)&ch.vtlist;
 8006f16:	6069      	str	r1, [r5, #4]
  vtp->vt_func = NULL;
 8006f18:	60d0      	str	r0, [r2, #12]

  /* If the list become empty then the alarm timer is stopped and done.*/
  if (&ch.vtlist == (virtual_timers_list_t *)ch.vtlist.vt_next) {
 8006f1a:	d016      	beq.n	8006f4a <chVTDoResetI+0x6a>
 *
 * @notapi
 */
static inline systime_t st_lld_get_counter(void) {

  return (systime_t)STM32_ST_TIM->CNT;
 8006f1c:	f04f 4080 	mov.w	r0, #1073741824	; 0x40000000
 8006f20:	6a41      	ldr	r1, [r0, #36]	; 0x24

    return;
  }

  /* The delta of the removed timer is added to the new first timer.*/
  ch.vtlist.vt_next->vt_delta += vtp->vt_delta;
 8006f22:	8916      	ldrh	r6, [r2, #8]
/*  if (ch.vtlist.vt_next->vt_delta == 0) {
    return;
  }*/

  /* Distance in ticks between the last alarm event and current time.*/
  nowdelta = chVTGetSystemTimeX() - ch.vtlist.vt_lasttime;
 8006f24:	8cdc      	ldrh	r4, [r3, #38]	; 0x26

    return;
  }

  /* The delta of the removed timer is added to the new first timer.*/
  ch.vtlist.vt_next->vt_delta += vtp->vt_delta;
 8006f26:	892a      	ldrh	r2, [r5, #8]
 8006f28:	b289      	uxth	r1, r1
 8006f2a:	18b3      	adds	r3, r6, r2
/*  if (ch.vtlist.vt_next->vt_delta == 0) {
    return;
  }*/

  /* Distance in ticks between the last alarm event and current time.*/
  nowdelta = chVTGetSystemTimeX() - ch.vtlist.vt_lasttime;
 8006f2c:	1b0a      	subs	r2, r1, r4

    return;
  }

  /* The delta of the removed timer is added to the new first timer.*/
  ch.vtlist.vt_next->vt_delta += vtp->vt_delta;
 8006f2e:	b29b      	uxth	r3, r3
/*  if (ch.vtlist.vt_next->vt_delta == 0) {
    return;
  }*/

  /* Distance in ticks between the last alarm event and current time.*/
  nowdelta = chVTGetSystemTimeX() - ch.vtlist.vt_lasttime;
 8006f30:	b292      	uxth	r2, r2

  /* If the current time surpassed the time of the next element in list
     then the event interrupt is already pending, just return.*/
  if (nowdelta >= ch.vtlist.vt_next->vt_delta) {
 8006f32:	4293      	cmp	r3, r2

    return;
  }

  /* The delta of the removed timer is added to the new first timer.*/
  ch.vtlist.vt_next->vt_delta += vtp->vt_delta;
 8006f34:	812b      	strh	r3, [r5, #8]
  /* Distance in ticks between the last alarm event and current time.*/
  nowdelta = chVTGetSystemTimeX() - ch.vtlist.vt_lasttime;

  /* If the current time surpassed the time of the next element in list
     then the event interrupt is already pending, just return.*/
  if (nowdelta >= ch.vtlist.vt_next->vt_delta) {
 8006f36:	d9e6      	bls.n	8006f06 <chVTDoResetI+0x26>
    return;
  }

  /* Distance from the next scheduled event and now.*/
  delta = ch.vtlist.vt_next->vt_delta - nowdelta;
 8006f38:	1a9b      	subs	r3, r3, r2
 8006f3a:	b29b      	uxth	r3, r3

  /* Making sure to not schedule an event closer than CH_CFG_ST_TIMEDELTA
     ticks from now.*/
  if (delta < (systime_t)CH_CFG_ST_TIMEDELTA) {
 8006f3c:	2b01      	cmp	r3, #1
    delta = (systime_t)CH_CFG_ST_TIMEDELTA;
 8006f3e:	bf98      	it	ls
 8006f40:	2302      	movls	r3, #2
  }

  port_timer_set_alarm(ch.vtlist.vt_lasttime + nowdelta + delta);
 8006f42:	440b      	add	r3, r1
 *
 * @notapi
 */
static inline void st_lld_set_alarm(systime_t time) {

  STM32_ST_TIM->CCR[0] = (uint32_t)time;
 8006f44:	b29b      	uxth	r3, r3
 8006f46:	6343      	str	r3, [r0, #52]	; 0x34
 8006f48:	e7dd      	b.n	8006f06 <chVTDoResetI+0x26>
 *
 * @notapi
 */
static inline void st_lld_stop_alarm(void) {

  STM32_ST_TIM->DIER = 0;
 8006f4a:	f04f 4380 	mov.w	r3, #1073741824	; 0x40000000
 8006f4e:	60d8      	str	r0, [r3, #12]
 8006f50:	e7d9      	b.n	8006f06 <chVTDoResetI+0x26>
 8006f52:	bf00      	nop
 8006f54:	20001260 	.word	0x20001260
 8006f58:	f3af 8000 	nop.w
 8006f5c:	f3af 8000 	nop.w

08006f60 <chVTDoSetI>:
 *                      function
 *
 * @iclass
 */
void chVTDoSetI(virtual_timer_t *vtp, systime_t delay,
                vtfunc_t vtfunc, void *par) {
 8006f60:	b5f0      	push	{r4, r5, r6, r7, lr}
    if (delay < (systime_t)CH_CFG_ST_TIMEDELTA) {
      delay = (systime_t)CH_CFG_ST_TIMEDELTA;
    }

    /* Special case where the timers list is empty.*/
    if (&ch.vtlist == (virtual_timers_list_t *)ch.vtlist.vt_next) {
 8006f62:	4e1e      	ldr	r6, [pc, #120]	; (8006fdc <chVTDoSetI+0x7c>)
 *
 * @notapi
 */
static inline systime_t st_lld_get_counter(void) {

  return (systime_t)STM32_ST_TIM->CNT;
 8006f64:	f04f 4780 	mov.w	r7, #1073741824	; 0x40000000
 8006f68:	46b6      	mov	lr, r6
 8006f6a:	f85e 4f1c 	ldr.w	r4, [lr, #28]!
 8006f6e:	6a7d      	ldr	r5, [r7, #36]	; 0x24
    systime_t now = chVTGetSystemTimeX();

    /* If the requested delay is lower than the minimum safe delta then it
       is raised to the minimum safe value.*/
    if (delay < (systime_t)CH_CFG_ST_TIMEDELTA) {
      delay = (systime_t)CH_CFG_ST_TIMEDELTA;
 8006f70:	2901      	cmp	r1, #1
 8006f72:	bf98      	it	ls
 8006f74:	2102      	movls	r1, #2
    }

    /* Special case where the timers list is empty.*/
    if (&ch.vtlist == (virtual_timers_list_t *)ch.vtlist.vt_next) {
 8006f76:	4574      	cmp	r4, lr
  systime_t delta;

  chDbgCheckClassI();
  chDbgCheck((vtp != NULL) && (vtfunc != NULL) && (delay != TIME_IMMEDIATE));

  vtp->vt_par = par;
 8006f78:	6103      	str	r3, [r0, #16]
  vtp->vt_func = vtfunc;
 8006f7a:	60c2      	str	r2, [r0, #12]
 8006f7c:	b2ab      	uxth	r3, r5
    if (delay < (systime_t)CH_CFG_ST_TIMEDELTA) {
      delay = (systime_t)CH_CFG_ST_TIMEDELTA;
    }

    /* Special case where the timers list is empty.*/
    if (&ch.vtlist == (virtual_timers_list_t *)ch.vtlist.vt_next) {
 8006f7e:	d01d      	beq.n	8006fbc <chVTDoSetI+0x5c>
      return;
    }

    /* Special case where the timer will be placed as first element in a
       non-empty list, the alarm needs to be recalculated.*/
    delta = now + delay - ch.vtlist.vt_lasttime;
 8006f80:	4419      	add	r1, r3
 8006f82:	8cf3      	ldrh	r3, [r6, #38]	; 0x26
 8006f84:	b289      	uxth	r1, r1
    if (delta < ch.vtlist.vt_next->vt_delta) {
 8006f86:	8922      	ldrh	r2, [r4, #8]
      return;
    }

    /* Special case where the timer will be placed as first element in a
       non-empty list, the alarm needs to be recalculated.*/
    delta = now + delay - ch.vtlist.vt_lasttime;
 8006f88:	1acb      	subs	r3, r1, r3
 8006f8a:	b29b      	uxth	r3, r3
    if (delta < ch.vtlist.vt_next->vt_delta) {
 8006f8c:	4293      	cmp	r3, r2
 *
 * @notapi
 */
static inline void st_lld_set_alarm(systime_t time) {

  STM32_ST_TIM->CCR[0] = (uint32_t)time;
 8006f8e:	bf38      	it	cc
 8006f90:	6379      	strcc	r1, [r7, #52]	; 0x34
#endif /* CH_CFG_ST_TIMEDELTA == 0 */

  /* The delta list is scanned in order to find the correct position for
     this timer. */
  p = ch.vtlist.vt_next;
  while (p->vt_delta < delta) {
 8006f92:	4293      	cmp	r3, r2
 8006f94:	d905      	bls.n	8006fa2 <chVTDoSetI+0x42>
    delta -= p->vt_delta;
    p = p->vt_next;
 8006f96:	6824      	ldr	r4, [r4, #0]

  /* The delta list is scanned in order to find the correct position for
     this timer. */
  p = ch.vtlist.vt_next;
  while (p->vt_delta < delta) {
    delta -= p->vt_delta;
 8006f98:	1a9b      	subs	r3, r3, r2
#endif /* CH_CFG_ST_TIMEDELTA == 0 */

  /* The delta list is scanned in order to find the correct position for
     this timer. */
  p = ch.vtlist.vt_next;
  while (p->vt_delta < delta) {
 8006f9a:	8922      	ldrh	r2, [r4, #8]
    delta -= p->vt_delta;
 8006f9c:	b29b      	uxth	r3, r3
#endif /* CH_CFG_ST_TIMEDELTA == 0 */

  /* The delta list is scanned in order to find the correct position for
     this timer. */
  p = ch.vtlist.vt_next;
  while (p->vt_delta < delta) {
 8006f9e:	429a      	cmp	r2, r3
 8006fa0:	d3f9      	bcc.n	8006f96 <chVTDoSetI+0x36>
  vtp->vt_delta = delta

  /* Special case when the timer is in last position in the list, the
     value in the header must be restored.*/;
  p->vt_delta -= delta;
  ch.vtlist.vt_delta = (systime_t)-1;
 8006fa2:	f64f 71ff 	movw	r1, #65535	; 0xffff
    p = p->vt_next;
  }

  /* The timer is inserted in the delta list.*/
  vtp->vt_next = p;
  vtp->vt_prev = vtp->vt_next->vt_prev;
 8006fa6:	6862      	ldr	r2, [r4, #4]
    delta -= p->vt_delta;
    p = p->vt_next;
  }

  /* The timer is inserted in the delta list.*/
  vtp->vt_next = p;
 8006fa8:	6004      	str	r4, [r0, #0]
  vtp->vt_prev = vtp->vt_next->vt_prev;
 8006faa:	6042      	str	r2, [r0, #4]
  vtp->vt_prev->vt_next = vtp;
 8006fac:	6010      	str	r0, [r2, #0]
  p->vt_prev = vtp;
 8006fae:	6060      	str	r0, [r4, #4]
  vtp->vt_delta = delta
 8006fb0:	8103      	strh	r3, [r0, #8]

  /* Special case when the timer is in last position in the list, the
     value in the header must be restored.*/;
  p->vt_delta -= delta;
 8006fb2:	8922      	ldrh	r2, [r4, #8]
 8006fb4:	1ad3      	subs	r3, r2, r3
 8006fb6:	8123      	strh	r3, [r4, #8]
  ch.vtlist.vt_delta = (systime_t)-1;
 8006fb8:	84b1      	strh	r1, [r6, #36]	; 0x24
 8006fba:	bdf0      	pop	{r4, r5, r6, r7, pc}
      vtp->vt_next = (virtual_timer_t *)&ch.vtlist;
      vtp->vt_prev = (virtual_timer_t *)&ch.vtlist;
      vtp->vt_delta = delay;

      /* Being the first element in the list the alarm timer is started.*/
      port_timer_start_alarm(ch.vtlist.vt_lasttime + delay);
 8006fbc:	18ca      	adds	r2, r1, r3
 *
 * @notapi
 */
static inline void st_lld_start_alarm(systime_t time) {

  STM32_ST_TIM->CCR[0] = (uint32_t)time;
 8006fbe:	b292      	uxth	r2, r2
  STM32_ST_TIM->SR     = 0;
 8006fc0:	f04f 0e00 	mov.w	lr, #0
  STM32_ST_TIM->DIER   = STM32_TIM_DIER_CC1IE;
 8006fc4:	2502      	movs	r5, #2
    /* Special case where the timers list is empty.*/
    if (&ch.vtlist == (virtual_timers_list_t *)ch.vtlist.vt_next) {

      /* The delta list is empty, the current time becomes the new
         delta list base time, the timer is inserted.*/
      ch.vtlist.vt_lasttime = now;
 8006fc6:	84f3      	strh	r3, [r6, #38]	; 0x26
      ch.vtlist.vt_next = vtp;
 8006fc8:	61f0      	str	r0, [r6, #28]
      ch.vtlist.vt_prev = vtp;
 8006fca:	6230      	str	r0, [r6, #32]
      vtp->vt_next = (virtual_timer_t *)&ch.vtlist;
 8006fcc:	6004      	str	r4, [r0, #0]
      vtp->vt_prev = (virtual_timer_t *)&ch.vtlist;
 8006fce:	6044      	str	r4, [r0, #4]
      vtp->vt_delta = delay;
 8006fd0:	8101      	strh	r1, [r0, #8]
 *
 * @notapi
 */
static inline void st_lld_start_alarm(systime_t time) {

  STM32_ST_TIM->CCR[0] = (uint32_t)time;
 8006fd2:	637a      	str	r2, [r7, #52]	; 0x34
  STM32_ST_TIM->SR     = 0;
 8006fd4:	f8c7 e010 	str.w	lr, [r7, #16]
  STM32_ST_TIM->DIER   = STM32_TIM_DIER_CC1IE;
 8006fd8:	60fd      	str	r5, [r7, #12]
 8006fda:	bdf0      	pop	{r4, r5, r6, r7, pc}
 8006fdc:	20001260 	.word	0x20001260

08006fe0 <chThdSleep>:
 *                      - @a TIME_IMMEDIATE this value is not allowed.
 *                      .
 *
 * @api
 */
void chThdSleep(systime_t time) {
 8006fe0:	b500      	push	{lr}
 8006fe2:	2320      	movs	r3, #32
 8006fe4:	b087      	sub	sp, #28
 8006fe6:	f383 8811 	msr	BASEPRI, r3
 */
msg_t chSchGoSleepTimeoutS(tstate_t newstate, systime_t time) {

  chDbgCheckClassS();

  if (TIME_INFINITE != time) {
 8006fea:	f64f 73ff 	movw	r3, #65535	; 0xffff
 8006fee:	4298      	cmp	r0, r3
 8006ff0:	d014      	beq.n	800701c <chThdSleep+0x3c>
    virtual_timer_t vt;

    chVTDoSetI(&vt, time, wakeup, currp);
 8006ff2:	4b0f      	ldr	r3, [pc, #60]	; (8007030 <chThdSleep+0x50>)
 8006ff4:	4601      	mov	r1, r0
 8006ff6:	699b      	ldr	r3, [r3, #24]
 8006ff8:	a801      	add	r0, sp, #4
 8006ffa:	4a0e      	ldr	r2, [pc, #56]	; (8007034 <chThdSleep+0x54>)
 8006ffc:	f7ff ffb0 	bl	8006f60 <chVTDoSetI>
    chSchGoSleepS(newstate);
 8007000:	2008      	movs	r0, #8
 8007002:	f7ff ff15 	bl	8006e30 <chSchGoSleepS>
    if (chVTIsArmedI(&vt)) {
 8007006:	9b04      	ldr	r3, [sp, #16]
 8007008:	b113      	cbz	r3, 8007010 <chThdSleep+0x30>
      chVTDoResetI(&vt);
 800700a:	a801      	add	r0, sp, #4
 800700c:	f7ff ff68 	bl	8006ee0 <chVTDoResetI>
 8007010:	2300      	movs	r3, #0
 8007012:	f383 8811 	msr	BASEPRI, r3

  chSysLock();
  chThdSleepS(time);
  chSysUnlock();
}
 8007016:	b007      	add	sp, #28
 8007018:	f85d fb04 	ldr.w	pc, [sp], #4
    }
  }
  else {
    chSchGoSleepS(newstate);
 800701c:	2008      	movs	r0, #8
 800701e:	f7ff ff07 	bl	8006e30 <chSchGoSleepS>
 8007022:	2300      	movs	r3, #0
 8007024:	f383 8811 	msr	BASEPRI, r3
 8007028:	b007      	add	sp, #28
 800702a:	f85d fb04 	ldr.w	pc, [sp], #4
 800702e:	bf00      	nop
 8007030:	20001260 	.word	0x20001260
 8007034:	08006591 	.word	0x08006591
 8007038:	f3af 8000 	nop.w
 800703c:	f3af 8000 	nop.w

08007040 <BusFault_Handler>:
 *          This function simply stops the system into an infinite loop.
 *
 * @notapi
 */
/*lint -save -e9075 [8.4] All symbols are invoked from asm context.*/
void _unhandled_exception(void) {
 8007040:	e7fe      	b.n	8007040 <BusFault_Handler>
 8007042:	bf00      	nop
 8007044:	f3af 8000 	nop.w
 8007048:	f3af 8000 	nop.w
 800704c:	f3af 8000 	nop.w

08007050 <__default_exit>:
 */
#if !defined(__DOXYGEN__)
__attribute__((noreturn, weak))
#endif
/*lint -save -e9075 [8.4] All symbols are invoked from asm context.*/
void __default_exit(void) {
 8007050:	e7fe      	b.n	8007050 <__default_exit>
 8007052:	bf00      	nop
 8007054:	f3af 8000 	nop.w
 8007058:	f3af 8000 	nop.w
 800705c:	f3af 8000 	nop.w

08007060 <__late_init>:
 */
#if !defined(__DOXYGEN__)
__attribute__((weak))
#endif
/*lint -save -e9075 [8.4] All symbols are invoked from asm context.*/
void __late_init(void) {}
 8007060:	4770      	bx	lr
 8007062:	bf00      	nop
 8007064:	f3af 8000 	nop.w
 8007068:	f3af 8000 	nop.w
 800706c:	f3af 8000 	nop.w

08007070 <__core_init>:
 */
#if !defined(__DOXYGEN__)
__attribute__((weak))
#endif
/*lint -save -e9075 [8.4] All symbols are invoked from asm context.*/
void __core_init(void) {
 8007070:	4770      	bx	lr
 8007072:	bf00      	nop
 8007074:	f3af 8000 	nop.w
 8007078:	f3af 8000 	nop.w
 800707c:	f3af 8000 	nop.w

08007080 <extra_in_cb>:
 */

#ifdef EXTRAKEY_ENABLE

/* extrakey IN callback hander */
void extra_in_cb(USBDriver *usbp, usbep_t ep) {
 8007080:	4770      	bx	lr
 8007082:	bf00      	nop
 8007084:	f3af 8000 	nop.w
 8007088:	f3af 8000 	nop.w
 800708c:	f3af 8000 	nop.w

08007090 <mouse_in_cb>:
 */

#ifdef MOUSE_ENABLE

/* mouse IN callback hander (a mouse report has made it IN) */
void mouse_in_cb(USBDriver *usbp, usbep_t ep) {
 8007090:	4770      	bx	lr
 8007092:	bf00      	nop
 8007094:	f3af 8000 	nop.w
 8007098:	f3af 8000 	nop.w
 800709c:	f3af 8000 	nop.w

080070a0 <keyboard_leds>:
  osalSysUnlockFromISR();
}

/* LED status */
uint8_t keyboard_leds(void) {
  return (uint8_t)(keyboard_led_stats & 0xFF);
 80070a0:	4b01      	ldr	r3, [pc, #4]	; (80070a8 <keyboard_leds+0x8>)
}
 80070a2:	7818      	ldrb	r0, [r3, #0]
 80070a4:	4770      	bx	lr
 80070a6:	bf00      	nop
 80070a8:	20001440 	.word	0x20001440
 80070ac:	f3af 8000 	nop.w

080070b0 <nkro_in_cb>:
  (void)ep;
}

#ifdef NKRO_ENABLE
/* nkro IN callback hander (a nkro report has made it IN) */
void nkro_in_cb(USBDriver *usbp, usbep_t ep) {
 80070b0:	4770      	bx	lr
 80070b2:	bf00      	nop
 80070b4:	f3af 8000 	nop.w
 80070b8:	f3af 8000 	nop.w
 80070bc:	f3af 8000 	nop.w

080070c0 <kbd_in_cb>:
 *                  Keyboard functions
 * ---------------------------------------------------------
 */

/* keyboard IN callback hander (a kbd report has made it IN) */
void kbd_in_cb(USBDriver *usbp, usbep_t ep) {
 80070c0:	4770      	bx	lr
 80070c2:	bf00      	nop
 80070c4:	f3af 8000 	nop.w
 80070c8:	f3af 8000 	nop.w
 80070cc:	f3af 8000 	nop.w

080070d0 <usb_sof_cb.lto_priv.64>:

  return FALSE;
}

/* Start-of-frame callback */
static void usb_sof_cb(USBDriver *usbp) {
 80070d0:	4770      	bx	lr
 80070d2:	bf00      	nop
 80070d4:	f3af 8000 	nop.w
 80070d8:	f3af 8000 	nop.w
 80070dc:	f3af 8000 	nop.w

080070e0 <usb_get_descriptor_cb.lto_priv.62>:
 * Returns the proper descriptor
 */
static const USBDescriptor *usb_get_descriptor_cb(USBDriver *usbp, uint8_t dtype, uint8_t dindex, uint16_t lang) {
  (void)usbp;
  (void)lang;
  switch(dtype) {
 80070e0:	3901      	subs	r1, #1
 80070e2:	2921      	cmp	r1, #33	; 0x21
 80070e4:	d812      	bhi.n	800710c <usb_get_descriptor_cb.lto_priv.62+0x2c>
 80070e6:	e8df f001 	tbb	[pc, r1]
 80070ea:	291a      	.short	0x291a
 80070ec:	11111123 	.word	0x11111123
 80070f0:	11111111 	.word	0x11111111
 80070f4:	11111111 	.word	0x11111111
 80070f8:	11111111 	.word	0x11111111
 80070fc:	11111111 	.word	0x11111111
 8007100:	11111111 	.word	0x11111111
 8007104:	11111111 	.word	0x11111111
 8007108:	131c1111 	.word	0x131c1111
    case NKRO_INTERFACE:
      return &nkro_hid_report_descriptor;
#endif /* NKRO_ENABLE */
    }
  }
  return NULL;
 800710c:	2000      	movs	r0, #0
 800710e:	4770      	bx	lr
      return &nkro_hid_descriptor;
#endif /* NKRO_ENABLE */
    }

  case USB_DESCRIPTOR_HID_REPORT:       /* HID Report Descriptor */
    switch(lang) {
 8007110:	2b04      	cmp	r3, #4
 8007112:	d8fb      	bhi.n	800710c <usb_get_descriptor_cb.lto_priv.62+0x2c>
 8007114:	e8df f003 	tbb	[pc, r3]
 8007118:	181a1c14 	.word	0x181a1c14
 800711c:	16          	.byte	0x16
 800711d:	00          	.byte	0x00
  (void)usbp;
  (void)lang;
  switch(dtype) {
  /* Generic descriptors */
  case USB_DESCRIPTOR_DEVICE:   /* Device Descriptor */
    return &usb_device_descriptor;
 800711e:	4812      	ldr	r0, [pc, #72]	; (8007168 <usb_get_descriptor_cb.lto_priv.62+0x88>)
 8007120:	4770      	bx	lr
      return &usb_strings[dindex];
    break;

  /* HID specific descriptors */
  case USB_DESCRIPTOR_HID:      /* HID Descriptors */
    switch(lang) {    /* yea, poor label, it's actually wIndex from the setup packet */
 8007122:	2b04      	cmp	r3, #4
 8007124:	d8f4      	bhi.n	8007110 <usb_get_descriptor_cb.lto_priv.62+0x30>
 8007126:	e8df f003 	tbb	[pc, r3]
 800712a:	1915      	.short	0x1915
 800712c:	1b1d      	.short	0x1b1d
 800712e:	17          	.byte	0x17
 800712f:	00          	.byte	0x00

  case USB_DESCRIPTOR_CONFIGURATION:    /* Configuration Descriptor */
    return &hid_configuration_descriptor;

  case USB_DESCRIPTOR_STRING:   /* Strings */
    if(dindex < 4)
 8007130:	2a03      	cmp	r2, #3
 8007132:	d8eb      	bhi.n	800710c <usb_get_descriptor_cb.lto_priv.62+0x2c>
      return &usb_strings[dindex];
 8007134:	4b0d      	ldr	r3, [pc, #52]	; (800716c <usb_get_descriptor_cb.lto_priv.62+0x8c>)
 8007136:	eb03 00c2 	add.w	r0, r3, r2, lsl #3
 800713a:	4770      	bx	lr
  /* Generic descriptors */
  case USB_DESCRIPTOR_DEVICE:   /* Device Descriptor */
    return &usb_device_descriptor;

  case USB_DESCRIPTOR_CONFIGURATION:    /* Configuration Descriptor */
    return &hid_configuration_descriptor;
 800713c:	480c      	ldr	r0, [pc, #48]	; (8007170 <usb_get_descriptor_cb.lto_priv.62+0x90>)
 800713e:	4770      	bx	lr
    }

  case USB_DESCRIPTOR_HID_REPORT:       /* HID Report Descriptor */
    switch(lang) {
    case KBD_INTERFACE:
      return &keyboard_hid_report_descriptor;
 8007140:	480c      	ldr	r0, [pc, #48]	; (8007174 <usb_get_descriptor_cb.lto_priv.62+0x94>)
      return &nkro_hid_report_descriptor;
#endif /* NKRO_ENABLE */
    }
  }
  return NULL;
}
 8007142:	4770      	bx	lr
    case EXTRA_INTERFACE:
      return &extra_hid_report_descriptor;
#endif /* EXTRAKEY_ENABLE */
#ifdef NKRO_ENABLE
    case NKRO_INTERFACE:
      return &nkro_hid_report_descriptor;
 8007144:	480c      	ldr	r0, [pc, #48]	; (8007178 <usb_get_descriptor_cb.lto_priv.62+0x98>)
 8007146:	4770      	bx	lr
    case CONSOLE_INTERFACE:
      return &console_hid_report_descriptor;
#endif /* CONSOLE_ENABLE */
#ifdef EXTRAKEY_ENABLE
    case EXTRA_INTERFACE:
      return &extra_hid_report_descriptor;
 8007148:	480c      	ldr	r0, [pc, #48]	; (800717c <usb_get_descriptor_cb.lto_priv.62+0x9c>)
 800714a:	4770      	bx	lr
    case MOUSE_INTERFACE:
      return &mouse_hid_report_descriptor;
#endif /* MOUSE_ENABLE */
#ifdef CONSOLE_ENABLE
    case CONSOLE_INTERFACE:
      return &console_hid_report_descriptor;
 800714c:	480c      	ldr	r0, [pc, #48]	; (8007180 <usb_get_descriptor_cb.lto_priv.62+0xa0>)
 800714e:	4770      	bx	lr
    case KBD_INTERFACE:
      return &keyboard_hid_report_descriptor;

#ifdef MOUSE_ENABLE
    case MOUSE_INTERFACE:
      return &mouse_hid_report_descriptor;
 8007150:	480c      	ldr	r0, [pc, #48]	; (8007184 <usb_get_descriptor_cb.lto_priv.62+0xa4>)
 8007152:	4770      	bx	lr

  /* HID specific descriptors */
  case USB_DESCRIPTOR_HID:      /* HID Descriptors */
    switch(lang) {    /* yea, poor label, it's actually wIndex from the setup packet */
    case KBD_INTERFACE:
      return &keyboard_hid_descriptor;
 8007154:	480c      	ldr	r0, [pc, #48]	; (8007188 <usb_get_descriptor_cb.lto_priv.62+0xa8>)
 8007156:	4770      	bx	lr
    case EXTRA_INTERFACE:
      return &extra_hid_descriptor;
#endif /* EXTRAKEY_ENABLE */
#ifdef NKRO_ENABLE
    case NKRO_INTERFACE:
      return &nkro_hid_descriptor;
 8007158:	480c      	ldr	r0, [pc, #48]	; (800718c <usb_get_descriptor_cb.lto_priv.62+0xac>)
 800715a:	4770      	bx	lr
    case KBD_INTERFACE:
      return &keyboard_hid_descriptor;

#ifdef MOUSE_ENABLE
    case MOUSE_INTERFACE:
      return &mouse_hid_descriptor;
 800715c:	480c      	ldr	r0, [pc, #48]	; (8007190 <usb_get_descriptor_cb.lto_priv.62+0xb0>)
 800715e:	4770      	bx	lr
    case CONSOLE_INTERFACE:
      return &console_hid_descriptor;
#endif /* CONSOLE_ENABLE */
#ifdef EXTRAKEY_ENABLE
    case EXTRA_INTERFACE:
      return &extra_hid_descriptor;
 8007160:	480c      	ldr	r0, [pc, #48]	; (8007194 <usb_get_descriptor_cb.lto_priv.62+0xb4>)
 8007162:	4770      	bx	lr
    case MOUSE_INTERFACE:
      return &mouse_hid_descriptor;
#endif /* MOUSE_ENABLE */
#ifdef CONSOLE_ENABLE
    case CONSOLE_INTERFACE:
      return &console_hid_descriptor;
 8007164:	480c      	ldr	r0, [pc, #48]	; (8007198 <usb_get_descriptor_cb.lto_priv.62+0xb8>)
 8007166:	4770      	bx	lr
 8007168:	0800a240 	.word	0x0800a240
 800716c:	08009f00 	.word	0x08009f00
 8007170:	08009ff0 	.word	0x08009ff0
 8007174:	0800a0e0 	.word	0x0800a0e0
 8007178:	0800a050 	.word	0x0800a050
 800717c:	0800a080 	.word	0x0800a080
 8007180:	0800a230 	.word	0x0800a230
 8007184:	08009fc0 	.word	0x08009fc0
 8007188:	0800a0a0 	.word	0x0800a0a0
 800718c:	0800a220 	.word	0x0800a220
 8007190:	0800a090 	.word	0x0800a090
 8007194:	0800a040 	.word	0x0800a040
 8007198:	0800a000 	.word	0x0800a000
 800719c:	f3af 8000 	nop.w

080071a0 <send_consumer>:
 80071a0:	2320      	movs	r3, #32
 80071a2:	f383 8811 	msr	BASEPRI, r3
  (void)ep;
}

static void send_extra_report(uint8_t report_id, uint16_t data) {
  osalSysLock();
  if(usbGetDriverStateI(&USB_DRIVER) != USB_ACTIVE) {
 80071a6:	4b06      	ldr	r3, [pc, #24]	; (80071c0 <send_consumer+0x20>)
 80071a8:	781b      	ldrb	r3, [r3, #0]
 80071aa:	2b04      	cmp	r3, #4
 80071ac:	d003      	beq.n	80071b6 <send_consumer+0x16>
 80071ae:	2300      	movs	r3, #0
 80071b0:	f383 8811 	msr	BASEPRI, r3
 80071b4:	4770      	bx	lr
 80071b6:	4601      	mov	r1, r0
 80071b8:	2003      	movs	r0, #3
 80071ba:	f7ff b981 	b.w	80064c0 <send_extra_report.part.2.lto_priv.67>
 80071be:	bf00      	nop
 80071c0:	200014b4 	.word	0x200014b4
 80071c4:	f3af 8000 	nop.w
 80071c8:	f3af 8000 	nop.w
 80071cc:	f3af 8000 	nop.w

080071d0 <send_system>:
 80071d0:	2320      	movs	r3, #32
 80071d2:	f383 8811 	msr	BASEPRI, r3
 80071d6:	4b06      	ldr	r3, [pc, #24]	; (80071f0 <send_system+0x20>)
 80071d8:	781b      	ldrb	r3, [r3, #0]
 80071da:	2b04      	cmp	r3, #4
 80071dc:	d003      	beq.n	80071e6 <send_system+0x16>
 80071de:	2300      	movs	r3, #0
 80071e0:	f383 8811 	msr	BASEPRI, r3
 80071e4:	4770      	bx	lr
 80071e6:	4601      	mov	r1, r0
 80071e8:	2002      	movs	r0, #2
 80071ea:	f7ff b969 	b.w	80064c0 <send_extra_report.part.2.lto_priv.67>
 80071ee:	bf00      	nop
 80071f0:	200014b4 	.word	0x200014b4
 80071f4:	f3af 8000 	nop.w
 80071f8:	f3af 8000 	nop.w
 80071fc:	f3af 8000 	nop.w

08007200 <send_mouse>:
void mouse_in_cb(USBDriver *usbp, usbep_t ep) {
  (void)usbp;
  (void)ep;
}

void send_mouse(report_mouse_t *report) {
 8007200:	b570      	push	{r4, r5, r6, lr}
 8007202:	2520      	movs	r5, #32
 8007204:	f385 8811 	msr	BASEPRI, r5
  osalSysLock();
  if(usbGetDriverStateI(&USB_DRIVER) != USB_ACTIVE) {
 8007208:	4c0c      	ldr	r4, [pc, #48]	; (800723c <send_mouse+0x3c>)
 800720a:	7823      	ldrb	r3, [r4, #0]
 800720c:	2b04      	cmp	r3, #4
 800720e:	d003      	beq.n	8007218 <send_mouse+0x18>
 8007210:	2300      	movs	r3, #0
 8007212:	f383 8811 	msr	BASEPRI, r3
 8007216:	bd70      	pop	{r4, r5, r6, pc}
 8007218:	4602      	mov	r2, r0
 800721a:	2600      	movs	r6, #0
 800721c:	f386 8811 	msr	BASEPRI, r6
  /* TODO: LUFA manually waits for the endpoint to become ready
   * for about 10ms for mouse, kbd, system; 1ms for nkro
   * is this really needed?
   */

  usbPrepareTransmit(&USB_DRIVER, MOUSE_ENDPOINT, (uint8_t *)report, sizeof(report_mouse_t));
 8007220:	2102      	movs	r1, #2
 8007222:	4620      	mov	r0, r4
 8007224:	2305      	movs	r3, #5
 8007226:	f7ff fd03 	bl	8006c30 <usbPrepareTransmit>
 800722a:	f385 8811 	msr	BASEPRI, r5
  osalSysLock();
  usbStartTransmitI(&USB_DRIVER, MOUSE_ENDPOINT);
 800722e:	2102      	movs	r1, #2
 8007230:	4620      	mov	r0, r4
 8007232:	f7ff fa0d 	bl	8006650 <usbStartTransmitI>
 8007236:	f386 8811 	msr	BASEPRI, r6
 800723a:	bd70      	pop	{r4, r5, r6, pc}
 800723c:	200014b4 	.word	0x200014b4

08007240 <send_keyboard>:
  return (uint8_t)(keyboard_led_stats & 0xFF);
}

/* prepare and start sending a report IN
 * not callable from ISR or locked state */
void send_keyboard(report_keyboard_t *report) {
 8007240:	b538      	push	{r3, r4, r5, lr}
 8007242:	2420      	movs	r4, #32
 8007244:	f384 8811 	msr	BASEPRI, r4
  osalSysLock();
  if(usbGetDriverStateI(&USB_DRIVER) != USB_ACTIVE) {
 8007248:	4b1b      	ldr	r3, [pc, #108]	; (80072b8 <send_keyboard+0x78>)
 800724a:	781a      	ldrb	r2, [r3, #0]
 800724c:	2a04      	cmp	r2, #4
 800724e:	d003      	beq.n	8007258 <send_keyboard+0x18>
 8007250:	2300      	movs	r3, #0
 8007252:	f383 8811 	msr	BASEPRI, r3
 8007256:	bd38      	pop	{r3, r4, r5, pc}
 8007258:	4605      	mov	r5, r0
 800725a:	2200      	movs	r2, #0
 800725c:	f382 8811 	msr	BASEPRI, r2
  }
  osalSysUnlock();

  bool ep_not_ready;
#ifdef NKRO_ENABLE
  if(keyboard_nkro) {  /* NKRO protocol */
 8007260:	4a16      	ldr	r2, [pc, #88]	; (80072bc <send_keyboard+0x7c>)
    usbPrepareTransmit(&USB_DRIVER, NKRO_ENDPOINT, (uint8_t *)report, sizeof(report_keyboard_t));
 8007262:	4618      	mov	r0, r3
  }
  osalSysUnlock();

  bool ep_not_ready;
#ifdef NKRO_ENABLE
  if(keyboard_nkro) {  /* NKRO protocol */
 8007264:	7812      	ldrb	r2, [r2, #0]
 8007266:	b1b2      	cbz	r2, 8007296 <send_keyboard+0x56>
    usbPrepareTransmit(&USB_DRIVER, NKRO_ENDPOINT, (uint8_t *)report, sizeof(report_keyboard_t));
 8007268:	2105      	movs	r1, #5
 800726a:	462a      	mov	r2, r5
 800726c:	2310      	movs	r3, #16
 800726e:	f7ff fcdf 	bl	8006c30 <usbPrepareTransmit>
 8007272:	f384 8811 	msr	BASEPRI, r4
    /* need to wait until the previous packet has made it through */
    do {
        osalSysLock();
        ep_not_ready = usbStartTransmitI(&USB_DRIVER, NKRO_ENDPOINT);
 8007276:	2105      	movs	r1, #5
 8007278:	480f      	ldr	r0, [pc, #60]	; (80072b8 <send_keyboard+0x78>)
 800727a:	f7ff f9e9 	bl	8006650 <usbStartTransmitI>
 800727e:	2300      	movs	r3, #0
 8007280:	f383 8811 	msr	BASEPRI, r3
        osalSysUnlock();
    } while (ep_not_ready);
 8007284:	2800      	cmp	r0, #0
 8007286:	d1f4      	bne.n	8007272 <send_keyboard+0x32>
        osalSysLock();
        ep_not_ready = usbStartTransmitI(&USB_DRIVER, KBD_ENDPOINT);
        osalSysUnlock();
    } while (ep_not_ready);
  }
  keyboard_report_sent = *report;
 8007288:	4c0d      	ldr	r4, [pc, #52]	; (80072c0 <send_keyboard+0x80>)
 800728a:	6828      	ldr	r0, [r5, #0]
 800728c:	6869      	ldr	r1, [r5, #4]
 800728e:	68aa      	ldr	r2, [r5, #8]
 8007290:	68eb      	ldr	r3, [r5, #12]
 8007292:	c40f      	stmia	r4!, {r0, r1, r2, r3}
 8007294:	bd38      	pop	{r3, r4, r5, pc}
        osalSysUnlock();
    } while (ep_not_ready);
  } else
#endif /* NKRO_ENABLE */
  { /* boot protocol */
    usbPrepareTransmit(&USB_DRIVER, KBD_ENDPOINT, (uint8_t *)report, KBD_EPSIZE);
 8007296:	2101      	movs	r1, #1
 8007298:	462a      	mov	r2, r5
 800729a:	2308      	movs	r3, #8
 800729c:	f7ff fcc8 	bl	8006c30 <usbPrepareTransmit>
 80072a0:	f384 8811 	msr	BASEPRI, r4
    /* need to wait until the previous packet has made it through */
    do {
        osalSysLock();
        ep_not_ready = usbStartTransmitI(&USB_DRIVER, KBD_ENDPOINT);
 80072a4:	2101      	movs	r1, #1
 80072a6:	4804      	ldr	r0, [pc, #16]	; (80072b8 <send_keyboard+0x78>)
 80072a8:	f7ff f9d2 	bl	8006650 <usbStartTransmitI>
 80072ac:	2300      	movs	r3, #0
 80072ae:	f383 8811 	msr	BASEPRI, r3
        osalSysUnlock();
    } while (ep_not_ready);
 80072b2:	2800      	cmp	r0, #0
 80072b4:	d1f4      	bne.n	80072a0 <send_keyboard+0x60>
 80072b6:	e7e7      	b.n	8007288 <send_keyboard+0x48>
 80072b8:	200014b4 	.word	0x200014b4
 80072bc:	20001234 	.word	0x20001234
 80072c0:	20001430 	.word	0x20001430
 80072c4:	f3af 8000 	nop.w
 80072c8:	f3af 8000 	nop.w
 80072cc:	f3af 8000 	nop.w

080072d0 <keyboard_idle_timer_cb>:
  (void)usbp;
}

/* Idle requests timer code
 * callback (called from ISR, unlocked state) */
static void keyboard_idle_timer_cb(void *arg) {
 80072d0:	b570      	push	{r4, r5, r6, lr}
 80072d2:	2420      	movs	r4, #32
 80072d4:	f384 8811 	msr	BASEPRI, r4
  USBDriver *usbp = (USBDriver *)arg;

  osalSysLockFromISR();

  /* check that the states of things are as they're supposed to */
  if(usbGetDriverStateI(usbp) != USB_ACTIVE) {
 80072d8:	7802      	ldrb	r2, [r0, #0]
 80072da:	2a04      	cmp	r2, #4
 80072dc:	d003      	beq.n	80072e6 <keyboard_idle_timer_cb+0x16>
 80072de:	2300      	movs	r3, #0
 80072e0:	f383 8811 	msr	BASEPRI, r3
 80072e4:	bd70      	pop	{r4, r5, r6, pc}
    osalSysUnlockFromISR();
    return;
  }

#ifdef NKRO_ENABLE
  if(!keyboard_nkro && keyboard_idle) {
 80072e6:	4a17      	ldr	r2, [pc, #92]	; (8007344 <keyboard_idle_timer_cb+0x74>)
 80072e8:	7812      	ldrb	r2, [r2, #0]
 80072ea:	2a00      	cmp	r2, #0
 80072ec:	d1f7      	bne.n	80072de <keyboard_idle_timer_cb+0xe>
 80072ee:	4e16      	ldr	r6, [pc, #88]	; (8007348 <keyboard_idle_timer_cb+0x78>)
 80072f0:	7831      	ldrb	r1, [r6, #0]
 80072f2:	2900      	cmp	r1, #0
 80072f4:	d0f3      	beq.n	80072de <keyboard_idle_timer_cb+0xe>
 80072f6:	4605      	mov	r5, r0
 80072f8:	f382 8811 	msr	BASEPRI, r2
#else /* NKRO_ENABLE */
  if(keyboard_idle) {
#endif /* NKRO_ENABLE */
    /* TODO: are we sure we want the KBD_ENDPOINT? */
    osalSysUnlockFromISR();
    usbPrepareTransmit(usbp, KBD_ENDPOINT, (uint8_t *)&keyboard_report_sent, sizeof(keyboard_report_sent));
 80072fc:	2101      	movs	r1, #1
 80072fe:	4a13      	ldr	r2, [pc, #76]	; (800734c <keyboard_idle_timer_cb+0x7c>)
 8007300:	2310      	movs	r3, #16
 8007302:	f7ff fc95 	bl	8006c30 <usbPrepareTransmit>
 8007306:	f384 8811 	msr	BASEPRI, r4
    osalSysLockFromISR();
    usbStartTransmitI(usbp, KBD_ENDPOINT);
 800730a:	2101      	movs	r1, #1
 800730c:	4628      	mov	r0, r5
 800730e:	f7ff f99f 	bl	8006650 <usbStartTransmitI>
    /* rearm the timer */
    chVTSetI(&keyboard_idle_timer, 4*MS2ST(keyboard_idle), keyboard_idle_timer_cb, (void *)usbp);
 8007312:	7834      	ldrb	r4, [r6, #0]
 8007314:	f44f 63fa 	mov.w	r3, #2000	; 0x7d0
 8007318:	fb03 f304 	mul.w	r3, r3, r4
 800731c:	4c0c      	ldr	r4, [pc, #48]	; (8007350 <keyboard_idle_timer_cb+0x80>)
 800731e:	f203 33e7 	addw	r3, r3, #999	; 0x3e7
 8007322:	fba4 3403 	umull	r3, r4, r4, r3
 8007326:	480b      	ldr	r0, [pc, #44]	; (8007354 <keyboard_idle_timer_cb+0x84>)
 8007328:	09a4      	lsrs	r4, r4, #6
 *
 * @iclass
 */
static inline void chVTResetI(virtual_timer_t *vtp) {

  if (chVTIsArmedI(vtp)) {
 800732a:	68c3      	ldr	r3, [r0, #12]
 800732c:	00a4      	lsls	r4, r4, #2
 800732e:	b2a4      	uxth	r4, r4
 8007330:	b10b      	cbz	r3, 8007336 <keyboard_idle_timer_cb+0x66>
    chVTDoResetI(vtp);
 8007332:	f7ff fdd5 	bl	8006ee0 <chVTDoResetI>
 */
static inline void chVTSetI(virtual_timer_t *vtp, systime_t delay,
                            vtfunc_t vtfunc, void *par) {

  chVTResetI(vtp);
  chVTDoSetI(vtp, delay, vtfunc, par);
 8007336:	4621      	mov	r1, r4
 8007338:	462b      	mov	r3, r5
 800733a:	4806      	ldr	r0, [pc, #24]	; (8007354 <keyboard_idle_timer_cb+0x84>)
 800733c:	4a06      	ldr	r2, [pc, #24]	; (8007358 <keyboard_idle_timer_cb+0x88>)
 800733e:	f7ff fe0f 	bl	8006f60 <chVTDoSetI>
 8007342:	e7cc      	b.n	80072de <keyboard_idle_timer_cb+0xe>
 8007344:	20001234 	.word	0x20001234
 8007348:	2000154c 	.word	0x2000154c
 800734c:	20001430 	.word	0x20001430
 8007350:	10624dd3 	.word	0x10624dd3
 8007354:	2000141c 	.word	0x2000141c
 8007358:	080072d1 	.word	0x080072d1
 800735c:	f3af 8000 	nop.w

08007360 <usb_request_hook_cb.lto_priv.63>:
 * Non-Boot Keybrd Required    Optional    Required    Required    Optional    Optional
 * Other Device    Required    Optional    Optional    Optional    Optional    Optional
 */

/* Callback for SETUP request on the endpoint 0 (control) */
static bool usb_request_hook_cb(USBDriver *usbp) {
 8007360:	b538      	push	{r3, r4, r5, lr}
   *  2,3: (LSB,MSB) wValue
   *  4,5: (LSB,MSB) wIndex
   *  6,7: (LSB,MSB) wLength (number of bytes to transfer if there is a data phase) */

  /* Handle HID class specific requests */
  if(((usbp->setup[0] & USB_RTYPE_TYPE_MASK) == USB_RTYPE_TYPE_CLASS) &&
 8007362:	f890 3074 	ldrb.w	r3, [r0, #116]	; 0x74
 * Non-Boot Keybrd Required    Optional    Required    Required    Optional    Optional
 * Other Device    Required    Optional    Optional    Optional    Optional    Optional
 */

/* Callback for SETUP request on the endpoint 0 (control) */
static bool usb_request_hook_cb(USBDriver *usbp) {
 8007366:	4604      	mov	r4, r0
   *  2,3: (LSB,MSB) wValue
   *  4,5: (LSB,MSB) wIndex
   *  6,7: (LSB,MSB) wLength (number of bytes to transfer if there is a data phase) */

  /* Handle HID class specific requests */
  if(((usbp->setup[0] & USB_RTYPE_TYPE_MASK) == USB_RTYPE_TYPE_CLASS) &&
 8007368:	f003 027f 	and.w	r2, r3, #127	; 0x7f
 800736c:	2a21      	cmp	r2, #33	; 0x21
 800736e:	d007      	beq.n	8007380 <usb_request_hook_cb.lto_priv.63+0x20>
      break;
    }
  }

  /* Handle the Get_Descriptor Request for HID class (not handled by the default hook) */
  if((usbp->setup[0] == 0x81) && (usbp->setup[1] == USB_REQ_GET_DESCRIPTOR)) {
 8007370:	f240 6381 	movw	r3, #1665	; 0x681
 8007374:	f8b4 2074 	ldrh.w	r2, [r4, #116]	; 0x74
 8007378:	429a      	cmp	r2, r3
 800737a:	d02e      	beq.n	80073da <usb_request_hook_cb.lto_priv.63+0x7a>
                extra_report_blank[0] = REPORT_ID_CONSUMER;
                usbSetupTransfer(usbp, (uint8_t *)extra_report_blank, sizeof(extra_report_blank), NULL);
                return TRUE;
                break;
              default:
                return FALSE;
 800737c:	2000      	movs	r0, #0
    usbSetupTransfer(usbp, (uint8_t *)dp->ud_string, dp->ud_size, NULL);
    return TRUE;
  }

  return FALSE;
}
 800737e:	bd38      	pop	{r3, r4, r5, pc}
   *  6,7: (LSB,MSB) wLength (number of bytes to transfer if there is a data phase) */

  /* Handle HID class specific requests */
  if(((usbp->setup[0] & USB_RTYPE_TYPE_MASK) == USB_RTYPE_TYPE_CLASS) &&
     ((usbp->setup[0] & USB_RTYPE_RECIPIENT_MASK) == USB_RTYPE_RECIPIENT_INTERFACE)) {
    switch(usbp->setup[0] & USB_RTYPE_DIR_MASK) {
 8007380:	f023 037f 	bic.w	r3, r3, #127	; 0x7f
 8007384:	f003 02ff 	and.w	r2, r3, #255	; 0xff
 8007388:	b19b      	cbz	r3, 80073b2 <usb_request_hook_cb.lto_priv.63+0x52>
 800738a:	2a00      	cmp	r2, #0
 800738c:	d0f0      	beq.n	8007370 <usb_request_hook_cb.lto_priv.63+0x10>
    case USB_RTYPE_DIR_DEV2HOST:
      switch(usbp->setup[1]) {   /* bRequest */
 800738e:	f890 3075 	ldrb.w	r3, [r0, #117]	; 0x75
 8007392:	2b02      	cmp	r3, #2
 8007394:	f000 809d 	beq.w	80074d2 <usb_request_hook_cb.lto_priv.63+0x172>
 8007398:	2b03      	cmp	r3, #3
 800739a:	d04d      	beq.n	8007438 <usb_request_hook_cb.lto_priv.63+0xd8>
 800739c:	2b01      	cmp	r3, #1
 800739e:	d1e7      	bne.n	8007370 <usb_request_hook_cb.lto_priv.63+0x10>
      case HID_GET_REPORT:
        switch(usbp->setup[4]) {     /* LSB(wIndex) (check MSB==0?) */
 80073a0:	f890 3078 	ldrb.w	r3, [r0, #120]	; 0x78
 80073a4:	2b04      	cmp	r3, #4
 80073a6:	d841      	bhi.n	800742c <usb_request_hook_cb.lto_priv.63+0xcc>
 80073a8:	e8df f003 	tbb	[pc, r3]
 80073ac:	50616764 	.word	0x50616764
 80073b0:	64          	.byte	0x64
 80073b1:	00          	.byte	0x00
        break;
      }
      break;

    case USB_RTYPE_DIR_HOST2DEV:
      switch(usbp->setup[1]) {   /* bRequest */
 80073b2:	f890 3075 	ldrb.w	r3, [r0, #117]	; 0x75
 80073b6:	2b0a      	cmp	r3, #10
 80073b8:	d062      	beq.n	8007480 <usb_request_hook_cb.lto_priv.63+0x120>
 80073ba:	2b0b      	cmp	r3, #11
 80073bc:	d025      	beq.n	800740a <usb_request_hook_cb.lto_priv.63+0xaa>
 80073be:	2b09      	cmp	r3, #9
 80073c0:	d1d6      	bne.n	8007370 <usb_request_hook_cb.lto_priv.63+0x10>
      case HID_SET_REPORT:
        switch(usbp->setup[4]) {       /* LSB(wIndex) (check MSB==0 and wLength==1?) */
 80073c2:	f890 3078 	ldrb.w	r3, [r0, #120]	; 0x78
 80073c6:	b10b      	cbz	r3, 80073cc <usb_request_hook_cb.lto_priv.63+0x6c>
 80073c8:	2b04      	cmp	r3, #4
 80073ca:	d1d1      	bne.n	8007370 <usb_request_hook_cb.lto_priv.63+0x10>
#ifdef NKRO_ENABLE
        case NKRO_INTERFACE:
#endif  /* NKRO_ENABLE */
        /* keyboard_led_stats = <read byte from next OUT report>
         * keyboard_led_stats needs be word (or dword), otherwise we get an exception on F0 */
          usbSetupTransfer(usbp, (uint8_t *)&keyboard_led_stats, 1, NULL);
 80073cc:	4a48      	ldr	r2, [pc, #288]	; (80074f0 <usb_request_hook_cb.lto_priv.63+0x190>)
 80073ce:	2001      	movs	r0, #1
 80073d0:	2300      	movs	r3, #0
 80073d2:	66a2      	str	r2, [r4, #104]	; 0x68
 80073d4:	66e0      	str	r0, [r4, #108]	; 0x6c
 80073d6:	6723      	str	r3, [r4, #112]	; 0x70
 80073d8:	bd38      	pop	{r3, r4, r5, pc}
    }
  }

  /* Handle the Get_Descriptor Request for HID class (not handled by the default hook) */
  if((usbp->setup[0] == 0x81) && (usbp->setup[1] == USB_REQ_GET_DESCRIPTOR)) {
    dp = usbp->config->get_descriptor_cb(usbp, usbp->setup[3], usbp->setup[2], get_hword(&usbp->setup[4]));
 80073da:	6861      	ldr	r1, [r4, #4]
 * need it here for HID descriptor */
static uint16_t get_hword(uint8_t *p) {
  uint16_t hw;

  hw = (uint16_t)*p++;
  hw |= (uint16_t)*p << 8U;
 80073dc:	f894 2079 	ldrb.w	r2, [r4, #121]	; 0x79
 80073e0:	f894 3078 	ldrb.w	r3, [r4, #120]	; 0x78
    }
  }

  /* Handle the Get_Descriptor Request for HID class (not handled by the default hook) */
  if((usbp->setup[0] == 0x81) && (usbp->setup[1] == USB_REQ_GET_DESCRIPTOR)) {
    dp = usbp->config->get_descriptor_cb(usbp, usbp->setup[3], usbp->setup[2], get_hword(&usbp->setup[4]));
 80073e4:	684d      	ldr	r5, [r1, #4]
 80073e6:	ea43 2302 	orr.w	r3, r3, r2, lsl #8
 80073ea:	4620      	mov	r0, r4
 80073ec:	f894 1077 	ldrb.w	r1, [r4, #119]	; 0x77
 80073f0:	f894 2076 	ldrb.w	r2, [r4, #118]	; 0x76
 80073f4:	47a8      	blx	r5
    if(dp == NULL)
 80073f6:	2800      	cmp	r0, #0
 80073f8:	d0c0      	beq.n	800737c <usb_request_hook_cb.lto_priv.63+0x1c>
      return FALSE;
    usbSetupTransfer(usbp, (uint8_t *)dp->ud_string, dp->ud_size, NULL);
 80073fa:	6841      	ldr	r1, [r0, #4]
 80073fc:	6802      	ldr	r2, [r0, #0]
          return TRUE;
          break;

#ifdef MOUSE_ENABLE
        case MOUSE_INTERFACE:
          usbSetupTransfer(usbp, (uint8_t *)&mouse_report_blank, sizeof(mouse_report_blank), NULL);
 80073fe:	2300      	movs	r3, #0
 8007400:	66a1      	str	r1, [r4, #104]	; 0x68
 8007402:	66e2      	str	r2, [r4, #108]	; 0x6c
 8007404:	6723      	str	r3, [r4, #112]	; 0x70
          return TRUE;
 8007406:	2001      	movs	r0, #1
 8007408:	bd38      	pop	{r3, r4, r5, pc}
          break;
        }
        break;

      case HID_SET_PROTOCOL:
        if((usbp->setup[4] == KBD_INTERFACE) && (usbp->setup[5] == 0)) {   /* wIndex */
 800740a:	f8b0 3078 	ldrh.w	r3, [r0, #120]	; 0x78
 800740e:	b96b      	cbnz	r3, 800742c <usb_request_hook_cb.lto_priv.63+0xcc>
          keyboard_protocol = ((usbp->setup[2]) != 0x00);   /* LSB(wValue) */
 8007410:	f890 3076 	ldrb.w	r3, [r0, #118]	; 0x76
 8007414:	4937      	ldr	r1, [pc, #220]	; (80074f4 <usb_request_hook_cb.lto_priv.63+0x194>)
 8007416:	3300      	adds	r3, #0
#ifdef NKRO_ENABLE
          keyboard_nkro = !!keyboard_protocol;
 8007418:	4a37      	ldr	r2, [pc, #220]	; (80074f8 <usb_request_hook_cb.lto_priv.63+0x198>)
        }
        break;

      case HID_SET_PROTOCOL:
        if((usbp->setup[4] == KBD_INTERFACE) && (usbp->setup[5] == 0)) {   /* wIndex */
          keyboard_protocol = ((usbp->setup[2]) != 0x00);   /* LSB(wValue) */
 800741a:	bf18      	it	ne
 800741c:	2301      	movne	r3, #1
 800741e:	700b      	strb	r3, [r1, #0]
#ifdef NKRO_ENABLE
          keyboard_nkro = !!keyboard_protocol;
 8007420:	7013      	strb	r3, [r2, #0]
          if(!keyboard_nkro && keyboard_idle) {
 8007422:	b91b      	cbnz	r3, 800742c <usb_request_hook_cb.lto_priv.63+0xcc>
 8007424:	4b35      	ldr	r3, [pc, #212]	; (80074fc <usb_request_hook_cb.lto_priv.63+0x19c>)
 8007426:	781a      	ldrb	r2, [r3, #0]
 8007428:	2a00      	cmp	r2, #0
 800742a:	d154      	bne.n	80074d6 <usb_request_hook_cb.lto_priv.63+0x176>
            osalSysLockFromISR();
            chVTSetI(&keyboard_idle_timer, 4*MS2ST(keyboard_idle), keyboard_idle_timer_cb, (void *)usbp);
            osalSysUnlockFromISR();
          }
        }
        usbSetupTransfer(usbp, NULL, 0, NULL);
 800742c:	2300      	movs	r3, #0
 800742e:	66a3      	str	r3, [r4, #104]	; 0x68
 8007430:	66e3      	str	r3, [r4, #108]	; 0x6c
 8007432:	6723      	str	r3, [r4, #112]	; 0x70
        return TRUE;
 8007434:	2001      	movs	r0, #1
 8007436:	bd38      	pop	{r3, r4, r5, pc}
          break;
        }
        break;

      case HID_GET_PROTOCOL:
        if((usbp->setup[4] == KBD_INTERFACE) && (usbp->setup[5] == 0)) {   /* wIndex */
 8007438:	f8b0 3078 	ldrh.w	r3, [r0, #120]	; 0x78
 800743c:	2b00      	cmp	r3, #0
 800743e:	d197      	bne.n	8007370 <usb_request_hook_cb.lto_priv.63+0x10>
          usbSetupTransfer(usbp, &keyboard_protocol, 1, NULL);
 8007440:	4a2c      	ldr	r2, [pc, #176]	; (80074f4 <usb_request_hook_cb.lto_priv.63+0x194>)
 8007442:	2001      	movs	r0, #1
 8007444:	6723      	str	r3, [r4, #112]	; 0x70
 8007446:	66a2      	str	r2, [r4, #104]	; 0x68
 8007448:	66e0      	str	r0, [r4, #108]	; 0x6c
 800744a:	bd38      	pop	{r3, r4, r5, pc}
          break;
#endif /* CONSOLE_ENABLE */

#ifdef EXTRAKEY_ENABLE
        case EXTRA_INTERFACE:
          if(usbp->setup[3] == 1) { /* MSB(wValue) [Report Type] == 1 [Input Report] */
 800744c:	f890 0077 	ldrb.w	r0, [r0, #119]	; 0x77
 8007450:	2801      	cmp	r0, #1
 8007452:	d193      	bne.n	800737c <usb_request_hook_cb.lto_priv.63+0x1c>
            switch(usbp->setup[2]) { /* LSB(wValue) [Report ID] */
 8007454:	f894 3076 	ldrb.w	r3, [r4, #118]	; 0x76
 8007458:	2b02      	cmp	r3, #2
 800745a:	d041      	beq.n	80074e0 <usb_request_hook_cb.lto_priv.63+0x180>
 800745c:	2b03      	cmp	r3, #3
 800745e:	d18d      	bne.n	800737c <usb_request_hook_cb.lto_priv.63+0x1c>
                extra_report_blank[0] = REPORT_ID_SYSTEM;
                usbSetupTransfer(usbp, (uint8_t *)extra_report_blank, sizeof(extra_report_blank), NULL);
                return TRUE;
                break;
              case REPORT_ID_CONSUMER:
                extra_report_blank[0] = REPORT_ID_CONSUMER;
 8007460:	4a27      	ldr	r2, [pc, #156]	; (8007500 <usb_request_hook_cb.lto_priv.63+0x1a0>)
                usbSetupTransfer(usbp, (uint8_t *)extra_report_blank, sizeof(extra_report_blank), NULL);
 8007462:	2100      	movs	r1, #0
                extra_report_blank[0] = REPORT_ID_SYSTEM;
                usbSetupTransfer(usbp, (uint8_t *)extra_report_blank, sizeof(extra_report_blank), NULL);
                return TRUE;
                break;
              case REPORT_ID_CONSUMER:
                extra_report_blank[0] = REPORT_ID_CONSUMER;
 8007464:	7013      	strb	r3, [r2, #0]
                usbSetupTransfer(usbp, (uint8_t *)extra_report_blank, sizeof(extra_report_blank), NULL);
 8007466:	66e3      	str	r3, [r4, #108]	; 0x6c
 8007468:	66a2      	str	r2, [r4, #104]	; 0x68
 800746a:	6721      	str	r1, [r4, #112]	; 0x70
 800746c:	bd38      	pop	{r3, r4, r5, pc}
          break;
#endif /* MOUSE_ENABLE */

#ifdef CONSOLE_ENABLE
        case CONSOLE_INTERFACE:
          usbSetupTransfer(usbp, console_queue_buffer, CONSOLE_EPSIZE, NULL);
 800746e:	4925      	ldr	r1, [pc, #148]	; (8007504 <usb_request_hook_cb.lto_priv.63+0x1a4>)
 8007470:	2210      	movs	r2, #16
 8007472:	e7c4      	b.n	80073fe <usb_request_hook_cb.lto_priv.63+0x9e>
        switch(usbp->setup[4]) {     /* LSB(wIndex) (check MSB==0?) */
        case KBD_INTERFACE:
#ifdef NKRO_ENABLE
        case NKRO_INTERFACE:
#endif /* NKRO_ENABLE */
          usbSetupTransfer(usbp, (uint8_t *)&keyboard_report_sent, sizeof(keyboard_report_sent), NULL);
 8007474:	4924      	ldr	r1, [pc, #144]	; (8007508 <usb_request_hook_cb.lto_priv.63+0x1a8>)
 8007476:	2210      	movs	r2, #16
 8007478:	e7c1      	b.n	80073fe <usb_request_hook_cb.lto_priv.63+0x9e>
          return TRUE;
          break;

#ifdef MOUSE_ENABLE
        case MOUSE_INTERFACE:
          usbSetupTransfer(usbp, (uint8_t *)&mouse_report_blank, sizeof(mouse_report_blank), NULL);
 800747a:	4924      	ldr	r1, [pc, #144]	; (800750c <usb_request_hook_cb.lto_priv.63+0x1ac>)
 800747c:	2205      	movs	r2, #5
 800747e:	e7be      	b.n	80073fe <usb_request_hook_cb.lto_priv.63+0x9e>

      case HID_SET_IDLE:
        keyboard_idle = usbp->setup[3];     /* MSB(wValue) */
        /* arm the timer */
#ifdef NKRO_ENABLE
        if(!keyboard_nkro && keyboard_idle) {
 8007480:	4a1d      	ldr	r2, [pc, #116]	; (80074f8 <usb_request_hook_cb.lto_priv.63+0x198>)
        usbSetupTransfer(usbp, NULL, 0, NULL);
        return TRUE;
        break;

      case HID_SET_IDLE:
        keyboard_idle = usbp->setup[3];     /* MSB(wValue) */
 8007482:	f890 3077 	ldrb.w	r3, [r0, #119]	; 0x77
        /* arm the timer */
#ifdef NKRO_ENABLE
        if(!keyboard_nkro && keyboard_idle) {
 8007486:	7811      	ldrb	r1, [r2, #0]
        usbSetupTransfer(usbp, NULL, 0, NULL);
        return TRUE;
        break;

      case HID_SET_IDLE:
        keyboard_idle = usbp->setup[3];     /* MSB(wValue) */
 8007488:	4a1c      	ldr	r2, [pc, #112]	; (80074fc <usb_request_hook_cb.lto_priv.63+0x19c>)
 800748a:	7013      	strb	r3, [r2, #0]
        /* arm the timer */
#ifdef NKRO_ENABLE
        if(!keyboard_nkro && keyboard_idle) {
 800748c:	2900      	cmp	r1, #0
 800748e:	d1cd      	bne.n	800742c <usb_request_hook_cb.lto_priv.63+0xcc>
 8007490:	2b00      	cmp	r3, #0
 8007492:	d0cb      	beq.n	800742c <usb_request_hook_cb.lto_priv.63+0xcc>
 8007494:	2320      	movs	r3, #32
 8007496:	f383 8811 	msr	BASEPRI, r3
#else /* NKRO_ENABLE */
        if(keyboard_idle) {
#endif /* NKRO_ENABLE */
          osalSysLockFromISR();
          chVTSetI(&keyboard_idle_timer, 4*MS2ST(keyboard_idle), keyboard_idle_timer_cb, (void *)usbp);
 800749a:	7812      	ldrb	r2, [r2, #0]
#else /* NKRO_ENABLE */
          if(keyboard_idle) {
#endif /* NKRO_ENABLE */
          /* arm the idle timer if boot protocol & idle */
            osalSysLockFromISR();
            chVTSetI(&keyboard_idle_timer, 4*MS2ST(keyboard_idle), keyboard_idle_timer_cb, (void *)usbp);
 800749c:	f44f 63fa 	mov.w	r3, #2000	; 0x7d0
 80074a0:	fb03 f302 	mul.w	r3, r3, r2
 80074a4:	4d1a      	ldr	r5, [pc, #104]	; (8007510 <usb_request_hook_cb.lto_priv.63+0x1b0>)
 80074a6:	f203 33e7 	addw	r3, r3, #999	; 0x3e7
 80074aa:	fba5 3503 	umull	r3, r5, r5, r3
 80074ae:	4819      	ldr	r0, [pc, #100]	; (8007514 <usb_request_hook_cb.lto_priv.63+0x1b4>)
 80074b0:	09ad      	lsrs	r5, r5, #6
 *
 * @iclass
 */
static inline void chVTResetI(virtual_timer_t *vtp) {

  if (chVTIsArmedI(vtp)) {
 80074b2:	68c3      	ldr	r3, [r0, #12]
 80074b4:	00ad      	lsls	r5, r5, #2
 80074b6:	b2ad      	uxth	r5, r5
 80074b8:	b10b      	cbz	r3, 80074be <usb_request_hook_cb.lto_priv.63+0x15e>
    chVTDoResetI(vtp);
 80074ba:	f7ff fd11 	bl	8006ee0 <chVTDoResetI>
 */
static inline void chVTSetI(virtual_timer_t *vtp, systime_t delay,
                            vtfunc_t vtfunc, void *par) {

  chVTResetI(vtp);
  chVTDoSetI(vtp, delay, vtfunc, par);
 80074be:	4623      	mov	r3, r4
 80074c0:	4629      	mov	r1, r5
 80074c2:	4814      	ldr	r0, [pc, #80]	; (8007514 <usb_request_hook_cb.lto_priv.63+0x1b4>)
 80074c4:	4a14      	ldr	r2, [pc, #80]	; (8007518 <usb_request_hook_cb.lto_priv.63+0x1b8>)
 80074c6:	f7ff fd4b 	bl	8006f60 <chVTDoSetI>
 80074ca:	2300      	movs	r3, #0
 80074cc:	f383 8811 	msr	BASEPRI, r3
 80074d0:	e7ac      	b.n	800742c <usb_request_hook_cb.lto_priv.63+0xcc>
          return TRUE;
        }
        break;

      case HID_GET_IDLE:
        usbSetupTransfer(usbp, &keyboard_idle, 1, NULL);
 80074d2:	4a0a      	ldr	r2, [pc, #40]	; (80074fc <usb_request_hook_cb.lto_priv.63+0x19c>)
 80074d4:	e77b      	b.n	80073ce <usb_request_hook_cb.lto_priv.63+0x6e>
 80074d6:	2220      	movs	r2, #32
 80074d8:	f382 8811 	msr	BASEPRI, r2
#else /* NKRO_ENABLE */
          if(keyboard_idle) {
#endif /* NKRO_ENABLE */
          /* arm the idle timer if boot protocol & idle */
            osalSysLockFromISR();
            chVTSetI(&keyboard_idle_timer, 4*MS2ST(keyboard_idle), keyboard_idle_timer_cb, (void *)usbp);
 80074dc:	781a      	ldrb	r2, [r3, #0]
 80074de:	e7dd      	b.n	800749c <usb_request_hook_cb.lto_priv.63+0x13c>
#ifdef EXTRAKEY_ENABLE
        case EXTRA_INTERFACE:
          if(usbp->setup[3] == 1) { /* MSB(wValue) [Report Type] == 1 [Input Report] */
            switch(usbp->setup[2]) { /* LSB(wValue) [Report ID] */
              case REPORT_ID_SYSTEM:
                extra_report_blank[0] = REPORT_ID_SYSTEM;
 80074e0:	4a07      	ldr	r2, [pc, #28]	; (8007500 <usb_request_hook_cb.lto_priv.63+0x1a0>)
                usbSetupTransfer(usbp, (uint8_t *)extra_report_blank, sizeof(extra_report_blank), NULL);
 80074e2:	2503      	movs	r5, #3
 80074e4:	2100      	movs	r1, #0
#ifdef EXTRAKEY_ENABLE
        case EXTRA_INTERFACE:
          if(usbp->setup[3] == 1) { /* MSB(wValue) [Report Type] == 1 [Input Report] */
            switch(usbp->setup[2]) { /* LSB(wValue) [Report ID] */
              case REPORT_ID_SYSTEM:
                extra_report_blank[0] = REPORT_ID_SYSTEM;
 80074e6:	7013      	strb	r3, [r2, #0]
                usbSetupTransfer(usbp, (uint8_t *)extra_report_blank, sizeof(extra_report_blank), NULL);
 80074e8:	66a2      	str	r2, [r4, #104]	; 0x68
 80074ea:	66e5      	str	r5, [r4, #108]	; 0x6c
 80074ec:	6721      	str	r1, [r4, #112]	; 0x70
 80074ee:	bd38      	pop	{r3, r4, r5, pc}
 80074f0:	20001440 	.word	0x20001440
 80074f4:	20001231 	.word	0x20001231
 80074f8:	20001234 	.word	0x20001234
 80074fc:	2000154c 	.word	0x2000154c
 8007500:	20001474 	.word	0x20001474
 8007504:	20001240 	.word	0x20001240
 8007508:	20001430 	.word	0x20001430
 800750c:	20001498 	.word	0x20001498
 8007510:	10624dd3 	.word	0x10624dd3
 8007514:	2000141c 	.word	0x2000141c
 8007518:	080072d1 	.word	0x080072d1
 800751c:	f3af 8000 	nop.w

08007520 <usb_event_cb.lto_priv.61>:
 */

/* Handles the USB driver global events
 * TODO: maybe disable some things when connection is lost? */
static void usb_event_cb(USBDriver *usbp, usbevent_t event) {
  switch(event) {
 8007520:	2902      	cmp	r1, #2
 * ---------------------------------------------------------
 */

/* Handles the USB driver global events
 * TODO: maybe disable some things when connection is lost? */
static void usb_event_cb(USBDriver *usbp, usbevent_t event) {
 8007522:	b538      	push	{r3, r4, r5, lr}
 8007524:	460c      	mov	r4, r1
  switch(event) {
 8007526:	d021      	beq.n	800756c <usb_event_cb.lto_priv.61+0x4c>
 8007528:	2904      	cmp	r1, #4
 800752a:	d11e      	bne.n	800756a <usb_event_cb.lto_priv.61+0x4a>
/* modifier */
uint8_t get_mods(void) { return real_mods; }
void add_mods(uint8_t mods) { real_mods |= mods; }
void del_mods(uint8_t mods) { real_mods &= ~mods; }
void set_mods(uint8_t mods) { real_mods = mods; }
void clear_mods(void) { real_mods = 0; }
 800752c:	2000      	movs	r0, #0

void clear_keys(void)
{
    // not clear mods
    for (int8_t i = 1; i < KEYBOARD_REPORT_SIZE; i++) {
        keyboard_report->raw[i] = 0;
 800752e:	4601      	mov	r1, r0
 8007530:	4b1e      	ldr	r3, [pc, #120]	; (80075ac <usb_event_cb.lto_priv.61+0x8c>)
/* modifier */
uint8_t get_mods(void) { return real_mods; }
void add_mods(uint8_t mods) { real_mods |= mods; }
void del_mods(uint8_t mods) { real_mods &= ~mods; }
void set_mods(uint8_t mods) { real_mods = mods; }
void clear_mods(void) { real_mods = 0; }
 8007532:	4d1f      	ldr	r5, [pc, #124]	; (80075b0 <usb_event_cb.lto_priv.61+0x90>)
 8007534:	681b      	ldr	r3, [r3, #0]
/* weak modifier */
uint8_t get_weak_mods(void) { return weak_mods; }
void add_weak_mods(uint8_t mods) { weak_mods |= mods; }
void del_weak_mods(uint8_t mods) { weak_mods &= ~mods; }
void set_weak_mods(uint8_t mods) { weak_mods = mods; }
void clear_weak_mods(void) { weak_mods = 0; }
 8007536:	4c1f      	ldr	r4, [pc, #124]	; (80075b4 <usb_event_cb.lto_priv.61+0x94>)
 8007538:	f103 020f 	add.w	r2, r3, #15
/* modifier */
uint8_t get_mods(void) { return real_mods; }
void add_mods(uint8_t mods) { real_mods |= mods; }
void del_mods(uint8_t mods) { real_mods &= ~mods; }
void set_mods(uint8_t mods) { real_mods = mods; }
void clear_mods(void) { real_mods = 0; }
 800753c:	7028      	strb	r0, [r5, #0]
/* weak modifier */
uint8_t get_weak_mods(void) { return weak_mods; }
void add_weak_mods(uint8_t mods) { weak_mods |= mods; }
void del_weak_mods(uint8_t mods) { weak_mods &= ~mods; }
void set_weak_mods(uint8_t mods) { weak_mods = mods; }
void clear_weak_mods(void) { weak_mods = 0; }
 800753e:	7020      	strb	r0, [r4, #0]

void clear_keys(void)
{
    // not clear mods
    for (int8_t i = 1; i < KEYBOARD_REPORT_SIZE; i++) {
        keyboard_report->raw[i] = 0;
 8007540:	f803 1f01 	strb.w	r1, [r3, #1]!
}

void clear_keys(void)
{
    // not clear mods
    for (int8_t i = 1; i < KEYBOARD_REPORT_SIZE; i++) {
 8007544:	4293      	cmp	r3, r2
        keyboard_report->raw[i] = 0;
 8007546:	f04f 0400 	mov.w	r4, #0
}

void clear_keys(void)
{
    // not clear mods
    for (int8_t i = 1; i < KEYBOARD_REPORT_SIZE; i++) {
 800754a:	d1f9      	bne.n	8007540 <usb_event_cb.lto_priv.61+0x20>
    last_timer = timer_read();
}

void mousekey_clear(void)
{
    mouse_report = (report_mouse_t){};
 800754c:	4b1a      	ldr	r3, [pc, #104]	; (80075b8 <usb_event_cb.lto_priv.61+0x98>)
    mousekey_repeat = 0;
 800754e:	491b      	ldr	r1, [pc, #108]	; (80075bc <usb_event_cb.lto_priv.61+0x9c>)
    mousekey_accel = 0;
 8007550:	4a1b      	ldr	r2, [pc, #108]	; (80075c0 <usb_event_cb.lto_priv.61+0xa0>)
    clear_keys();
#ifdef MOUSEKEY_ENABLE
    mousekey_clear();
#endif /* MOUSEKEY_ENABLE */
#ifdef EXTRAKEY_ENABLE
    host_system_send(0);
 8007552:	4620      	mov	r0, r4
    last_timer = timer_read();
}

void mousekey_clear(void)
{
    mouse_report = (report_mouse_t){};
 8007554:	601c      	str	r4, [r3, #0]
 8007556:	711c      	strb	r4, [r3, #4]
    mousekey_repeat = 0;
 8007558:	700c      	strb	r4, [r1, #0]
    mousekey_accel = 0;
 800755a:	7014      	strb	r4, [r2, #0]
 800755c:	f000 fc00 	bl	8007d60 <host_system_send>
    host_consumer_send(0);
 8007560:	4620      	mov	r0, r4
    return;

  case USB_EVENT_STALLED:
    return;
  }
}
 8007562:	e8bd 4038 	ldmia.w	sp!, {r3, r4, r5, lr}
 8007566:	f000 bbeb 	b.w	8007d40 <host_consumer_send>
 800756a:	bd38      	pop	{r3, r4, r5, pc}
 800756c:	4605      	mov	r5, r0
 800756e:	2320      	movs	r3, #32
 8007570:	f383 8811 	msr	BASEPRI, r3
    return;

  case USB_EVENT_CONFIGURED:
    osalSysLockFromISR();
    /* Enable the endpoints specified into the configuration. */
    usbInitEndpointI(usbp, KBD_ENDPOINT, &kbd_ep_config);
 8007574:	2101      	movs	r1, #1
 8007576:	4a13      	ldr	r2, [pc, #76]	; (80075c4 <usb_event_cb.lto_priv.61+0xa4>)
 8007578:	f7ff fb6a 	bl	8006c50 <usbInitEndpointI>
#ifdef MOUSE_ENABLE
    usbInitEndpointI(usbp, MOUSE_ENDPOINT, &mouse_ep_config);
 800757c:	4628      	mov	r0, r5
 800757e:	4621      	mov	r1, r4
 8007580:	4a11      	ldr	r2, [pc, #68]	; (80075c8 <usb_event_cb.lto_priv.61+0xa8>)
 8007582:	f7ff fb65 	bl	8006c50 <usbInitEndpointI>
#endif /* MOUSE_ENABLE */
#ifdef CONSOLE_ENABLE
    usbInitEndpointI(usbp, CONSOLE_ENDPOINT, &console_ep_config);
 8007586:	4628      	mov	r0, r5
 8007588:	2103      	movs	r1, #3
 800758a:	4a10      	ldr	r2, [pc, #64]	; (80075cc <usb_event_cb.lto_priv.61+0xac>)
 800758c:	f7ff fb60 	bl	8006c50 <usbInitEndpointI>
    /* don't need to start the flush timer, it starts from console_in_cb automatically */
#endif /* CONSOLE_ENABLE */
#ifdef EXTRAKEY_ENABLE
    usbInitEndpointI(usbp, EXTRA_ENDPOINT, &extra_ep_config);
 8007590:	4628      	mov	r0, r5
 8007592:	2104      	movs	r1, #4
 8007594:	4a0e      	ldr	r2, [pc, #56]	; (80075d0 <usb_event_cb.lto_priv.61+0xb0>)
 8007596:	f7ff fb5b 	bl	8006c50 <usbInitEndpointI>
#endif /* EXTRAKEY_ENABLE */
#ifdef NKRO_ENABLE
    usbInitEndpointI(usbp, NKRO_ENDPOINT, &nkro_ep_config);
 800759a:	4628      	mov	r0, r5
 800759c:	2105      	movs	r1, #5
 800759e:	4a0d      	ldr	r2, [pc, #52]	; (80075d4 <usb_event_cb.lto_priv.61+0xb4>)
 80075a0:	f7ff fb56 	bl	8006c50 <usbInitEndpointI>
 80075a4:	2300      	movs	r3, #0
 80075a6:	f383 8811 	msr	BASEPRI, r3
 80075aa:	bd38      	pop	{r3, r4, r5, pc}
 80075ac:	20001238 	.word	0x20001238
 80075b0:	2000154e 	.word	0x2000154e
 80075b4:	200015ba 	.word	0x200015ba
 80075b8:	2000156c 	.word	0x2000156c
 80075bc:	2000154f 	.word	0x2000154f
 80075c0:	20001538 	.word	0x20001538
 80075c4:	0800a010 	.word	0x0800a010
 80075c8:	0800a2b0 	.word	0x0800a2b0
 80075cc:	08009f90 	.word	0x08009f90
 80075d0:	0800a0b0 	.word	0x0800a0b0
 80075d4:	0800a2e0 	.word	0x0800a2e0
 80075d8:	f3af 8000 	nop.w
 80075dc:	f3af 8000 	nop.w

080075e0 <Vector8C>:
 */
OSAL_IRQ_HANDLER(STM32_USB1_HP_HANDLER) {

  OSAL_IRQ_PROLOGUE();

  OSAL_IRQ_EPILOGUE();
 80075e0:	f7ff bb56 	b.w	8006c90 <_port_irq_epilogue>
 80075e4:	f3af 8000 	nop.w
 80075e8:	f3af 8000 	nop.w
 80075ec:	f3af 8000 	nop.w

080075f0 <usb_packet_write_from_queue>:
 *                      not exceed the maximum packet size for this endpoint.
 *
 * @notapi
 */
static void usb_packet_write_from_queue(stm32_usb_descriptor_t *udp,
                                        output_queue_t *oqp, size_t n) {
 80075f0:	b5f8      	push	{r3, r4, r5, r6, r7, lr}
  size_t nhw;
  syssts_t sts;
  stm32_usb_pma_t *pmap = USB_ADDR2PTR(udp->TXADDR0);
 80075f2:	6803      	ldr	r3, [r0, #0]

  udp->TXCOUNT0 = (stm32_usb_pma_t)n;
  nhw = n / 2;
  while (nhw > 0) {
 80075f4:	ea5f 0c52 	movs.w	ip, r2, lsr #1
 */
static void usb_packet_write_from_queue(stm32_usb_descriptor_t *udp,
                                        output_queue_t *oqp, size_t n) {
  size_t nhw;
  syssts_t sts;
  stm32_usb_pma_t *pmap = USB_ADDR2PTR(udp->TXADDR0);
 80075f8:	f103 5e00 	add.w	lr, r3, #536870912	; 0x20000000
 80075fc:	f50e 5e40 	add.w	lr, lr, #12288	; 0x3000
 *                      not exceed the maximum packet size for this endpoint.
 *
 * @notapi
 */
static void usb_packet_write_from_queue(stm32_usb_descriptor_t *udp,
                                        output_queue_t *oqp, size_t n) {
 8007600:	460c      	mov	r4, r1
  size_t nhw;
  syssts_t sts;
  stm32_usb_pma_t *pmap = USB_ADDR2PTR(udp->TXADDR0);
 8007602:	ea4f 0e4e 	mov.w	lr, lr, lsl #1

  udp->TXCOUNT0 = (stm32_usb_pma_t)n;
 8007606:	6042      	str	r2, [r0, #4]
  nhw = n / 2;
  while (nhw > 0) {
 8007608:	d018      	beq.n	800763c <usb_packet_write_from_queue+0x4c>
 800760a:	4677      	mov	r7, lr
 800760c:	4660      	mov	r0, ip
 800760e:	690e      	ldr	r6, [r1, #16]
    stm32_usb_pma_t w;

    w  = (stm32_usb_pma_t)*oqp->q_rdptr++;
 8007610:	69a1      	ldr	r1, [r4, #24]
 8007612:	1c4b      	adds	r3, r1, #1
    if (oqp->q_rdptr >= oqp->q_top)
 8007614:	42b3      	cmp	r3, r6
  udp->TXCOUNT0 = (stm32_usb_pma_t)n;
  nhw = n / 2;
  while (nhw > 0) {
    stm32_usb_pma_t w;

    w  = (stm32_usb_pma_t)*oqp->q_rdptr++;
 8007616:	61a3      	str	r3, [r4, #24]
    if (oqp->q_rdptr >= oqp->q_top)
      oqp->q_rdptr = oqp->q_buffer;
 8007618:	bf28      	it	cs
 800761a:	68e3      	ldrcs	r3, [r4, #12]
  udp->TXCOUNT0 = (stm32_usb_pma_t)n;
  nhw = n / 2;
  while (nhw > 0) {
    stm32_usb_pma_t w;

    w  = (stm32_usb_pma_t)*oqp->q_rdptr++;
 800761c:	7809      	ldrb	r1, [r1, #0]
    if (oqp->q_rdptr >= oqp->q_top)
      oqp->q_rdptr = oqp->q_buffer;
    w |= (stm32_usb_pma_t)*oqp->q_rdptr++ << 8;
 800761e:	1c5d      	adds	r5, r3, #1
 8007620:	61a5      	str	r5, [r4, #24]
 8007622:	781b      	ldrb	r3, [r3, #0]
    if (oqp->q_rdptr >= oqp->q_top)
 8007624:	42b5      	cmp	r5, r6
    stm32_usb_pma_t w;

    w  = (stm32_usb_pma_t)*oqp->q_rdptr++;
    if (oqp->q_rdptr >= oqp->q_top)
      oqp->q_rdptr = oqp->q_buffer;
    w |= (stm32_usb_pma_t)*oqp->q_rdptr++ << 8;
 8007626:	ea41 2303 	orr.w	r3, r1, r3, lsl #8
    if (oqp->q_rdptr >= oqp->q_top)
      oqp->q_rdptr = oqp->q_buffer;
 800762a:	bf24      	itt	cs
 800762c:	68e1      	ldrcs	r1, [r4, #12]
 800762e:	61a1      	strcs	r1, [r4, #24]
  syssts_t sts;
  stm32_usb_pma_t *pmap = USB_ADDR2PTR(udp->TXADDR0);

  udp->TXCOUNT0 = (stm32_usb_pma_t)n;
  nhw = n / 2;
  while (nhw > 0) {
 8007630:	3801      	subs	r0, #1
    if (oqp->q_rdptr >= oqp->q_top)
      oqp->q_rdptr = oqp->q_buffer;
    w |= (stm32_usb_pma_t)*oqp->q_rdptr++ << 8;
    if (oqp->q_rdptr >= oqp->q_top)
      oqp->q_rdptr = oqp->q_buffer;
    *pmap++ = w;
 8007632:	f847 3b04 	str.w	r3, [r7], #4
  syssts_t sts;
  stm32_usb_pma_t *pmap = USB_ADDR2PTR(udp->TXADDR0);

  udp->TXCOUNT0 = (stm32_usb_pma_t)n;
  nhw = n / 2;
  while (nhw > 0) {
 8007636:	d1eb      	bne.n	8007610 <usb_packet_write_from_queue+0x20>
 8007638:	eb0e 0e8c 	add.w	lr, lr, ip, lsl #2
    *pmap++ = w;
    nhw--;
  }

  /* Last byte for odd numbers.*/
  if ((n & 1) != 0) {
 800763c:	07d3      	lsls	r3, r2, #31
 800763e:	d50b      	bpl.n	8007658 <usb_packet_write_from_queue+0x68>
    *pmap = (stm32_usb_pma_t)*oqp->q_rdptr++;
 8007640:	69a1      	ldr	r1, [r4, #24]
    if (oqp->q_rdptr >= oqp->q_top)
 8007642:	6920      	ldr	r0, [r4, #16]
    nhw--;
  }

  /* Last byte for odd numbers.*/
  if ((n & 1) != 0) {
    *pmap = (stm32_usb_pma_t)*oqp->q_rdptr++;
 8007644:	1c4b      	adds	r3, r1, #1
 8007646:	61a3      	str	r3, [r4, #24]
    if (oqp->q_rdptr >= oqp->q_top)
 8007648:	4283      	cmp	r3, r0
    nhw--;
  }

  /* Last byte for odd numbers.*/
  if ((n & 1) != 0) {
    *pmap = (stm32_usb_pma_t)*oqp->q_rdptr++;
 800764a:	7809      	ldrb	r1, [r1, #0]
    if (oqp->q_rdptr >= oqp->q_top)
      oqp->q_rdptr = oqp->q_buffer;
 800764c:	bf28      	it	cs
 800764e:	68e3      	ldrcs	r3, [r4, #12]
    nhw--;
  }

  /* Last byte for odd numbers.*/
  if ((n & 1) != 0) {
    *pmap = (stm32_usb_pma_t)*oqp->q_rdptr++;
 8007650:	f8ce 1000 	str.w	r1, [lr]
    if (oqp->q_rdptr >= oqp->q_top)
      oqp->q_rdptr = oqp->q_buffer;
 8007654:	bf28      	it	cs
 8007656:	61a3      	strcs	r3, [r4, #24]
 */
__attribute__( ( always_inline ) ) __STATIC_INLINE uint32_t __get_BASEPRI(void)
{
  uint32_t result;

  __ASM volatile ("MRS %0, basepri" : "=r" (result) );
 8007658:	f3ef 8611 	mrs	r6, BASEPRI
 * @xclass
 */
syssts_t chSysGetStatusAndLockX(void) {

  syssts_t sts = port_get_irq_status();
  if (port_irq_enabled(sts)) {
 800765c:	bb56      	cbnz	r6, 80076b4 <usb_packet_write_from_queue+0xc4>
 */
__attribute__( ( always_inline ) ) __STATIC_INLINE uint32_t __get_IPSR(void)
{
  uint32_t result;

  __ASM volatile ("MRS %0, ipsr" : "=r" (result) );
 800765e:	f3ef 8305 	mrs	r3, IPSR

    \param [in]    basePri  Base Priority value to set
 */
__attribute__( ( always_inline ) ) __STATIC_INLINE void __set_BASEPRI(uint32_t value)
{
  __ASM volatile ("MSR basepri, %0" : : "r" (value) : "memory");
 8007662:	2320      	movs	r3, #32
 8007664:	f383 8811 	msr	BASEPRI, r3
  }

  /* Updating queue.*/
  sts = osalSysGetStatusAndLockX();

  oqp->q_counter += n;
 8007668:	68a1      	ldr	r1, [r4, #8]
 *
 * @notapi
 */
static inline bool queue_notempty(const threads_queue_t *tqp) {

  return (bool)(tqp->p_next != (const thread_t *)tqp);
 800766a:	6823      	ldr	r3, [r4, #0]
 800766c:	440a      	add	r2, r1
 *
 * @iclass
 */
void chThdDequeueAllI(threads_queue_t *tqp, msg_t msg) {

  while (queue_notempty(tqp)) {
 800766e:	429c      	cmp	r4, r3
 8007670:	60a2      	str	r2, [r4, #8]
 8007672:	d00b      	beq.n	800768c <usb_packet_write_from_queue+0x9c>

  tp = queue_fifo_remove(tqp);

  chDbgAssert(tp->p_state == CH_STATE_QUEUED, "invalid state");

  tp->p_u.rdymsg = msg;
 8007674:	2500      	movs	r5, #0
}

static inline thread_t *queue_fifo_remove(threads_queue_t *tqp) {
  thread_t *tp = tqp->p_next;

  tqp->p_next = tp->p_next;
 8007676:	681a      	ldr	r2, [r3, #0]
  (void) chSchReadyI(tp);
 8007678:	4618      	mov	r0, r3
 800767a:	6022      	str	r2, [r4, #0]
  tqp->p_next->p_prev = (thread_t *)tqp;
 800767c:	6054      	str	r4, [r2, #4]

  tp = queue_fifo_remove(tqp);

  chDbgAssert(tp->p_state == CH_STATE_QUEUED, "invalid state");

  tp->p_u.rdymsg = msg;
 800767e:	621d      	str	r5, [r3, #32]
  (void) chSchReadyI(tp);
 8007680:	f7ff fbee 	bl	8006e60 <chSchReadyI>
 *
 * @notapi
 */
static inline bool queue_notempty(const threads_queue_t *tqp) {

  return (bool)(tqp->p_next != (const thread_t *)tqp);
 8007684:	6823      	ldr	r3, [r4, #0]
 8007686:	429c      	cmp	r4, r3
 8007688:	d1f5      	bne.n	8007676 <usb_packet_write_from_queue+0x86>
 *
 * @xclass
 */
void chSysRestoreStatusX(syssts_t sts) {

  if (port_irq_enabled(sts)) {
 800768a:	b946      	cbnz	r6, 800769e <usb_packet_write_from_queue+0xae>
 */
__attribute__( ( always_inline ) ) __STATIC_INLINE uint32_t __get_IPSR(void)
{
  uint32_t result;

  __ASM volatile ("MRS %0, ipsr" : "=r" (result) );
 800768c:	f3ef 8305 	mrs	r3, IPSR
 * @retval false        not running in ISR mode.
 * @retval true         running in ISR mode.
 */
static inline bool port_is_isr_context(void) {

  return (bool)((__get_IPSR() & 0x1FFU) != 0U);
 8007690:	f3c3 0308 	ubfx	r3, r3, #0, #9
    if (port_is_isr_context()) {
 8007694:	b123      	cbz	r3, 80076a0 <usb_packet_write_from_queue+0xb0>

    \param [in]    basePri  Base Priority value to set
 */
__attribute__( ( always_inline ) ) __STATIC_INLINE void __set_BASEPRI(uint32_t value)
{
  __ASM volatile ("MSR basepri, %0" : : "r" (value) : "memory");
 8007696:	2300      	movs	r3, #0
 8007698:	f383 8811 	msr	BASEPRI, r3
 800769c:	bdf8      	pop	{r3, r4, r5, r6, r7, pc}
 800769e:	bdf8      	pop	{r3, r4, r5, r6, r7, pc}
 */
static inline bool chSchIsRescRequiredI(void) {

  chDbgCheckClassI();

  return firstprio(&ch.rlist.r_queue) > currp->p_prio;
 80076a0:	4b08      	ldr	r3, [pc, #32]	; (80076c4 <usb_packet_write_from_queue+0xd4>)
 80076a2:	681a      	ldr	r2, [r3, #0]
 80076a4:	699b      	ldr	r3, [r3, #24]
 */
void chSchRescheduleS(void) {

  chDbgCheckClassS();

  if (chSchIsRescRequiredI()) {
 80076a6:	6892      	ldr	r2, [r2, #8]
 80076a8:	689b      	ldr	r3, [r3, #8]
 80076aa:	429a      	cmp	r2, r3
 80076ac:	d9f3      	bls.n	8007696 <usb_packet_write_from_queue+0xa6>
    chSchDoRescheduleAhead();
 80076ae:	f7ff fb97 	bl	8006de0 <chSchDoRescheduleAhead>
 80076b2:	e7f0      	b.n	8007696 <usb_packet_write_from_queue+0xa6>
 80076b4:	68a1      	ldr	r1, [r4, #8]
 *
 * @notapi
 */
static inline bool queue_notempty(const threads_queue_t *tqp) {

  return (bool)(tqp->p_next != (const thread_t *)tqp);
 80076b6:	6823      	ldr	r3, [r4, #0]
 80076b8:	440a      	add	r2, r1
 80076ba:	429c      	cmp	r4, r3
 80076bc:	60a2      	str	r2, [r4, #8]
 80076be:	d1d9      	bne.n	8007674 <usb_packet_write_from_queue+0x84>
 80076c0:	bdf8      	pop	{r3, r4, r5, r6, r7, pc}
 80076c2:	bf00      	nop
 80076c4:	20001260 	.word	0x20001260
 80076c8:	f3af 8000 	nop.w
 80076cc:	f3af 8000 	nop.w

080076d0 <Vector90>:
/**
 * @brief   USB low priority interrupt handler.
 *
 * @isr
 */
OSAL_IRQ_HANDLER(STM32_USB1_LP_HANDLER) {
 80076d0:	e92d 4ff0 	stmdb	sp!, {r4, r5, r6, r7, r8, r9, sl, fp, lr}
  uint32_t istr;
  USBDriver *usbp = &USBD1;

  OSAL_IRQ_PROLOGUE();

  istr = STM32_USB->ISTR;
 80076d4:	4bc1      	ldr	r3, [pc, #772]	; (80079dc <Vector90+0x30c>)
/**
 * @brief   USB low priority interrupt handler.
 *
 * @isr
 */
OSAL_IRQ_HANDLER(STM32_USB1_LP_HANDLER) {
 80076d6:	b083      	sub	sp, #12
  uint32_t istr;
  USBDriver *usbp = &USBD1;

  OSAL_IRQ_PROLOGUE();

  istr = STM32_USB->ISTR;
 80076d8:	6c5d      	ldr	r5, [r3, #68]	; 0x44

  /* USB bus reset condition handling.*/
  if (istr & ISTR_RESET) {
 80076da:	056a      	lsls	r2, r5, #21
 80076dc:	f100 8199 	bmi.w	8007a12 <Vector90+0x342>

    _usb_reset(usbp);
  }

  /* USB bus SUSPEND condition handling.*/
  if (istr & ISTR_SUSP) {
 80076e0:	052f      	lsls	r7, r5, #20
 80076e2:	f100 817f 	bmi.w	80079e4 <Vector90+0x314>

    _usb_suspend(usbp);
  }

  /* USB bus WAKEUP condition handling.*/
  if (istr & ISTR_WKUP) {
 80076e6:	04ee      	lsls	r6, r5, #19
 80076e8:	d508      	bpl.n	80076fc <Vector90+0x2c>
    uint32_t fnr = STM32_USB->FNR;
 80076ea:	4bbc      	ldr	r3, [pc, #752]	; (80079dc <Vector90+0x30c>)
 80076ec:	6c9a      	ldr	r2, [r3, #72]	; 0x48
    if (!(fnr & FNR_RXDP)) {
 80076ee:	0414      	lsls	r4, r2, #16
 80076f0:	f140 8195 	bpl.w	8007a1e <Vector90+0x34e>
      /* Just noise, going back in SUSPEND mode, reference manual 22.4.5,
         table 169.*/
      STM32_USB->CNTR |= CNTR_LP_MODE;
    }
#endif
    STM32_USB->ISTR = ~ISTR_WKUP;
 80076f4:	4bb9      	ldr	r3, [pc, #740]	; (80079dc <Vector90+0x30c>)
 80076f6:	f46f 5280 	mvn.w	r2, #4096	; 0x1000
 80076fa:	645a      	str	r2, [r3, #68]	; 0x44
  }

  /* SOF handling.*/
  if (istr & ISTR_SOF) {
 80076fc:	05a8      	lsls	r0, r5, #22
 80076fe:	d50b      	bpl.n	8007718 <Vector90+0x48>
    _usb_isr_invoke_sof_cb(usbp);
 8007700:	f8df b2dc 	ldr.w	fp, [pc, #732]	; 80079e0 <Vector90+0x310>
 8007704:	f8db 3004 	ldr.w	r3, [fp, #4]
 8007708:	68db      	ldr	r3, [r3, #12]
 800770a:	b10b      	cbz	r3, 8007710 <Vector90+0x40>
 800770c:	4658      	mov	r0, fp
 800770e:	4798      	blx	r3
    STM32_USB->ISTR = ~ISTR_SOF;
 8007710:	4bb2      	ldr	r3, [pc, #712]	; (80079dc <Vector90+0x30c>)
 8007712:	f46f 7200 	mvn.w	r2, #512	; 0x200
 8007716:	645a      	str	r2, [r3, #68]	; 0x44
  }

  /* Endpoint events handling.*/
  while (istr & ISTR_CTR) {
 8007718:	0429      	lsls	r1, r5, #16
 800771a:	f140 80c8 	bpl.w	80078ae <Vector90+0x1de>
 800771e:	f8df b2c0 	ldr.w	fp, [pc, #704]	; 80079e0 <Vector90+0x310>
    size_t n;
    uint32_t ep;
    uint32_t epr = STM32_USB->EPR[ep = istr & ISTR_EP_ID_MASK];
 8007722:	f005 050f 	and.w	r5, r5, #15
 8007726:	00ac      	lsls	r4, r5, #2
 8007728:	f104 4680 	add.w	r6, r4, #1073741824	; 0x40000000
 800772c:	f506 46b8 	add.w	r6, r6, #23552	; 0x5c00
 8007730:	f8d6 9000 	ldr.w	r9, [r6]
    const USBEndpointConfig *epcp = usbp->epc[ep];
 8007734:	1caf      	adds	r7, r5, #2
 8007736:	eb0b 0387 	add.w	r3, fp, r7, lsl #2

    if (epr & EPR_CTR_TX) {
 800773a:	f019 0f80 	tst.w	r9, #128	; 0x80
  /* Endpoint events handling.*/
  while (istr & ISTR_CTR) {
    size_t n;
    uint32_t ep;
    uint32_t epr = STM32_USB->EPR[ep = istr & ISTR_EP_ID_MASK];
    const USBEndpointConfig *epcp = usbp->epc[ep];
 800773e:	f8d3 8004 	ldr.w	r8, [r3, #4]

    if (epr & EPR_CTR_TX) {
 8007742:	d04a      	beq.n	80077da <Vector90+0x10a>
      size_t transmitted;
      /* IN endpoint, transmission.*/
      EPR_CLEAR_CTR_TX(ep);
 8007744:	6833      	ldr	r3, [r6, #0]

      transmitted = (size_t)USB_GET_DESCRIPTOR(ep)->TXCOUNT0;
 8007746:	00e8      	lsls	r0, r5, #3
    const USBEndpointConfig *epcp = usbp->epc[ep];

    if (epr & EPR_CTR_TX) {
      size_t transmitted;
      /* IN endpoint, transmission.*/
      EPR_CLEAR_CTR_TX(ep);
 8007748:	f423 4378 	bic.w	r3, r3, #63488	; 0xf800
 800774c:	f023 03f0 	bic.w	r3, r3, #240	; 0xf0
 8007750:	f443 4300 	orr.w	r3, r3, #32768	; 0x8000
 8007754:	6033      	str	r3, [r6, #0]

      transmitted = (size_t)USB_GET_DESCRIPTOR(ep)->TXCOUNT0;
 8007756:	4ba1      	ldr	r3, [pc, #644]	; (80079dc <Vector90+0x30c>)
      epcp->in_state->txcnt  += transmitted;
 8007758:	f8d8 e014 	ldr.w	lr, [r8, #20]
    if (epr & EPR_CTR_TX) {
      size_t transmitted;
      /* IN endpoint, transmission.*/
      EPR_CLEAR_CTR_TX(ep);

      transmitted = (size_t)USB_GET_DESCRIPTOR(ep)->TXCOUNT0;
 800775c:	6d1b      	ldr	r3, [r3, #80]	; 0x50
      epcp->in_state->txcnt  += transmitted;
      n = epcp->in_state->txsize - epcp->in_state->txcnt;
 800775e:	f8de 2004 	ldr.w	r2, [lr, #4]
 8007762:	f103 5300 	add.w	r3, r3, #536870912	; 0x20000000
 8007766:	f503 5340 	add.w	r3, r3, #12288	; 0x3000
    if (epr & EPR_CTR_TX) {
      size_t transmitted;
      /* IN endpoint, transmission.*/
      EPR_CLEAR_CTR_TX(ep);

      transmitted = (size_t)USB_GET_DESCRIPTOR(ep)->TXCOUNT0;
 800776a:	4403      	add	r3, r0
 800776c:	005b      	lsls	r3, r3, #1
 800776e:	f8d3 c004 	ldr.w	ip, [r3, #4]
      epcp->in_state->txcnt  += transmitted;
 8007772:	f8de 3008 	ldr.w	r3, [lr, #8]
 8007776:	4463      	add	r3, ip
 8007778:	f8ce 3008 	str.w	r3, [lr, #8]
      n = epcp->in_state->txsize - epcp->in_state->txcnt;
      if (n > 0) {
 800777c:	1ad3      	subs	r3, r2, r3
 800777e:	f000 80bb 	beq.w	80078f8 <Vector90+0x228>
        /* Transfer not completed, there are more packets to send.*/
        if (n > epcp->in_maxsize)
 8007782:	f8b8 2010 	ldrh.w	r2, [r8, #16]
          n = epcp->in_maxsize;

        if (epcp->in_state->txqueued)
 8007786:	f89e 1000 	ldrb.w	r1, [lr]
 800778a:	429a      	cmp	r2, r3
 800778c:	bf28      	it	cs
 800778e:	461a      	movcs	r2, r3
 8007790:	2900      	cmp	r1, #0
 8007792:	f000 80a1 	beq.w	80078d8 <Vector90+0x208>
          usb_packet_write_from_queue(USB_GET_DESCRIPTOR(ep),
 8007796:	4b91      	ldr	r3, [pc, #580]	; (80079dc <Vector90+0x30c>)
 8007798:	f8de 100c 	ldr.w	r1, [lr, #12]
 800779c:	6d1b      	ldr	r3, [r3, #80]	; 0x50
 800779e:	f103 5300 	add.w	r3, r3, #536870912	; 0x20000000
 80077a2:	f503 5340 	add.w	r3, r3, #12288	; 0x3000
 80077a6:	4418      	add	r0, r3
 80077a8:	0040      	lsls	r0, r0, #1
 80077aa:	f7ff ff21 	bl	80075f0 <usb_packet_write_from_queue>
 80077ae:	2320      	movs	r3, #32
 80077b0:	f383 8811 	msr	BASEPRI, r3
 80077b4:	f104 4480 	add.w	r4, r4, #1073741824	; 0x40000000
 80077b8:	f504 44b8 	add.w	r4, r4, #23552	; 0x5c00
 */
void usb_lld_start_in(USBDriver *usbp, usbep_t ep) {

  (void)usbp;

  EPR_SET_STAT_TX(ep, EPR_STAT_TX_VALID);
 80077bc:	6823      	ldr	r3, [r4, #0]
 80077be:	2200      	movs	r2, #0
 80077c0:	f423 43f0 	bic.w	r3, r3, #30720	; 0x7800
 80077c4:	f023 0340 	bic.w	r3, r3, #64	; 0x40
 80077c8:	f083 0330 	eor.w	r3, r3, #48	; 0x30
 80077cc:	f443 4300 	orr.w	r3, r3, #32768	; 0x8000
 80077d0:	f043 0380 	orr.w	r3, r3, #128	; 0x80
 80077d4:	6023      	str	r3, [r4, #0]
 80077d6:	f382 8811 	msr	BASEPRI, r2
      else {
        /* Transfer completed, invokes the callback.*/
        _usb_isr_invoke_in_cb(usbp, ep);
      }
    }
    if (epr & EPR_CTR_RX) {
 80077da:	f419 4f00 	tst.w	r9, #32768	; 0x8000
 80077de:	d061      	beq.n	80078a4 <Vector90+0x1d4>
      EPR_CLEAR_CTR_RX(ep);
 80077e0:	6833      	ldr	r3, [r6, #0]
      /* OUT endpoint, receive.*/
      if (epr & EPR_SETUP) {
 80077e2:	f419 6f00 	tst.w	r9, #2048	; 0x800
        /* Transfer completed, invokes the callback.*/
        _usb_isr_invoke_in_cb(usbp, ep);
      }
    }
    if (epr & EPR_CTR_RX) {
      EPR_CLEAR_CTR_RX(ep);
 80077e6:	f423 4378 	bic.w	r3, r3, #63488	; 0xf800
 80077ea:	f023 03f0 	bic.w	r3, r3, #240	; 0xf0
 80077ee:	f043 0380 	orr.w	r3, r3, #128	; 0x80
 80077f2:	6033      	str	r3, [r6, #0]
      /* OUT endpoint, receive.*/
      if (epr & EPR_SETUP) {
 80077f4:	f040 808e 	bne.w	8007914 <Vector90+0x244>
        /* Setup packets handling, setup packets are handled using a
           specific callback.*/
        _usb_isr_invoke_setup_cb(usbp, ep);
      }
      else {
        stm32_usb_descriptor_t *udp = USB_GET_DESCRIPTOR(ep);
 80077f8:	4b78      	ldr	r3, [pc, #480]	; (80079dc <Vector90+0x30c>)
        n = (size_t)udp->RXCOUNT0 & RXCOUNT_COUNT_MASK;

        /* Reads the packet into the defined buffer.*/
        if (epcp->out_state->rxqueued)
 80077fa:	f8d8 c018 	ldr.w	ip, [r8, #24]
        /* Setup packets handling, setup packets are handled using a
           specific callback.*/
        _usb_isr_invoke_setup_cb(usbp, ep);
      }
      else {
        stm32_usb_descriptor_t *udp = USB_GET_DESCRIPTOR(ep);
 80077fe:	6d1b      	ldr	r3, [r3, #80]	; 0x50
        n = (size_t)udp->RXCOUNT0 & RXCOUNT_COUNT_MASK;

        /* Reads the packet into the defined buffer.*/
        if (epcp->out_state->rxqueued)
 8007800:	f89c 1000 	ldrb.w	r1, [ip]
 8007804:	f103 5300 	add.w	r3, r3, #536870912	; 0x20000000
 8007808:	f503 5340 	add.w	r3, r3, #12288	; 0x3000
        /* Setup packets handling, setup packets are handled using a
           specific callback.*/
        _usb_isr_invoke_setup_cb(usbp, ep);
      }
      else {
        stm32_usb_descriptor_t *udp = USB_GET_DESCRIPTOR(ep);
 800780c:	eb03 03c5 	add.w	r3, r3, r5, lsl #3
 8007810:	005b      	lsls	r3, r3, #1
        n = (size_t)udp->RXCOUNT0 & RXCOUNT_COUNT_MASK;
 8007812:	f8d3 e00c 	ldr.w	lr, [r3, #12]
 8007816:	f3ce 0909 	ubfx	r9, lr, #0, #10

        /* Reads the packet into the defined buffer.*/
        if (epcp->out_state->rxqueued)
 800781a:	2900      	cmp	r1, #0
 800781c:	f040 8082 	bne.w	8007924 <Vector90+0x254>
                                      uint8_t *buf, size_t n) {
  stm32_usb_pma_t *pmap;
  uint32_t w;
  size_t i;

  pmap = USB_ADDR2PTR(udp->RXADDR0);
 8007820:	6898      	ldr	r0, [r3, #8]
        if (epcp->out_state->rxqueued)
          usb_packet_read_to_queue(udp,
                                   epcp->out_state->mode.queue.rxqueue,
                                   n);
        else {
          usb_packet_read_to_buffer(udp,
 8007822:	f8dc 400c 	ldr.w	r4, [ip, #12]
                                      uint8_t *buf, size_t n) {
  stm32_usb_pma_t *pmap;
  uint32_t w;
  size_t i;

  pmap = USB_ADDR2PTR(udp->RXADDR0);
 8007826:	f100 5000 	add.w	r0, r0, #536870912	; 0x20000000
 800782a:	f500 5040 	add.w	r0, r0, #12288	; 0x3000
 800782e:	0040      	lsls	r0, r0, #1

  i = 0;
  w = 0; /* Useless but silences a warning.*/
  while (i < n) {
 8007830:	f1b9 0f00 	cmp.w	r9, #0
 8007834:	d011      	beq.n	800785a <Vector90+0x18a>
 8007836:	4623      	mov	r3, r4
 8007838:	eb04 0e09 	add.w	lr, r4, r9
 800783c:	1b1a      	subs	r2, r3, r4
    if ((i & 1) == 0){
 800783e:	07d2      	lsls	r2, r2, #31
      w = *pmap;
 8007840:	bf55      	itete	pl
 8007842:	f850 1b04 	ldrpl.w	r1, [r0], #4
      *buf = (uint8_t)w;
      pmap++;
    }
    else {
      *buf = (uint8_t)(w >> 8);
 8007846:	0a0a      	lsrmi	r2, r1, #8
  i = 0;
  w = 0; /* Useless but silences a warning.*/
  while (i < n) {
    if ((i & 1) == 0){
      w = *pmap;
      *buf = (uint8_t)w;
 8007848:	7019      	strbpl	r1, [r3, #0]
      pmap++;
    }
    else {
      *buf = (uint8_t)(w >> 8);
 800784a:	701a      	strbmi	r2, [r3, #0]
    }
    i++;
    buf++;
 800784c:	3301      	adds	r3, #1

  pmap = USB_ADDR2PTR(udp->RXADDR0);

  i = 0;
  w = 0; /* Useless but silences a warning.*/
  while (i < n) {
 800784e:	4573      	cmp	r3, lr
 8007850:	d1f4      	bne.n	800783c <Vector90+0x16c>
 8007852:	f8d8 c018 	ldr.w	ip, [r8, #24]
 8007856:	f8dc 400c 	ldr.w	r4, [ip, #12]
                                   n);
        else {
          usb_packet_read_to_buffer(udp,
                                    epcp->out_state->mode.linear.rxbuf,
                                    n);
          epcp->out_state->mode.linear.rxbuf += n;
 800785a:	444c      	add	r4, r9
 800785c:	f8cc 400c 	str.w	r4, [ip, #12]
        }
        /* Transaction data updated.*/
        epcp->out_state->rxcnt              += n;
        epcp->out_state->rxsize             -= n;
        epcp->out_state->rxpkts             -= 1;
 8007860:	f8bc 1010 	ldrh.w	r1, [ip, #16]

        /* The transaction is completed if the specified number of packets
           has been received or the current packet is a short packet.*/
        if ((n < epcp->out_maxsize) || (epcp->out_state->rxpkts == 0)) {
 8007864:	f8b8 0012 	ldrh.w	r0, [r8, #18]
                                    epcp->out_state->mode.linear.rxbuf,
                                    n);
          epcp->out_state->mode.linear.rxbuf += n;
        }
        /* Transaction data updated.*/
        epcp->out_state->rxcnt              += n;
 8007868:	f8dc 2008 	ldr.w	r2, [ip, #8]
        epcp->out_state->rxsize             -= n;
 800786c:	f8dc 3004 	ldr.w	r3, [ip, #4]
        epcp->out_state->rxpkts             -= 1;
 8007870:	3901      	subs	r1, #1
 8007872:	b289      	uxth	r1, r1
                                    epcp->out_state->mode.linear.rxbuf,
                                    n);
          epcp->out_state->mode.linear.rxbuf += n;
        }
        /* Transaction data updated.*/
        epcp->out_state->rxcnt              += n;
 8007874:	444a      	add	r2, r9
        epcp->out_state->rxsize             -= n;
 8007876:	ebc9 0303 	rsb	r3, r9, r3
        epcp->out_state->rxpkts             -= 1;

        /* The transaction is completed if the specified number of packets
           has been received or the current packet is a short packet.*/
        if ((n < epcp->out_maxsize) || (epcp->out_state->rxpkts == 0)) {
 800787a:	4581      	cmp	r9, r0
          epcp->out_state->mode.linear.rxbuf += n;
        }
        /* Transaction data updated.*/
        epcp->out_state->rxcnt              += n;
        epcp->out_state->rxsize             -= n;
        epcp->out_state->rxpkts             -= 1;
 800787c:	f8ac 1010 	strh.w	r1, [ip, #16]
                                    epcp->out_state->mode.linear.rxbuf,
                                    n);
          epcp->out_state->mode.linear.rxbuf += n;
        }
        /* Transaction data updated.*/
        epcp->out_state->rxcnt              += n;
 8007880:	f8cc 2008 	str.w	r2, [ip, #8]
        epcp->out_state->rxsize             -= n;
 8007884:	f8cc 3004 	str.w	r3, [ip, #4]
        epcp->out_state->rxpkts             -= 1;

        /* The transaction is completed if the specified number of packets
           has been received or the current packet is a short packet.*/
        if ((n < epcp->out_maxsize) || (epcp->out_state->rxpkts == 0)) {
 8007888:	d316      	bcc.n	80078b8 <Vector90+0x1e8>
 800788a:	b1a9      	cbz	r1, 80078b8 <Vector90+0x1e8>
          /* Transfer complete, invokes the callback.*/
          _usb_isr_invoke_out_cb(usbp, ep);
        }
        else {
          /* Transfer not complete, there are more packets to receive.*/
          EPR_SET_STAT_RX(ep, EPR_STAT_RX_VALID);
 800788c:	6833      	ldr	r3, [r6, #0]
 800788e:	f423 4390 	bic.w	r3, r3, #18432	; 0x4800
 8007892:	f023 0370 	bic.w	r3, r3, #112	; 0x70
 8007896:	f483 5340 	eor.w	r3, r3, #12288	; 0x3000
 800789a:	f443 4300 	orr.w	r3, r3, #32768	; 0x8000
 800789e:	f043 0380 	orr.w	r3, r3, #128	; 0x80
 80078a2:	6033      	str	r3, [r6, #0]
        }
      }
    }
    istr = STM32_USB->ISTR;
 80078a4:	4b4d      	ldr	r3, [pc, #308]	; (80079dc <Vector90+0x30c>)
 80078a6:	6c5d      	ldr	r5, [r3, #68]	; 0x44
    _usb_isr_invoke_sof_cb(usbp);
    STM32_USB->ISTR = ~ISTR_SOF;
  }

  /* Endpoint events handling.*/
  while (istr & ISTR_CTR) {
 80078a8:	042b      	lsls	r3, r5, #16
 80078aa:	f53f af3a 	bmi.w	8007722 <Vector90+0x52>
    }
    istr = STM32_USB->ISTR;
  }

  OSAL_IRQ_EPILOGUE();
}
 80078ae:	b003      	add	sp, #12
 80078b0:	e8bd 4ff0 	ldmia.w	sp!, {r4, r5, r6, r7, r8, r9, sl, fp, lr}
      }
    }
    istr = STM32_USB->ISTR;
  }

  OSAL_IRQ_EPILOGUE();
 80078b4:	f7ff b9ec 	b.w	8006c90 <_port_irq_epilogue>

        /* The transaction is completed if the specified number of packets
           has been received or the current packet is a short packet.*/
        if ((n < epcp->out_maxsize) || (epcp->out_state->rxpkts == 0)) {
          /* Transfer complete, invokes the callback.*/
          _usb_isr_invoke_out_cb(usbp, ep);
 80078b8:	f8bb 300a 	ldrh.w	r3, [fp, #10]
 80078bc:	eb0b 0787 	add.w	r7, fp, r7, lsl #2
 80078c0:	2101      	movs	r1, #1
 80078c2:	40a9      	lsls	r1, r5
 80078c4:	687a      	ldr	r2, [r7, #4]
 80078c6:	ea23 0301 	bic.w	r3, r3, r1
 80078ca:	68d2      	ldr	r2, [r2, #12]
 80078cc:	f8ab 300a 	strh.w	r3, [fp, #10]
 80078d0:	4629      	mov	r1, r5
 80078d2:	4843      	ldr	r0, [pc, #268]	; (80079e0 <Vector90+0x310>)
 80078d4:	4790      	blx	r2
 80078d6:	e7e5      	b.n	80078a4 <Vector90+0x1d4>
        if (epcp->in_state->txqueued)
          usb_packet_write_from_queue(USB_GET_DESCRIPTOR(ep),
                                      epcp->in_state->mode.queue.txqueue,
                                      n);
        else {
          epcp->in_state->mode.linear.txbuf += transmitted;
 80078d8:	f8de 100c 	ldr.w	r1, [lr, #12]
          usb_packet_write_from_buffer(USB_GET_DESCRIPTOR(ep),
 80078dc:	4b3f      	ldr	r3, [pc, #252]	; (80079dc <Vector90+0x30c>)
        if (epcp->in_state->txqueued)
          usb_packet_write_from_queue(USB_GET_DESCRIPTOR(ep),
                                      epcp->in_state->mode.queue.txqueue,
                                      n);
        else {
          epcp->in_state->mode.linear.txbuf += transmitted;
 80078de:	4461      	add	r1, ip
 80078e0:	f8ce 100c 	str.w	r1, [lr, #12]
          usb_packet_write_from_buffer(USB_GET_DESCRIPTOR(ep),
 80078e4:	6d1b      	ldr	r3, [r3, #80]	; 0x50
 80078e6:	f103 5300 	add.w	r3, r3, #536870912	; 0x20000000
 80078ea:	f503 5340 	add.w	r3, r3, #12288	; 0x3000
 80078ee:	4418      	add	r0, r3
 80078f0:	0040      	lsls	r0, r0, #1
 80078f2:	f7fe fe8d 	bl	8006610 <usb_packet_write_from_buffer.lto_priv.68>
 80078f6:	e75a      	b.n	80077ae <Vector90+0xde>
        usb_lld_start_in(usbp, ep);
        osalSysUnlockFromISR();
      }
      else {
        /* Transfer completed, invokes the callback.*/
        _usb_isr_invoke_in_cb(usbp, ep);
 80078f8:	4b39      	ldr	r3, [pc, #228]	; (80079e0 <Vector90+0x310>)
 80078fa:	2201      	movs	r2, #1
 80078fc:	891b      	ldrh	r3, [r3, #8]
 80078fe:	40aa      	lsls	r2, r5
 8007900:	ea23 0302 	bic.w	r3, r3, r2
 8007904:	4a36      	ldr	r2, [pc, #216]	; (80079e0 <Vector90+0x310>)
 8007906:	4629      	mov	r1, r5
 8007908:	8113      	strh	r3, [r2, #8]
 800790a:	4610      	mov	r0, r2
 800790c:	f8d8 3008 	ldr.w	r3, [r8, #8]
 8007910:	4798      	blx	r3
 8007912:	e762      	b.n	80077da <Vector90+0x10a>
      EPR_CLEAR_CTR_RX(ep);
      /* OUT endpoint, receive.*/
      if (epr & EPR_SETUP) {
        /* Setup packets handling, setup packets are handled using a
           specific callback.*/
        _usb_isr_invoke_setup_cb(usbp, ep);
 8007914:	eb0b 0787 	add.w	r7, fp, r7, lsl #2
 8007918:	687b      	ldr	r3, [r7, #4]
 800791a:	4629      	mov	r1, r5
 800791c:	685b      	ldr	r3, [r3, #4]
 800791e:	4830      	ldr	r0, [pc, #192]	; (80079e0 <Vector90+0x310>)
 8007920:	4798      	blx	r3
 8007922:	e7bf      	b.n	80078a4 <Vector90+0x1d4>
 * @notapi
 */
static void usb_packet_read_to_queue(stm32_usb_descriptor_t *udp,
                                     input_queue_t *iqp, size_t n) {
  size_t nhw;
  stm32_usb_pma_t *pmap= USB_ADDR2PTR(udp->RXADDR0);
 8007924:	689b      	ldr	r3, [r3, #8]

  nhw = n / 2;
  while (nhw > 0) {
 8007926:	ea5f 0259 	movs.w	r2, r9, lsr #1
 * @notapi
 */
static void usb_packet_read_to_queue(stm32_usb_descriptor_t *udp,
                                     input_queue_t *iqp, size_t n) {
  size_t nhw;
  stm32_usb_pma_t *pmap= USB_ADDR2PTR(udp->RXADDR0);
 800792a:	f103 5300 	add.w	r3, r3, #536870912	; 0x20000000
 800792e:	f503 5340 	add.w	r3, r3, #12288	; 0x3000
 8007932:	ea4f 0343 	mov.w	r3, r3, lsl #1
        stm32_usb_descriptor_t *udp = USB_GET_DESCRIPTOR(ep);
        n = (size_t)udp->RXCOUNT0 & RXCOUNT_COUNT_MASK;

        /* Reads the packet into the defined buffer.*/
        if (epcp->out_state->rxqueued)
          usb_packet_read_to_queue(udp,
 8007936:	f8dc 400c 	ldr.w	r4, [ip, #12]
 * @notapi
 */
static void usb_packet_read_to_queue(stm32_usb_descriptor_t *udp,
                                     input_queue_t *iqp, size_t n) {
  size_t nhw;
  stm32_usb_pma_t *pmap= USB_ADDR2PTR(udp->RXADDR0);
 800793a:	9300      	str	r3, [sp, #0]

  nhw = n / 2;
  while (nhw > 0) {
 800793c:	9201      	str	r2, [sp, #4]
 800793e:	d021      	beq.n	8007984 <Vector90+0x2b4>
 8007940:	4611      	mov	r1, r2
 8007942:	4618      	mov	r0, r3
    stm32_usb_pma_t w;

    w = *pmap++;
    *iqp->q_wrptr++ = (uint8_t)w;
 8007944:	6963      	ldr	r3, [r4, #20]

  nhw = n / 2;
  while (nhw > 0) {
    stm32_usb_pma_t w;

    w = *pmap++;
 8007946:	f850 2b04 	ldr.w	r2, [r0], #4
    *iqp->q_wrptr++ = (uint8_t)w;
 800794a:	f103 0a01 	add.w	sl, r3, #1
 800794e:	f8c4 a014 	str.w	sl, [r4, #20]
 8007952:	701a      	strb	r2, [r3, #0]
    if (iqp->q_wrptr >= iqp->q_top)
 8007954:	6923      	ldr	r3, [r4, #16]
      iqp->q_wrptr = iqp->q_buffer;
    *iqp->q_wrptr++ = (uint8_t)(w >> 8);
 8007956:	ea4f 2c12 	mov.w	ip, r2, lsr #8
  while (nhw > 0) {
    stm32_usb_pma_t w;

    w = *pmap++;
    *iqp->q_wrptr++ = (uint8_t)w;
    if (iqp->q_wrptr >= iqp->q_top)
 800795a:	6962      	ldr	r2, [r4, #20]
 800795c:	429a      	cmp	r2, r3
      iqp->q_wrptr = iqp->q_buffer;
 800795e:	bf28      	it	cs
 8007960:	68e2      	ldrcs	r2, [r4, #12]
    *iqp->q_wrptr++ = (uint8_t)(w >> 8);
 8007962:	1c53      	adds	r3, r2, #1
 8007964:	6163      	str	r3, [r4, #20]
 8007966:	f882 c000 	strb.w	ip, [r2]
    if (iqp->q_wrptr >= iqp->q_top)
 800796a:	6923      	ldr	r3, [r4, #16]
 800796c:	6962      	ldr	r2, [r4, #20]
 800796e:	429a      	cmp	r2, r3
      iqp->q_wrptr = iqp->q_buffer;
 8007970:	bf24      	itt	cs
 8007972:	68e3      	ldrcs	r3, [r4, #12]
 8007974:	6163      	strcs	r3, [r4, #20]
                                     input_queue_t *iqp, size_t n) {
  size_t nhw;
  stm32_usb_pma_t *pmap= USB_ADDR2PTR(udp->RXADDR0);

  nhw = n / 2;
  while (nhw > 0) {
 8007976:	3901      	subs	r1, #1
 8007978:	d1e4      	bne.n	8007944 <Vector90+0x274>
 800797a:	9b00      	ldr	r3, [sp, #0]
 800797c:	9a01      	ldr	r2, [sp, #4]
 800797e:	eb03 0382 	add.w	r3, r3, r2, lsl #2
 8007982:	9300      	str	r3, [sp, #0]
    if (iqp->q_wrptr >= iqp->q_top)
      iqp->q_wrptr = iqp->q_buffer;
    nhw--;
  }
  /* Last byte for odd numbers.*/
  if ((n & 1) != 0) {
 8007984:	f01e 0f01 	tst.w	lr, #1
 8007988:	d00b      	beq.n	80079a2 <Vector90+0x2d2>
    *iqp->q_wrptr++ = (uint8_t)*pmap;
 800798a:	9a00      	ldr	r2, [sp, #0]
 800798c:	6963      	ldr	r3, [r4, #20]
 800798e:	6812      	ldr	r2, [r2, #0]
 8007990:	1c59      	adds	r1, r3, #1
 8007992:	6161      	str	r1, [r4, #20]
 8007994:	701a      	strb	r2, [r3, #0]
    if (iqp->q_wrptr >= iqp->q_top)
 8007996:	6923      	ldr	r3, [r4, #16]
 8007998:	6962      	ldr	r2, [r4, #20]
 800799a:	429a      	cmp	r2, r3
      iqp->q_wrptr = iqp->q_buffer;
 800799c:	bf24      	itt	cs
 800799e:	68e3      	ldrcs	r3, [r4, #12]
 80079a0:	6163      	strcs	r3, [r4, #20]
 80079a2:	2320      	movs	r3, #32
 80079a4:	f383 8811 	msr	BASEPRI, r3
  }

  /* Updating queue.*/
  osalSysLockFromISR();

  iqp->q_counter += n;
 80079a8:	68a2      	ldr	r2, [r4, #8]
 80079aa:	6823      	ldr	r3, [r4, #0]
 80079ac:	444a      	add	r2, r9
 80079ae:	42a3      	cmp	r3, r4
 80079b0:	60a2      	str	r2, [r4, #8]

  tp = queue_fifo_remove(tqp);

  chDbgAssert(tp->p_state == CH_STATE_QUEUED, "invalid state");

  tp->p_u.rdymsg = msg;
 80079b2:	bf18      	it	ne
 80079b4:	f04f 0a00 	movne.w	sl, #0
 80079b8:	d00a      	beq.n	80079d0 <Vector90+0x300>
}

static inline thread_t *queue_fifo_remove(threads_queue_t *tqp) {
  thread_t *tp = tqp->p_next;

  tqp->p_next = tp->p_next;
 80079ba:	681a      	ldr	r2, [r3, #0]
  (void) chSchReadyI(tp);
 80079bc:	4618      	mov	r0, r3
 80079be:	6022      	str	r2, [r4, #0]
  tqp->p_next->p_prev = (thread_t *)tqp;
 80079c0:	6054      	str	r4, [r2, #4]

  tp = queue_fifo_remove(tqp);

  chDbgAssert(tp->p_state == CH_STATE_QUEUED, "invalid state");

  tp->p_u.rdymsg = msg;
 80079c2:	f8c3 a020 	str.w	sl, [r3, #32]
  (void) chSchReadyI(tp);
 80079c6:	f7ff fa4b 	bl	8006e60 <chSchReadyI>
 *
 * @notapi
 */
static inline bool queue_notempty(const threads_queue_t *tqp) {

  return (bool)(tqp->p_next != (const thread_t *)tqp);
 80079ca:	6823      	ldr	r3, [r4, #0]
 80079cc:	42a3      	cmp	r3, r4
 80079ce:	d1f4      	bne.n	80079ba <Vector90+0x2ea>
 80079d0:	2300      	movs	r3, #0
 80079d2:	f383 8811 	msr	BASEPRI, r3
 80079d6:	f8d8 c018 	ldr.w	ip, [r8, #24]
 80079da:	e741      	b.n	8007860 <Vector90+0x190>
 80079dc:	40005c00 	.word	0x40005c00
 80079e0:	200014b4 	.word	0x200014b4
 * @notapi
 */
void _usb_suspend(USBDriver *usbp) {

  /* State transition.*/
  usbp->state         = USB_SUSPENDED;
 80079e4:	f8df b060 	ldr.w	fp, [pc, #96]	; 8007a48 <Vector90+0x378>
    _usb_reset(usbp);
  }

  /* USB bus SUSPEND condition handling.*/
  if (istr & ISTR_SUSP) {
    STM32_USB->CNTR |= CNTR_FSUSP;
 80079e8:	4b16      	ldr	r3, [pc, #88]	; (8007a44 <Vector90+0x374>)

  /* Notification of suspend event.*/
  _usb_isr_invoke_event_cb(usbp, USB_EVENT_SUSPEND);
 80079ea:	f8db 1004 	ldr.w	r1, [fp, #4]
 80079ee:	6c1a      	ldr	r2, [r3, #64]	; 0x40
 80079f0:	680c      	ldr	r4, [r1, #0]
 80079f2:	f042 0208 	orr.w	r2, r2, #8
#if STM32_USB_LOW_POWER_ON_SUSPEND
    STM32_USB->CNTR |= CNTR_LP_MODE;
#endif
    STM32_USB->ISTR = ~ISTR_SUSP;
 80079f6:	f46f 6000 	mvn.w	r0, #2048	; 0x800
 * @notapi
 */
void _usb_suspend(USBDriver *usbp) {

  /* State transition.*/
  usbp->state         = USB_SUSPENDED;
 80079fa:	2105      	movs	r1, #5
    _usb_reset(usbp);
  }

  /* USB bus SUSPEND condition handling.*/
  if (istr & ISTR_SUSP) {
    STM32_USB->CNTR |= CNTR_FSUSP;
 80079fc:	641a      	str	r2, [r3, #64]	; 0x40
#if STM32_USB_LOW_POWER_ON_SUSPEND
    STM32_USB->CNTR |= CNTR_LP_MODE;
#endif
    STM32_USB->ISTR = ~ISTR_SUSP;
 80079fe:	6458      	str	r0, [r3, #68]	; 0x44
 8007a00:	f88b 1000 	strb.w	r1, [fp]

  /* Notification of suspend event.*/
  _usb_isr_invoke_event_cb(usbp, USB_EVENT_SUSPEND);
 8007a04:	2c00      	cmp	r4, #0
 8007a06:	f43f ae6e 	beq.w	80076e6 <Vector90+0x16>
 8007a0a:	4658      	mov	r0, fp
 8007a0c:	2103      	movs	r1, #3
 8007a0e:	47a0      	blx	r4
 8007a10:	e669      	b.n	80076e6 <Vector90+0x16>

  istr = STM32_USB->ISTR;

  /* USB bus reset condition handling.*/
  if (istr & ISTR_RESET) {
    STM32_USB->ISTR = ~ISTR_RESET;
 8007a12:	f46f 6280 	mvn.w	r2, #1024	; 0x400
 8007a16:	645a      	str	r2, [r3, #68]	; 0x44

    _usb_reset(usbp);
 8007a18:	f000 fd42 	bl	80084a0 <_usb_reset.constprop.16>
 8007a1c:	e660      	b.n	80076e0 <Vector90+0x10>
 * @notapi
 */
void _usb_wakeup(USBDriver *usbp) {

  /* State transition.*/
  usbp->state         = USB_ACTIVE;
 8007a1e:	f8df b028 	ldr.w	fp, [pc, #40]	; 8007a48 <Vector90+0x378>

  /* USB bus WAKEUP condition handling.*/
  if (istr & ISTR_WKUP) {
    uint32_t fnr = STM32_USB->FNR;
    if (!(fnr & FNR_RXDP)) {
      STM32_USB->CNTR &= ~CNTR_FSUSP;
 8007a22:	6c1a      	ldr	r2, [r3, #64]	; 0x40

  /* Notification of suspend event.*/
  _usb_isr_invoke_event_cb(usbp, USB_EVENT_WAKEUP);
 8007a24:	f8db 1004 	ldr.w	r1, [fp, #4]
 8007a28:	f022 0208 	bic.w	r2, r2, #8
 8007a2c:	680c      	ldr	r4, [r1, #0]
 * @notapi
 */
void _usb_wakeup(USBDriver *usbp) {

  /* State transition.*/
  usbp->state         = USB_ACTIVE;
 8007a2e:	2104      	movs	r1, #4
 8007a30:	641a      	str	r2, [r3, #64]	; 0x40
 8007a32:	f88b 1000 	strb.w	r1, [fp]

  /* Notification of suspend event.*/
  _usb_isr_invoke_event_cb(usbp, USB_EVENT_WAKEUP);
 8007a36:	2c00      	cmp	r4, #0
 8007a38:	f43f ae5c 	beq.w	80076f4 <Vector90+0x24>
 8007a3c:	4658      	mov	r0, fp
 8007a3e:	47a0      	blx	r4
 8007a40:	e658      	b.n	80076f4 <Vector90+0x24>
 8007a42:	bf00      	nop
 8007a44:	40005c00 	.word	0x40005c00
 8007a48:	200014b4 	.word	0x200014b4
 8007a4c:	f3af 8000 	nop.w

08007a50 <__early_init>:
void stm32_clock_init(void) {

#if !STM32_NO_INIT
  /* HSI setup, it enforces the reset situation in order to handle possible
     problems with JTAG probes and re-initializations.*/
  RCC->CR |= RCC_CR_HSION;                  /* Make sure HSI is ON.         */
 8007a50:	4b1f      	ldr	r3, [pc, #124]	; (8007ad0 <__early_init+0x80>)
  while (!(RCC->CR & RCC_CR_HSIRDY))
 8007a52:	4619      	mov	r1, r3
void stm32_clock_init(void) {

#if !STM32_NO_INIT
  /* HSI setup, it enforces the reset situation in order to handle possible
     problems with JTAG probes and re-initializations.*/
  RCC->CR |= RCC_CR_HSION;                  /* Make sure HSI is ON.         */
 8007a54:	681a      	ldr	r2, [r3, #0]
 8007a56:	f042 0201 	orr.w	r2, r2, #1
 8007a5a:	601a      	str	r2, [r3, #0]
  while (!(RCC->CR & RCC_CR_HSIRDY))
 8007a5c:	680b      	ldr	r3, [r1, #0]
 8007a5e:	4a1c      	ldr	r2, [pc, #112]	; (8007ad0 <__early_init+0x80>)
 8007a60:	079b      	lsls	r3, r3, #30
 8007a62:	d5fb      	bpl.n	8007a5c <__early_init+0xc>
    ;                                       /* Wait until HSI is stable.    */
  RCC->CR &= RCC_CR_HSITRIM | RCC_CR_HSION; /* CR Reset value.              */
  RCC->CFGR = 0;                            /* CFGR reset value.            */
  while ((RCC->CFGR & RCC_CFGR_SWS) != RCC_CFGR_SWS_HSI)
 8007a64:	4611      	mov	r1, r2
  /* HSI setup, it enforces the reset situation in order to handle possible
     problems with JTAG probes and re-initializations.*/
  RCC->CR |= RCC_CR_HSION;                  /* Make sure HSI is ON.         */
  while (!(RCC->CR & RCC_CR_HSIRDY))
    ;                                       /* Wait until HSI is stable.    */
  RCC->CR &= RCC_CR_HSITRIM | RCC_CR_HSION; /* CR Reset value.              */
 8007a66:	6813      	ldr	r3, [r2, #0]
  RCC->CFGR = 0;                            /* CFGR reset value.            */
 8007a68:	2000      	movs	r0, #0
  /* HSI setup, it enforces the reset situation in order to handle possible
     problems with JTAG probes and re-initializations.*/
  RCC->CR |= RCC_CR_HSION;                  /* Make sure HSI is ON.         */
  while (!(RCC->CR & RCC_CR_HSIRDY))
    ;                                       /* Wait until HSI is stable.    */
  RCC->CR &= RCC_CR_HSITRIM | RCC_CR_HSION; /* CR Reset value.              */
 8007a6a:	f003 03f9 	and.w	r3, r3, #249	; 0xf9
 8007a6e:	6013      	str	r3, [r2, #0]
  RCC->CFGR = 0;                            /* CFGR reset value.            */
 8007a70:	6050      	str	r0, [r2, #4]
  while ((RCC->CFGR & RCC_CFGR_SWS) != RCC_CFGR_SWS_HSI)
 8007a72:	684b      	ldr	r3, [r1, #4]
 8007a74:	4a16      	ldr	r2, [pc, #88]	; (8007ad0 <__early_init+0x80>)
 8007a76:	f013 0f0c 	tst.w	r3, #12
 8007a7a:	d1fa      	bne.n	8007a72 <__early_init+0x22>
  /* HSE Bypass.*/
  RCC->CR |= RCC_CR_HSEBYP;
#endif
  /* HSE activation.*/
  RCC->CR |= RCC_CR_HSEON;
  while (!(RCC->CR & RCC_CR_HSERDY))
 8007a7c:	4611      	mov	r1, r2
#if defined(STM32_HSE_BYPASS)
  /* HSE Bypass.*/
  RCC->CR |= RCC_CR_HSEBYP;
#endif
  /* HSE activation.*/
  RCC->CR |= RCC_CR_HSEON;
 8007a7e:	6813      	ldr	r3, [r2, #0]
 8007a80:	f443 3380 	orr.w	r3, r3, #65536	; 0x10000
 8007a84:	6013      	str	r3, [r2, #0]
  while (!(RCC->CR & RCC_CR_HSERDY))
 8007a86:	680b      	ldr	r3, [r1, #0]
 8007a88:	4a11      	ldr	r2, [pc, #68]	; (8007ad0 <__early_init+0x80>)
 8007a8a:	0398      	lsls	r0, r3, #14
 8007a8c:	d5fb      	bpl.n	8007a86 <__early_init+0x36>

#if STM32_ACTIVATE_PLL
  /* PLL activation.*/
  RCC->CFGR |= STM32_PLLMUL | STM32_PLLXTPRE | STM32_PLLSRC;
  RCC->CR   |= RCC_CR_PLLON;
  while (!(RCC->CR & RCC_CR_PLLRDY))
 8007a8e:	4611      	mov	r1, r2
    ;                                       /* Waits until LSI is stable.   */
#endif

#if STM32_ACTIVATE_PLL
  /* PLL activation.*/
  RCC->CFGR |= STM32_PLLMUL | STM32_PLLXTPRE | STM32_PLLSRC;
 8007a90:	6853      	ldr	r3, [r2, #4]
 8007a92:	f443 13e8 	orr.w	r3, r3, #1900544	; 0x1d0000
 8007a96:	6053      	str	r3, [r2, #4]
  RCC->CR   |= RCC_CR_PLLON;
 8007a98:	6813      	ldr	r3, [r2, #0]
 8007a9a:	f043 7380 	orr.w	r3, r3, #16777216	; 0x1000000
 8007a9e:	6013      	str	r3, [r2, #0]
  while (!(RCC->CR & RCC_CR_PLLRDY))
 8007aa0:	680b      	ldr	r3, [r1, #0]
 8007aa2:	4a0b      	ldr	r2, [pc, #44]	; (8007ad0 <__early_init+0x80>)
 8007aa4:	019b      	lsls	r3, r3, #6
 8007aa6:	d5fb      	bpl.n	8007aa0 <__early_init+0x50>

  /* Switching to the configured clock source if it is different from HSI.*/
#if (STM32_SW != STM32_SW_HSI)
  /* Switches clock source.*/
  RCC->CFGR |= STM32_SW;
  while ((RCC->CFGR & RCC_CFGR_SWS) != (STM32_SW << 2))
 8007aa8:	4611      	mov	r1, r2
/*
 * Early initialization code.
 * This initialization must be performed just after stack setup and before
 * any other initialization.
 */
void __early_init(void) {
 8007aaa:	b410      	push	{r4}
              STM32_PLLSRC | STM32_ADCPRE | STM32_PPRE2  | STM32_PPRE1    |
              STM32_HPRE;
#endif

  /* Flash setup and final clock selection.   */
  FLASH->ACR = STM32_FLASHBITS;
 8007aac:	4b09      	ldr	r3, [pc, #36]	; (8007ad4 <__early_init+0x84>)
    ;                                       /* Waits until PLL is stable.   */
#endif

  /* Clock settings.*/
#if STM32_HAS_USB
  RCC->CFGR = STM32_MCOSEL | STM32_USBPRE | STM32_PLLMUL | STM32_PLLXTPRE |
 8007aae:	4c0a      	ldr	r4, [pc, #40]	; (8007ad8 <__early_init+0x88>)
              STM32_PLLSRC | STM32_ADCPRE | STM32_PPRE2  | STM32_PPRE1    |
              STM32_HPRE;
#endif

  /* Flash setup and final clock selection.   */
  FLASH->ACR = STM32_FLASHBITS;
 8007ab0:	2012      	movs	r0, #18
    ;                                       /* Waits until PLL is stable.   */
#endif

  /* Clock settings.*/
#if STM32_HAS_USB
  RCC->CFGR = STM32_MCOSEL | STM32_USBPRE | STM32_PLLMUL | STM32_PLLXTPRE |
 8007ab2:	6054      	str	r4, [r2, #4]
              STM32_PLLSRC | STM32_ADCPRE | STM32_PPRE2  | STM32_PPRE1    |
              STM32_HPRE;
#endif

  /* Flash setup and final clock selection.   */
  FLASH->ACR = STM32_FLASHBITS;
 8007ab4:	6018      	str	r0, [r3, #0]

  /* Switching to the configured clock source if it is different from HSI.*/
#if (STM32_SW != STM32_SW_HSI)
  /* Switches clock source.*/
  RCC->CFGR |= STM32_SW;
 8007ab6:	6853      	ldr	r3, [r2, #4]
 8007ab8:	f043 0302 	orr.w	r3, r3, #2
 8007abc:	6053      	str	r3, [r2, #4]
  while ((RCC->CFGR & RCC_CFGR_SWS) != (STM32_SW << 2))
 8007abe:	684b      	ldr	r3, [r1, #4]
 8007ac0:	f003 030c 	and.w	r3, r3, #12
 8007ac4:	2b08      	cmp	r3, #8
 8007ac6:	d1fa      	bne.n	8007abe <__early_init+0x6e>

  stm32_clock_init();
}
 8007ac8:	f85d 4b04 	ldr.w	r4, [sp], #4
 8007acc:	4770      	bx	lr
 8007ace:	bf00      	nop
 8007ad0:	40021000 	.word	0x40021000
 8007ad4:	40022000 	.word	0x40022000
 8007ad8:	001d6400 	.word	0x001d6400
 8007adc:	f3af 8000 	nop.w

08007ae0 <usb_lld_prepare_transmit>:
 *
 * @notapi
 */
void usb_lld_prepare_transmit(USBDriver *usbp, usbep_t ep) {
  size_t n;
  USBInEndpointState *isp = usbp->epc[ep]->in_state;
 8007ae0:	eb00 0081 	add.w	r0, r0, r1, lsl #2
 8007ae4:	68c3      	ldr	r3, [r0, #12]
 * @param[in] usbp      pointer to the @p USBDriver object
 * @param[in] ep        endpoint number
 *
 * @notapi
 */
void usb_lld_prepare_transmit(USBDriver *usbp, usbep_t ep) {
 8007ae6:	b410      	push	{r4}
 8007ae8:	460c      	mov	r4, r1
  size_t n;
  USBInEndpointState *isp = usbp->epc[ep]->in_state;
 8007aea:	6959      	ldr	r1, [r3, #20]

  /* Transfer initialization.*/
  n = isp->txsize;
  if (n > (size_t)usbp->epc[ep]->in_maxsize)
 8007aec:	8a1a      	ldrh	r2, [r3, #16]
void usb_lld_prepare_transmit(USBDriver *usbp, usbep_t ep) {
  size_t n;
  USBInEndpointState *isp = usbp->epc[ep]->in_state;

  /* Transfer initialization.*/
  n = isp->txsize;
 8007aee:	684b      	ldr	r3, [r1, #4]
  if (n > (size_t)usbp->epc[ep]->in_maxsize)
    n = (size_t)usbp->epc[ep]->in_maxsize;

  if (isp->txqueued)
 8007af0:	7808      	ldrb	r0, [r1, #0]
 8007af2:	429a      	cmp	r2, r3
 8007af4:	bf28      	it	cs
 8007af6:	461a      	movcs	r2, r3
    usb_packet_write_from_queue(USB_GET_DESCRIPTOR(ep),
 8007af8:	68c9      	ldr	r1, [r1, #12]
 8007afa:	4b0d      	ldr	r3, [pc, #52]	; (8007b30 <usb_lld_prepare_transmit+0x50>)
  /* Transfer initialization.*/
  n = isp->txsize;
  if (n > (size_t)usbp->epc[ep]->in_maxsize)
    n = (size_t)usbp->epc[ep]->in_maxsize;

  if (isp->txqueued)
 8007afc:	b958      	cbnz	r0, 8007b16 <usb_lld_prepare_transmit+0x36>
    usb_packet_write_from_queue(USB_GET_DESCRIPTOR(ep),
                                isp->mode.queue.txqueue, n);
  else
    usb_packet_write_from_buffer(USB_GET_DESCRIPTOR(ep),
 8007afe:	6d18      	ldr	r0, [r3, #80]	; 0x50
 8007b00:	f100 5000 	add.w	r0, r0, #536870912	; 0x20000000
 8007b04:	f500 5040 	add.w	r0, r0, #12288	; 0x3000
 8007b08:	eb00 00c4 	add.w	r0, r0, r4, lsl #3
 8007b0c:	0040      	lsls	r0, r0, #1
                                 isp->mode.linear.txbuf, n);
}
 8007b0e:	f85d 4b04 	ldr.w	r4, [sp], #4

  if (isp->txqueued)
    usb_packet_write_from_queue(USB_GET_DESCRIPTOR(ep),
                                isp->mode.queue.txqueue, n);
  else
    usb_packet_write_from_buffer(USB_GET_DESCRIPTOR(ep),
 8007b12:	f7fe bd7d 	b.w	8006610 <usb_packet_write_from_buffer.lto_priv.68>
  n = isp->txsize;
  if (n > (size_t)usbp->epc[ep]->in_maxsize)
    n = (size_t)usbp->epc[ep]->in_maxsize;

  if (isp->txqueued)
    usb_packet_write_from_queue(USB_GET_DESCRIPTOR(ep),
 8007b16:	6d18      	ldr	r0, [r3, #80]	; 0x50
 8007b18:	f100 5000 	add.w	r0, r0, #536870912	; 0x20000000
 8007b1c:	f500 5040 	add.w	r0, r0, #12288	; 0x3000
 8007b20:	eb00 00c4 	add.w	r0, r0, r4, lsl #3
 8007b24:	0040      	lsls	r0, r0, #1
                                isp->mode.queue.txqueue, n);
  else
    usb_packet_write_from_buffer(USB_GET_DESCRIPTOR(ep),
                                 isp->mode.linear.txbuf, n);
}
 8007b26:	f85d 4b04 	ldr.w	r4, [sp], #4
  n = isp->txsize;
  if (n > (size_t)usbp->epc[ep]->in_maxsize)
    n = (size_t)usbp->epc[ep]->in_maxsize;

  if (isp->txqueued)
    usb_packet_write_from_queue(USB_GET_DESCRIPTOR(ep),
 8007b2a:	f7ff bd61 	b.w	80075f0 <usb_packet_write_from_queue>
 8007b2e:	bf00      	nop
 8007b30:	40005c00 	.word	0x40005c00
 8007b34:	f3af 8000 	nop.w
 8007b38:	f3af 8000 	nop.w
 8007b3c:	f3af 8000 	nop.w

08007b40 <usb_lld_init_endpoint>:
 * @notapi
 */
void usb_lld_init_endpoint(USBDriver *usbp, usbep_t ep) {
  uint16_t nblocks, epr;
  stm32_usb_descriptor_t *dp;
  const USBEndpointConfig *epcp = usbp->epc[ep];
 8007b40:	eb00 0381 	add.w	r3, r0, r1, lsl #2
 * @param[in] usbp      pointer to the @p USBDriver object
 * @param[in] ep        endpoint number
 *
 * @notapi
 */
void usb_lld_init_endpoint(USBDriver *usbp, usbep_t ep) {
 8007b44:	b470      	push	{r4, r5, r6}
  uint16_t nblocks, epr;
  stm32_usb_descriptor_t *dp;
  const USBEndpointConfig *epcp = usbp->epc[ep];
 8007b46:	68dc      	ldr	r4, [r3, #12]

  /* Setting the endpoint type.*/
  switch (epcp->ep_mode & USB_EP_MODE_TYPE) {
 8007b48:	6823      	ldr	r3, [r4, #0]
 8007b4a:	f003 0303 	and.w	r3, r3, #3
 8007b4e:	3b01      	subs	r3, #1
 8007b50:	2b02      	cmp	r3, #2
 8007b52:	bf96      	itet	ls
 8007b54:	4a31      	ldrls	r2, [pc, #196]	; (8007c1c <usb_lld_init_endpoint+0xdc>)
 8007b56:	f44f 7600 	movhi.w	r6, #512	; 0x200
 8007b5a:	f832 6013 	ldrhls.w	r6, [r2, r3, lsl #1]
  default:
    epr = EPR_EP_TYPE_CONTROL;
  }

  /* IN endpoint initially in NAK mode.*/
  if (epcp->in_cb != NULL)
 8007b5e:	68a3      	ldr	r3, [r4, #8]
 8007b60:	b10b      	cbz	r3, 8007b66 <usb_lld_init_endpoint+0x26>
    epr |= EPR_STAT_TX_NAK;
 8007b62:	f046 0620 	orr.w	r6, r6, #32

  /* OUT endpoint initially in NAK mode.*/
  if (epcp->out_cb != NULL)
 8007b66:	68e3      	ldr	r3, [r4, #12]
 8007b68:	b10b      	cbz	r3, 8007b6e <usb_lld_init_endpoint+0x2e>
    epr |= EPR_STAT_RX_NAK;
 8007b6a:	f446 5600 	orr.w	r6, r6, #8192	; 0x2000

  /* EPxR register setup.*/
  EPR_SET(ep, epr | ep);
  EPR_TOGGLE(ep, epr);
 8007b6e:	f647 0570 	movw	r5, #30832	; 0x7870
  /* OUT endpoint initially in NAK mode.*/
  if (epcp->out_cb != NULL)
    epr |= EPR_STAT_RX_NAK;

  /* EPxR register setup.*/
  EPR_SET(ep, epr | ep);
 8007b72:	ea46 0201 	orr.w	r2, r6, r1
 8007b76:	f422 4278 	bic.w	r2, r2, #63488	; 0xf800
 8007b7a:	f022 02f0 	bic.w	r2, r2, #240	; 0xf0
 8007b7e:	008b      	lsls	r3, r1, #2
 8007b80:	f442 4200 	orr.w	r2, r2, #32768	; 0x8000
 8007b84:	f103 4380 	add.w	r3, r3, #1073741824	; 0x40000000
 8007b88:	f503 43b8 	add.w	r3, r3, #23552	; 0x5c00
 8007b8c:	f042 0280 	orr.w	r2, r2, #128	; 0x80
 8007b90:	601a      	str	r2, [r3, #0]
  EPR_TOGGLE(ep, epr);
 8007b92:	681a      	ldr	r2, [r3, #0]
 8007b94:	4035      	ands	r5, r6
 8007b96:	4055      	eors	r5, r2

  /* Endpoint size and address initialization.*/
  if (epcp->out_maxsize > 62)
 8007b98:	8a62      	ldrh	r2, [r4, #18]
  if (epcp->out_cb != NULL)
    epr |= EPR_STAT_RX_NAK;

  /* EPxR register setup.*/
  EPR_SET(ep, epr | ep);
  EPR_TOGGLE(ep, epr);
 8007b9a:	f445 4500 	orr.w	r5, r5, #32768	; 0x8000
 8007b9e:	f045 0580 	orr.w	r5, r5, #128	; 0x80

  /* Endpoint size and address initialization.*/
  if (epcp->out_maxsize > 62)
 8007ba2:	2a3e      	cmp	r2, #62	; 0x3e
  if (epcp->out_cb != NULL)
    epr |= EPR_STAT_RX_NAK;

  /* EPxR register setup.*/
  EPR_SET(ep, epr | ep);
  EPR_TOGGLE(ep, epr);
 8007ba4:	601d      	str	r5, [r3, #0]

  /* Endpoint size and address initialization.*/
  if (epcp->out_maxsize > 62)
    nblocks = (((((epcp->out_maxsize - 1) | 0x1f) + 1) / 32) << 10) |
 8007ba6:	f102 33ff 	add.w	r3, r2, #4294967295
  /* EPxR register setup.*/
  EPR_SET(ep, epr | ep);
  EPR_TOGGLE(ep, epr);

  /* Endpoint size and address initialization.*/
  if (epcp->out_maxsize > 62)
 8007baa:	d82c      	bhi.n	8007c06 <usb_lld_init_endpoint+0xc6>
    nblocks = (((((epcp->out_maxsize - 1) | 0x1f) + 1) / 32) << 10) |
              0x8000;
  else
    nblocks = ((((epcp->out_maxsize - 1) | 1) + 1) / 2) << 10;
 8007bac:	f043 0301 	orr.w	r3, r3, #1
 8007bb0:	3301      	adds	r3, #1
 8007bb2:	eb03 73d3 	add.w	r3, r3, r3, lsr #31
 8007bb6:	025b      	lsls	r3, r3, #9
 8007bb8:	f403 437c 	and.w	r3, r3, #64512	; 0xfc00
  dp = USB_GET_DESCRIPTOR(ep);
 8007bbc:	4d18      	ldr	r5, [pc, #96]	; (8007c20 <usb_lld_init_endpoint+0xe0>)
  dp->TXCOUNT0 = 0;
 8007bbe:	2600      	movs	r6, #0
  if (epcp->out_maxsize > 62)
    nblocks = (((((epcp->out_maxsize - 1) | 0x1f) + 1) / 32) << 10) |
              0x8000;
  else
    nblocks = ((((epcp->out_maxsize - 1) | 1) + 1) / 2) << 10;
  dp = USB_GET_DESCRIPTOR(ep);
 8007bc0:	6d2d      	ldr	r5, [r5, #80]	; 0x50
  dp->TXCOUNT0 = 0;
  dp->RXCOUNT0 = nblocks;
  dp->TXADDR0  = usb_pm_alloc(usbp, epcp->in_maxsize);
 8007bc2:	8a24      	ldrh	r4, [r4, #16]
 8007bc4:	f105 5500 	add.w	r5, r5, #536870912	; 0x20000000
 8007bc8:	f505 5540 	add.w	r5, r5, #12288	; 0x3000
  if (epcp->out_maxsize > 62)
    nblocks = (((((epcp->out_maxsize - 1) | 0x1f) + 1) / 32) << 10) |
              0x8000;
  else
    nblocks = ((((epcp->out_maxsize - 1) | 1) + 1) / 2) << 10;
  dp = USB_GET_DESCRIPTOR(ep);
 8007bcc:	eb05 01c1 	add.w	r1, r5, r1, lsl #3
 8007bd0:	0049      	lsls	r1, r1, #1
  dp->TXCOUNT0 = 0;
 8007bd2:	684d      	ldr	r5, [r1, #4]
 8007bd4:	604e      	str	r6, [r1, #4]
  dp->RXCOUNT0 = nblocks;
 8007bd6:	68cd      	ldr	r5, [r1, #12]
 8007bd8:	60cb      	str	r3, [r1, #12]
 */
static uint32_t usb_pm_alloc(USBDriver *usbp, size_t size) {
  uint32_t next;

  next = usbp->pmnext;
  usbp->pmnext += (size + 1) & ~1;
 8007bda:	1c63      	adds	r3, r4, #1
 * @param[in] size      size of the packet buffer to allocate
 */
static uint32_t usb_pm_alloc(USBDriver *usbp, size_t size) {
  uint32_t next;

  next = usbp->pmnext;
 8007bdc:	f8d0 4080 	ldr.w	r4, [r0, #128]	; 0x80
  usbp->pmnext += (size + 1) & ~1;
 8007be0:	f023 0301 	bic.w	r3, r3, #1
 8007be4:	4423      	add	r3, r4
 8007be6:	f8c0 3080 	str.w	r3, [r0, #128]	; 0x80
  else
    nblocks = ((((epcp->out_maxsize - 1) | 1) + 1) / 2) << 10;
  dp = USB_GET_DESCRIPTOR(ep);
  dp->TXCOUNT0 = 0;
  dp->RXCOUNT0 = nblocks;
  dp->TXADDR0  = usb_pm_alloc(usbp, epcp->in_maxsize);
 8007bea:	680b      	ldr	r3, [r1, #0]
 8007bec:	600c      	str	r4, [r1, #0]
 * @param[in] size      size of the packet buffer to allocate
 */
static uint32_t usb_pm_alloc(USBDriver *usbp, size_t size) {
  uint32_t next;

  next = usbp->pmnext;
 8007bee:	f8d0 3080 	ldr.w	r3, [r0, #128]	; 0x80
  usbp->pmnext += (size + 1) & ~1;
 8007bf2:	3201      	adds	r2, #1
 8007bf4:	f022 0201 	bic.w	r2, r2, #1
 8007bf8:	441a      	add	r2, r3
 8007bfa:	f8c0 2080 	str.w	r2, [r0, #128]	; 0x80
    nblocks = ((((epcp->out_maxsize - 1) | 1) + 1) / 2) << 10;
  dp = USB_GET_DESCRIPTOR(ep);
  dp->TXCOUNT0 = 0;
  dp->RXCOUNT0 = nblocks;
  dp->TXADDR0  = usb_pm_alloc(usbp, epcp->in_maxsize);
  dp->RXADDR0  = usb_pm_alloc(usbp, epcp->out_maxsize);
 8007bfe:	688a      	ldr	r2, [r1, #8]
}
 8007c00:	bc70      	pop	{r4, r5, r6}
    nblocks = ((((epcp->out_maxsize - 1) | 1) + 1) / 2) << 10;
  dp = USB_GET_DESCRIPTOR(ep);
  dp->TXCOUNT0 = 0;
  dp->RXCOUNT0 = nblocks;
  dp->TXADDR0  = usb_pm_alloc(usbp, epcp->in_maxsize);
  dp->RXADDR0  = usb_pm_alloc(usbp, epcp->out_maxsize);
 8007c02:	608b      	str	r3, [r1, #8]
}
 8007c04:	4770      	bx	lr
  EPR_SET(ep, epr | ep);
  EPR_TOGGLE(ep, epr);

  /* Endpoint size and address initialization.*/
  if (epcp->out_maxsize > 62)
    nblocks = (((((epcp->out_maxsize - 1) | 0x1f) + 1) / 32) << 10) |
 8007c06:	f043 031f 	orr.w	r3, r3, #31
 8007c0a:	3301      	adds	r3, #1
 8007c0c:	115b      	asrs	r3, r3, #5
 8007c0e:	ea6f 63c3 	mvn.w	r3, r3, lsl #27
 8007c12:	ea6f 4353 	mvn.w	r3, r3, lsr #17
 8007c16:	b29b      	uxth	r3, r3
 8007c18:	e7d0      	b.n	8007bbc <usb_lld_init_endpoint+0x7c>
 8007c1a:	bf00      	nop
 8007c1c:	0800a0f0 	.word	0x0800a0f0
 8007c20:	40005c00 	.word	0x40005c00
 8007c24:	f3af 8000 	nop.w
 8007c28:	f3af 8000 	nop.w
 8007c2c:	f3af 8000 	nop.w

08007c30 <action_exec>:
#include "nodebug.h"
#endif


void action_exec(keyevent_t event)
{
 8007c30:	e92d 41f0 	stmdb	sp!, {r4, r5, r6, r7, r8, lr}
 8007c34:	b08c      	sub	sp, #48	; 0x30
 8007c36:	e88d 0003 	stmia.w	sp, {r0, r1}
    if (!IS_NOEVENT(event)) {
        dprint("\n---- action_exec: start -----\n");
        dprint("EVENT: "); debug_event(event); dprintln();
    }

    keyrecord_t record = { .event = event };
 8007c3a:	2200      	movs	r2, #0
 8007c3c:	e89d 0003 	ldmia.w	sp, {r0, r1}
 8007c40:	9207      	str	r2, [sp, #28]
 8007c42:	9006      	str	r0, [sp, #24]
 8007c44:	f8ad 101c 	strh.w	r1, [sp, #28]
 8007c48:	ab06      	add	r3, sp, #24
 8007c4a:	ac08      	add	r4, sp, #32
 8007c4c:	e893 0003 	ldmia.w	r3, {r0, r1}
 8007c50:	e884 0003 	stmia.w	r4, {r0, r1}
static void debug_waiting_buffer(void);


void action_tapping_process(keyrecord_t record)
{
    if (process_tapping(&record)) {
 8007c54:	4620      	mov	r0, r4
 8007c56:	f001 fb43 	bl	80092e0 <process_tapping.lto_priv.52>
 8007c5a:	4607      	mov	r7, r0
 8007c5c:	b328      	cbz	r0, 8007caa <action_exec+0x7a>

/* Rules for No Event:
 * 1) (time == 0) to handle (keyevent_t){} as empty event
 * 2) Matrix(255, 255) to make TICK event available
 */
static inline bool IS_NOEVENT(keyevent_t event) { return event.time == 0 || (event.key.row == 255 && event.key.col == 255); }
 8007c5e:	f8bd 3024 	ldrh.w	r3, [sp, #36]	; 0x24
 8007c62:	f89d 1020 	ldrb.w	r1, [sp, #32]
 8007c66:	f89d 2021 	ldrb.w	r2, [sp, #33]	; 0x21
 8007c6a:	b9cb      	cbnz	r3, 8007ca0 <action_exec+0x70>
 8007c6c:	4e2e      	ldr	r6, [pc, #184]	; (8007d28 <action_exec+0xf8>)
 8007c6e:	4d2f      	ldr	r5, [pc, #188]	; (8007d2c <action_exec+0xfc>)
 8007c70:	f896 8000 	ldrb.w	r8, [r6]
 8007c74:	782c      	ldrb	r4, [r5, #0]

    // process waiting_buffer
    if (!IS_NOEVENT(record.event) && waiting_buffer_head != waiting_buffer_tail) {
        debug("---- action_exec: process waiting_buffer -----\n");
    }
    for (; waiting_buffer_tail != waiting_buffer_head; waiting_buffer_tail = (waiting_buffer_tail + 1) % WAITING_BUFFER_SIZE) {
 8007c76:	4544      	cmp	r4, r8
 8007c78:	d00f      	beq.n	8007c9a <action_exec+0x6a>
 8007c7a:	4f2d      	ldr	r7, [pc, #180]	; (8007d30 <action_exec+0x100>)
 8007c7c:	e007      	b.n	8007c8e <action_exec+0x5e>
        if (process_tapping(&waiting_buffer[waiting_buffer_tail])) {
            debug("processed: waiting_buffer["); debug_dec(waiting_buffer_tail); debug("] = ");
            debug_record(waiting_buffer[waiting_buffer_tail]); debug("\n\n");
 8007c7e:	782c      	ldrb	r4, [r5, #0]

    // process waiting_buffer
    if (!IS_NOEVENT(record.event) && waiting_buffer_head != waiting_buffer_tail) {
        debug("---- action_exec: process waiting_buffer -----\n");
    }
    for (; waiting_buffer_tail != waiting_buffer_head; waiting_buffer_tail = (waiting_buffer_tail + 1) % WAITING_BUFFER_SIZE) {
 8007c80:	7833      	ldrb	r3, [r6, #0]
 8007c82:	3401      	adds	r4, #1
 8007c84:	f004 0407 	and.w	r4, r4, #7
 8007c88:	42a3      	cmp	r3, r4
 8007c8a:	702c      	strb	r4, [r5, #0]
 8007c8c:	d005      	beq.n	8007c9a <action_exec+0x6a>
        if (process_tapping(&waiting_buffer[waiting_buffer_tail])) {
 8007c8e:	eb07 00c4 	add.w	r0, r7, r4, lsl #3
 8007c92:	f001 fb25 	bl	80092e0 <process_tapping.lto_priv.52>
 8007c96:	2800      	cmp	r0, #0
 8007c98:	d1f1      	bne.n	8007c7e <action_exec+0x4e>
    process_action(&record);
    if (!IS_NOEVENT(record.event)) {
        dprint("processed: "); debug_record(record); dprintln();
    }
#endif
}
 8007c9a:	b00c      	add	sp, #48	; 0x30
 8007c9c:	e8bd 81f0 	ldmia.w	sp!, {r4, r5, r6, r7, r8, pc}
 8007ca0:	f88d 1008 	strb.w	r1, [sp, #8]
 8007ca4:	f88d 2009 	strb.w	r2, [sp, #9]
 8007ca8:	e7e0      	b.n	8007c6c <action_exec+0x3c>
 8007caa:	f89d 6020 	ldrb.w	r6, [sp, #32]
 8007cae:	f89d 5021 	ldrb.w	r5, [sp, #33]	; 0x21
 8007cb2:	f8bd 2024 	ldrh.w	r2, [sp, #36]	; 0x24
 8007cb6:	ab0a      	add	r3, sp, #40	; 0x28
 8007cb8:	e894 0003 	ldmia.w	r4, {r0, r1}
 8007cbc:	e883 0003 	stmia.w	r3, {r0, r1}
 8007cc0:	f88d 6028 	strb.w	r6, [sp, #40]	; 0x28
 8007cc4:	f88d 5029 	strb.w	r5, [sp, #41]	; 0x29
 8007cc8:	f8ad 202c 	strh.w	r2, [sp, #44]	; 0x2c
 8007ccc:	2a00      	cmp	r2, #0
 8007cce:	d0cd      	beq.n	8007c6c <action_exec+0x3c>
 8007cd0:	f64f 72ff 	movw	r2, #65535	; 0xffff
 8007cd4:	f88d 6010 	strb.w	r6, [sp, #16]
 8007cd8:	f88d 5011 	strb.w	r5, [sp, #17]
 8007cdc:	f8bd 1010 	ldrh.w	r1, [sp, #16]
 8007ce0:	4291      	cmp	r1, r2
 8007ce2:	d0c3      	beq.n	8007c6c <action_exec+0x3c>
{
    if (IS_NOEVENT(record.event)) {
        return true;
    }

    if ((waiting_buffer_head + 1) % WAITING_BUFFER_SIZE == waiting_buffer_tail) {
 8007ce4:	4e10      	ldr	r6, [pc, #64]	; (8007d28 <action_exec+0xf8>)
 8007ce6:	4d11      	ldr	r5, [pc, #68]	; (8007d2c <action_exec+0xfc>)
 8007ce8:	7832      	ldrb	r2, [r6, #0]
 8007cea:	782c      	ldrb	r4, [r5, #0]
 8007cec:	f102 0801 	add.w	r8, r2, #1
 8007cf0:	f008 0807 	and.w	r8, r8, #7
 8007cf4:	45a0      	cmp	r8, r4
 8007cf6:	d00d      	beq.n	8007d14 <action_exec+0xe4>
        debug("waiting_buffer_enq: Over flow.\n");
        return false;
    }

    waiting_buffer[waiting_buffer_head] = record;
 8007cf8:	e893 0003 	ldmia.w	r3, {r0, r1}
 8007cfc:	4f0c      	ldr	r7, [pc, #48]	; (8007d30 <action_exec+0x100>)
    waiting_buffer_head = (waiting_buffer_head + 1) % WAITING_BUFFER_SIZE;
 8007cfe:	fa5f f888 	uxtb.w	r8, r8
    if ((waiting_buffer_head + 1) % WAITING_BUFFER_SIZE == waiting_buffer_tail) {
        debug("waiting_buffer_enq: Over flow.\n");
        return false;
    }

    waiting_buffer[waiting_buffer_head] = record;
 8007d02:	eb07 07c2 	add.w	r7, r7, r2, lsl #3
    waiting_buffer_head = (waiting_buffer_head + 1) % WAITING_BUFFER_SIZE;
 8007d06:	f886 8000 	strb.w	r8, [r6]
    if ((waiting_buffer_head + 1) % WAITING_BUFFER_SIZE == waiting_buffer_tail) {
        debug("waiting_buffer_enq: Over flow.\n");
        return false;
    }

    waiting_buffer[waiting_buffer_head] = record;
 8007d0a:	e887 0003 	stmia.w	r7, {r0, r1}
    waiting_buffer_head = (waiting_buffer_head + 1) % WAITING_BUFFER_SIZE;

    debug("waiting_buffer_enq: "); debug_waiting_buffer();
 8007d0e:	f001 fa6f 	bl	80091f0 <debug_waiting_buffer.lto_priv.53>
 8007d12:	e7b0      	b.n	8007c76 <action_exec+0x46>
/* modifier */
uint8_t get_mods(void) { return real_mods; }
void add_mods(uint8_t mods) { real_mods |= mods; }
void del_mods(uint8_t mods) { real_mods &= ~mods; }
void set_mods(uint8_t mods) { real_mods = mods; }
void clear_mods(void) { real_mods = 0; }
 8007d14:	4b07      	ldr	r3, [pc, #28]	; (8007d34 <action_exec+0x104>)
 8007d16:	701f      	strb	r7, [r3, #0]
}

void clear_keyboard(void)
{
    clear_mods();
    clear_keyboard_but_mods();
 8007d18:	f001 fcf2 	bl	8009700 <clear_keyboard_but_mods>
        if (!waiting_buffer_enq(record)) {
            // clear all in case of overflow.
            debug("OVERFLOW: CLEAR ALL STATES\n");
            clear_keyboard();
            waiting_buffer_clear();
            tapping_key = (keyrecord_t){};
 8007d1c:	4b06      	ldr	r3, [pc, #24]	; (8007d38 <action_exec+0x108>)
    return true;
}

void waiting_buffer_clear(void)
{
    waiting_buffer_head = 0;
 8007d1e:	7037      	strb	r7, [r6, #0]
    waiting_buffer_tail = 0;
 8007d20:	702f      	strb	r7, [r5, #0]
        if (!waiting_buffer_enq(record)) {
            // clear all in case of overflow.
            debug("OVERFLOW: CLEAR ALL STATES\n");
            clear_keyboard();
            waiting_buffer_clear();
            tapping_key = (keyrecord_t){};
 8007d22:	601f      	str	r7, [r3, #0]
 8007d24:	605f      	str	r7, [r3, #4]
 8007d26:	e7b8      	b.n	8007c9a <action_exec+0x6a>
 8007d28:	200015b8 	.word	0x200015b8
 8007d2c:	200015b9 	.word	0x200015b9
 8007d30:	20001574 	.word	0x20001574
 8007d34:	2000154e 	.word	0x2000154e
 8007d38:	200015d0 	.word	0x200015d0
 8007d3c:	f3af 8000 	nop.w

08007d40 <host_consumer_send>:
    (*driver->send_system)(report);
}

void host_consumer_send(uint16_t report)
{
    if (report == last_consumer_report) return;
 8007d40:	4b05      	ldr	r3, [pc, #20]	; (8007d58 <host_consumer_send+0x18>)
 8007d42:	8819      	ldrh	r1, [r3, #0]
 8007d44:	4281      	cmp	r1, r0
 8007d46:	d005      	beq.n	8007d54 <host_consumer_send+0x14>
    last_consumer_report = report;

    if (!driver) return;
 8007d48:	4904      	ldr	r1, [pc, #16]	; (8007d5c <host_consumer_send+0x1c>)
}

void host_consumer_send(uint16_t report)
{
    if (report == last_consumer_report) return;
    last_consumer_report = report;
 8007d4a:	8018      	strh	r0, [r3, #0]

    if (!driver) return;
 8007d4c:	680b      	ldr	r3, [r1, #0]
 8007d4e:	b10b      	cbz	r3, 8007d54 <host_consumer_send+0x14>
    (*driver->send_consumer)(report);
 8007d50:	691b      	ldr	r3, [r3, #16]
 8007d52:	4718      	bx	r3
 8007d54:	4770      	bx	lr
 8007d56:	bf00      	nop
 8007d58:	200014a0 	.word	0x200014a0
 8007d5c:	200014ac 	.word	0x200014ac

08007d60 <host_system_send>:
    (*driver->send_mouse)(report);
}

void host_system_send(uint16_t report)
{
    if (report == last_system_report) return;
 8007d60:	4b05      	ldr	r3, [pc, #20]	; (8007d78 <host_system_send+0x18>)
 8007d62:	8819      	ldrh	r1, [r3, #0]
 8007d64:	4281      	cmp	r1, r0
 8007d66:	d005      	beq.n	8007d74 <host_system_send+0x14>
    last_system_report = report;

    if (!driver) return;
 8007d68:	4904      	ldr	r1, [pc, #16]	; (8007d7c <host_system_send+0x1c>)
}

void host_system_send(uint16_t report)
{
    if (report == last_system_report) return;
    last_system_report = report;
 8007d6a:	8018      	strh	r0, [r3, #0]

    if (!driver) return;
 8007d6c:	680b      	ldr	r3, [r1, #0]
 8007d6e:	b10b      	cbz	r3, 8007d74 <host_system_send+0x14>
    (*driver->send_system)(report);
 8007d70:	68db      	ldr	r3, [r3, #12]
 8007d72:	4718      	bx	r3
 8007d74:	4770      	bx	lr
 8007d76:	bf00      	nop
 8007d78:	200014a2 	.word	0x200014a2
 8007d7c:	200014ac 	.word	0x200014ac

08007d80 <process_action>:
    }
#endif
}

void process_action(keyrecord_t *record)
{
 8007d80:	4603      	mov	r3, r0
 8007d82:	b5f0      	push	{r4, r5, r6, r7, lr}
    keyevent_t event = record->event;
#ifndef NO_ACTION_TAPPING
    uint8_t tap_count = record->tap.count;
 8007d84:	7985      	ldrb	r5, [r0, #6]
 8007d86:	889a      	ldrh	r2, [r3, #4]
#endif
}

void process_action(keyrecord_t *record)
{
    keyevent_t event = record->event;
 8007d88:	6800      	ldr	r0, [r0, #0]
    }
#endif
}

void process_action(keyrecord_t *record)
{
 8007d8a:	b087      	sub	sp, #28
    keyevent_t event = record->event;
#ifndef NO_ACTION_TAPPING
    uint8_t tap_count = record->tap.count;
 8007d8c:	f3c5 1503 	ubfx	r5, r5, #4, #4
#endif
}

void process_action(keyrecord_t *record)
{
    keyevent_t event = record->event;
 8007d90:	9002      	str	r0, [sp, #8]
#ifndef NO_ACTION_TAPPING
    uint8_t tap_count = record->tap.count;
 8007d92:	b2ef      	uxtb	r7, r5
#endif
}

void process_action(keyrecord_t *record)
{
    keyevent_t event = record->event;
 8007d94:	7818      	ldrb	r0, [r3, #0]
 8007d96:	7859      	ldrb	r1, [r3, #1]
 8007d98:	789e      	ldrb	r6, [r3, #2]
 8007d9a:	b332      	cbz	r2, 8007dea <process_action+0x6a>
 8007d9c:	f64f 72ff 	movw	r2, #65535	; 0xffff
 8007da0:	f88d 0010 	strb.w	r0, [sp, #16]
 8007da4:	f88d 1011 	strb.w	r1, [sp, #17]
 8007da8:	f8bd 4010 	ldrh.w	r4, [sp, #16]
 8007dac:	4294      	cmp	r4, r2
 8007dae:	d01c      	beq.n	8007dea <process_action+0x6a>
    uint8_t tap_count = record->tap.count;
#endif

    if (IS_NOEVENT(event)) { return; }

    action_t action = layer_switch_get_action(event.key);
 8007db0:	f88d 0008 	strb.w	r0, [sp, #8]
 8007db4:	f88d 1009 	strb.w	r1, [sp, #9]
 8007db8:	9802      	ldr	r0, [sp, #8]
 8007dba:	461c      	mov	r4, r3
 8007dbc:	f001 f9d0 	bl	8009160 <layer_switch_get_action>
    dprint(" layer_state: "); layer_debug();
    dprint(" default_layer_state: "); default_layer_debug();
#endif
    dprintln();

    switch (action.kind.id) {
 8007dc0:	f3c0 3303 	ubfx	r3, r0, #12, #4
 8007dc4:	2b0b      	cmp	r3, #11
 8007dc6:	d810      	bhi.n	8007dea <process_action+0x6a>
 8007dc8:	e8df f003 	tbb	[pc, r3]
 8007dcc:	42422d2d 	.word	0x42422d2d
 8007dd0:	0f0f6e5d 	.word	0x0f0f6e5d
 8007dd4:	11110fab 	.word	0x11110fab
                                                                    action.key.mods<<4;
                switch (action.layer_tap.code) {
    #ifndef NO_ACTION_ONESHOT
                    case MODS_ONESHOT:
                        // Oneshot modifier
                        if (event.pressed) {
 8007dd8:	2e00      	cmp	r6, #0
 8007dda:	f000 81d4 	beq.w	8008186 <process_action+0x406>
                            if (tap_count == 0) {
 8007dde:	2f00      	cmp	r7, #0
 8007de0:	d04d      	beq.n	8007e7e <process_action+0xfe>
                                register_mods(mods);
                            }
                            else if (tap_count == 1) {
 8007de2:	2f01      	cmp	r7, #1
 8007de4:	d14b      	bne.n	8007e7e <process_action+0xfe>

/* Oneshot modifier */
#ifndef NO_ACTION_ONESHOT
void set_oneshot_mods(uint8_t mods)
{
    oneshot_mods = mods;
 8007de6:	4ac6      	ldr	r2, [pc, #792]	; (8008100 <process_action+0x380>)
 8007de8:	7013      	strb	r3, [r2, #0]
            break;
#endif
        default:
            break;
    }
}
 8007dea:	b007      	add	sp, #28
 8007dec:	bdf0      	pop	{r4, r5, r6, r7, pc}
            }
            break;
    #ifndef NO_ACTION_TAPPING
        case ACT_LAYER_TAP:
        case ACT_LAYER_TAP_EXT:
            switch (action.layer_tap.code) {
 8007dee:	b2c4      	uxtb	r4, r0
 8007df0:	f1a4 03e0 	sub.w	r3, r4, #224	; 0xe0
 8007df4:	2b13      	cmp	r3, #19
 8007df6:	f200 81ba 	bhi.w	800816e <process_action+0x3ee>
 8007dfa:	e8df f013 	tbh	[pc, r3, lsl #1]
 8007dfe:	00d4      	.short	0x00d4
 8007e00:	00d400d4 	.word	0x00d400d4
 8007e04:	00d400d4 	.word	0x00d400d4
 8007e08:	00d400d4 	.word	0x00d400d4
 8007e0c:	00d400d4 	.word	0x00d400d4
 8007e10:	00d400d4 	.word	0x00d400d4
 8007e14:	00d400d4 	.word	0x00d400d4
 8007e18:	00d400d4 	.word	0x00d400d4
 8007e1c:	00e600d4 	.word	0x00e600d4
 8007e20:	00c300cb 	.word	0x00c300cb
 8007e24:	00b9      	.short	0x00b9
    switch (action.kind.id) {
        /* Key and Mods */
        case ACT_LMODS:
        case ACT_RMODS:
            {
                uint8_t mods = (action.kind.id == ACT_LMODS) ?  action.key.mods :
 8007e26:	f3c0 2307 	ubfx	r3, r0, #8, #8
 8007e2a:	f003 03f0 	and.w	r3, r3, #240	; 0xf0
 8007e2e:	2b00      	cmp	r3, #0
 8007e30:	f040 80da 	bne.w	8007fe8 <process_action+0x268>
 8007e34:	f3c0 2403 	ubfx	r4, r0, #8, #4
                                                                action.key.mods<<4;
                if (event.pressed) {
 8007e38:	2e00      	cmp	r6, #0
 8007e3a:	f000 816d 	beq.w	8008118 <process_action+0x398>
                    if (mods) {
 8007e3e:	2c00      	cmp	r4, #0
 8007e40:	f040 8179 	bne.w	8008136 <process_action+0x3b6>
                        add_weak_mods(mods);
                        send_keyboard_report();
                    }
                    register_code(action.key.code);
 8007e44:	b2c0      	uxtb	r0, r0
            break;
#endif
        default:
            break;
    }
}
 8007e46:	b007      	add	sp, #28
 8007e48:	e8bd 40f0 	ldmia.w	sp!, {r4, r5, r6, r7, lr}
                default:
                    /* tap key */
                    if (event.pressed) {
                        if (tap_count > 0) {
                            dprint("KEYMAP_TAP_KEY: Tap: register_code\n");
                            register_code(action.layer_tap.code);
 8007e4c:	f001 bcf0 	b.w	8009830 <register_code>
            break;
#ifndef NO_ACTION_TAPPING
        case ACT_LMODS_TAP:
        case ACT_RMODS_TAP:
            {
                uint8_t mods = (action.kind.id == ACT_LMODS_TAP) ?  action.key.mods :
 8007e50:	f3c0 2307 	ubfx	r3, r0, #8, #8
 8007e54:	f003 03f0 	and.w	r3, r3, #240	; 0xf0
 8007e58:	2b20      	cmp	r3, #32
 8007e5a:	bf14      	ite	ne
 8007e5c:	0903      	lsrne	r3, r0, #4
 8007e5e:	f3c0 2303 	ubfxeq	r3, r0, #8, #4
                                                                    action.key.mods<<4;
                switch (action.layer_tap.code) {
 8007e62:	b2c0      	uxtb	r0, r0
            break;
#ifndef NO_ACTION_TAPPING
        case ACT_LMODS_TAP:
        case ACT_RMODS_TAP:
            {
                uint8_t mods = (action.kind.id == ACT_LMODS_TAP) ?  action.key.mods :
 8007e64:	bf18      	it	ne
 8007e66:	f003 03f0 	andne.w	r3, r3, #240	; 0xf0
                                                                    action.key.mods<<4;
                switch (action.layer_tap.code) {
 8007e6a:	2800      	cmp	r0, #0
 8007e6c:	d0b4      	beq.n	8007dd8 <process_action+0x58>
 8007e6e:	2801      	cmp	r0, #1
 8007e70:	f040 812e 	bne.w	80080d0 <process_action+0x350>
                            }
                        }
                        break;
    #endif
                    case MODS_TAP_TOGGLE:
                        if (event.pressed) {
 8007e74:	2e00      	cmp	r6, #0
 8007e76:	f000 8181 	beq.w	800817c <process_action+0x3fc>
                            if (tap_count <= TAPPING_TOGGLE) {
 8007e7a:	2f05      	cmp	r7, #5
 8007e7c:	d8b5      	bhi.n	8007dea <process_action+0x6a>
    }
}

void register_mods(uint8_t mods)
{
    if (mods) {
 8007e7e:	2b00      	cmp	r3, #0
 8007e80:	d0b3      	beq.n	8007dea <process_action+0x6a>
        add_mods(mods);
 8007e82:	4618      	mov	r0, r3
 8007e84:	e09a      	b.n	8007fbc <process_action+0x23c>
            break;
#endif
#ifdef EXTRAKEY_ENABLE
        /* other HID usage */
        case ACT_USAGE:
            switch (action.usage.page) {
 8007e86:	f3c0 2381 	ubfx	r3, r0, #10, #2
 8007e8a:	2b00      	cmp	r3, #0
 8007e8c:	f000 8130 	beq.w	80080f0 <process_action+0x370>
 8007e90:	2b01      	cmp	r3, #1
 8007e92:	d1aa      	bne.n	8007dea <process_action+0x6a>
                    } else {
                        host_system_send(0);
                    }
                    break;
                case PAGE_CONSUMER:
                    if (event.pressed) {
 8007e94:	2e00      	cmp	r6, #0
 8007e96:	f000 8174 	beq.w	8008182 <process_action+0x402>
                        host_consumer_send(action.usage.code);
 8007e9a:	f3c0 0009 	ubfx	r0, r0, #0, #10
            break;
#endif
        default:
            break;
    }
}
 8007e9e:	b007      	add	sp, #28
 8007ea0:	e8bd 40f0 	ldmia.w	sp!, {r4, r5, r6, r7, lr}
                    break;
                case PAGE_CONSUMER:
                    if (event.pressed) {
                        host_consumer_send(action.usage.code);
                    } else {
                        host_consumer_send(0);
 8007ea4:	f7ff bf4c 	b.w	8007d40 <host_consumer_send>
#endif
#ifdef MOUSEKEY_ENABLE
        /* Mouse key */
        case ACT_MOUSEKEY:
            if (event.pressed) {
                mousekey_on(action.key.code);
 8007ea8:	b2c0      	uxtb	r0, r0
            break;
#endif
#ifdef MOUSEKEY_ENABLE
        /* Mouse key */
        case ACT_MOUSEKEY:
            if (event.pressed) {
 8007eaa:	2e00      	cmp	r6, #0
 8007eac:	f000 80c8 	beq.w	8008040 <process_action+0x2c0>
    mousekey_send();
}

void mousekey_on(uint8_t code)
{
    if      (code == KC_MS_UP)       mouse_report.y = move_unit() * -1;
 8007eb0:	28f0      	cmp	r0, #240	; 0xf0
 8007eb2:	f000 8190 	beq.w	80081d6 <process_action+0x456>
    else if (code == KC_MS_DOWN)     mouse_report.y = move_unit();
 8007eb6:	28f1      	cmp	r0, #241	; 0xf1
 8007eb8:	f000 81c8 	beq.w	800824c <process_action+0x4cc>
    else if (code == KC_MS_LEFT)     mouse_report.x = move_unit() * -1;
 8007ebc:	28f2      	cmp	r0, #242	; 0xf2
 8007ebe:	f000 81df 	beq.w	8008280 <process_action+0x500>
    else if (code == KC_MS_RIGHT)    mouse_report.x = move_unit();
 8007ec2:	28f3      	cmp	r0, #243	; 0xf3
 8007ec4:	f000 81f3 	beq.w	80082ae <process_action+0x52e>
    else if (code == KC_MS_WH_UP)    mouse_report.v = wheel_unit();
 8007ec8:	28f9      	cmp	r0, #249	; 0xf9
 8007eca:	f000 8201 	beq.w	80082d0 <process_action+0x550>
    else if (code == KC_MS_WH_DOWN)  mouse_report.v = wheel_unit() * -1;
 8007ece:	28fa      	cmp	r0, #250	; 0xfa
 8007ed0:	f000 8211 	beq.w	80082f6 <process_action+0x576>
    else if (code == KC_MS_WH_LEFT)  mouse_report.h = wheel_unit() * -1;
 8007ed4:	28fb      	cmp	r0, #251	; 0xfb
 8007ed6:	f000 8219 	beq.w	800830c <process_action+0x58c>
    else if (code == KC_MS_WH_RIGHT) mouse_report.h = wheel_unit();
 8007eda:	28fc      	cmp	r0, #252	; 0xfc
 8007edc:	f000 8211 	beq.w	8008302 <process_action+0x582>
    else if (code == KC_MS_BTN1)     mouse_report.buttons |= MOUSE_BTN1;
 8007ee0:	28f4      	cmp	r0, #244	; 0xf4
 8007ee2:	f000 8220 	beq.w	8008326 <process_action+0x5a6>
    else if (code == KC_MS_BTN2)     mouse_report.buttons |= MOUSE_BTN2;
 8007ee6:	28f5      	cmp	r0, #245	; 0xf5
 8007ee8:	f000 8230 	beq.w	800834c <process_action+0x5cc>
    else if (code == KC_MS_BTN3)     mouse_report.buttons |= MOUSE_BTN3;
 8007eec:	28f6      	cmp	r0, #246	; 0xf6
 8007eee:	f000 8227 	beq.w	8008340 <process_action+0x5c0>
    else if (code == KC_MS_BTN4)     mouse_report.buttons |= MOUSE_BTN4;
 8007ef2:	28f7      	cmp	r0, #247	; 0xf7
 8007ef4:	f000 8237 	beq.w	8008366 <process_action+0x5e6>
    else if (code == KC_MS_BTN5)     mouse_report.buttons |= MOUSE_BTN5;
 8007ef8:	28f8      	cmp	r0, #248	; 0xf8
 8007efa:	f000 825e 	beq.w	80083ba <process_action+0x63a>
    else if (code == KC_MS_ACCEL0)   mousekey_accel |= (1<<0);
 8007efe:	28fd      	cmp	r0, #253	; 0xfd
 8007f00:	f000 8255 	beq.w	80083ae <process_action+0x62e>
    else if (code == KC_MS_ACCEL1)   mousekey_accel |= (1<<1);
 8007f04:	28fe      	cmp	r0, #254	; 0xfe
 8007f06:	f000 824c 	beq.w	80083a2 <process_action+0x622>
    else if (code == KC_MS_ACCEL2)   mousekey_accel |= (1<<2);
 8007f0a:	28ff      	cmp	r0, #255	; 0xff
 8007f0c:	d104      	bne.n	8007f18 <process_action+0x198>
 8007f0e:	4a7d      	ldr	r2, [pc, #500]	; (8008104 <process_action+0x384>)
 8007f10:	7813      	ldrb	r3, [r2, #0]
 8007f12:	f043 0304 	orr.w	r3, r3, #4
 8007f16:	7013      	strb	r3, [r2, #0]
            break;
#endif
        default:
            break;
    }
}
 8007f18:	b007      	add	sp, #28
 8007f1a:	e8bd 40f0 	ldmia.w	sp!, {r4, r5, r6, r7, lr}
#ifdef MOUSEKEY_ENABLE
        /* Mouse key */
        case ACT_MOUSEKEY:
            if (event.pressed) {
                mousekey_on(action.key.code);
                mousekey_send();
 8007f1e:	f000 bf87 	b.w	8008e30 <mousekey_send>
            }
            break;
#endif
#ifndef NO_ACTION_LAYER
        case ACT_LAYER:
            if (action.layer_bitop.on == 0) {
 8007f22:	f410 7f40 	tst.w	r0, #768	; 0x300
 8007f26:	d163      	bne.n	8007ff0 <process_action+0x270>
                /* Default Layer Bitwise Operation */
                if (!event.pressed) {
 8007f28:	2e00      	cmp	r6, #0
 8007f2a:	f47f af5e 	bne.w	8007dea <process_action+0x6a>
                    uint8_t shift = action.layer_bitop.part*4;
 8007f2e:	08c3      	lsrs	r3, r0, #3
                    uint32_t bits = ((uint32_t)action.layer_bitop.bits)<<shift;
 8007f30:	f000 020f 	and.w	r2, r0, #15
 8007f34:	f003 031c 	and.w	r3, r3, #28
 8007f38:	fa02 f403 	lsl.w	r4, r2, r3
                    uint32_t mask = (action.layer_bitop.xbit) ? ~(((uint32_t)0xf)<<shift) : 0;
 8007f3c:	06c2      	lsls	r2, r0, #27
 8007f3e:	d502      	bpl.n	8007f46 <process_action+0x1c6>
 8007f40:	260f      	movs	r6, #15
 8007f42:	409e      	lsls	r6, r3
 8007f44:	43f6      	mvns	r6, r6
                    switch (action.layer_bitop.op) {
 8007f46:	f3c0 2081 	ubfx	r0, r0, #10, #2
 8007f4a:	2802      	cmp	r0, #2
 8007f4c:	f000 816f 	beq.w	800822e <process_action+0x4ae>
 8007f50:	2803      	cmp	r0, #3
 8007f52:	f000 8161 	beq.w	8008218 <process_action+0x498>
 8007f56:	2801      	cmp	r0, #1

static void default_layer_state_set(uint32_t state)
{
    debug("default_layer_state: ");
    default_layer_debug(); debug(" to ");
    default_layer_state = state;
 8007f58:	4a6b      	ldr	r2, [pc, #428]	; (8008108 <process_action+0x388>)
 8007f5a:	f000 8158 	beq.w	800820e <process_action+0x48e>
{
    default_layer_state_set(default_layer_state | state);
}
void default_layer_and(uint32_t state)
{
    default_layer_state_set(default_layer_state & state);
 8007f5e:	6813      	ldr	r3, [r2, #0]
                        case OP_BIT_AND: default_layer_and(bits | mask); break;
 8007f60:	4326      	orrs	r6, r4
 8007f62:	401e      	ands	r6, r3

static void default_layer_state_set(uint32_t state)
{
    debug("default_layer_state: ");
    default_layer_debug(); debug(" to ");
    default_layer_state = state;
 8007f64:	6016      	str	r6, [r2, #0]
            break;
#endif
        default:
            break;
    }
}
 8007f66:	b007      	add	sp, #28
 8007f68:	e8bd 40f0 	ldmia.w	sp!, {r4, r5, r6, r7, lr}
{
    dprint("layer_state: ");
    layer_debug(); dprint(" to ");
    layer_state = state;
    layer_debug(); dprintln();
    clear_keyboard_but_mods(); // To avoid stuck keys
 8007f6c:	f001 bbc8 	b.w	8009700 <clear_keyboard_but_mods>
                case OP_OFF_ON:
                    event.pressed ? layer_off(action.layer_tap.val) :
                                    layer_on(action.layer_tap.val);
                    break;
                case OP_SET_CLEAR:
                    event.pressed ? layer_move(action.layer_tap.val) :
 8007f70:	2e00      	cmp	r6, #0
 8007f72:	f000 8149 	beq.w	8008208 <process_action+0x488>
    layer_state_set(0);
}

void layer_move(uint8_t layer)
{
    layer_state_set(1UL<<layer);
 8007f76:	f3c0 2004 	ubfx	r0, r0, #8, #5
 8007f7a:	2301      	movs	r3, #1

static void layer_state_set(uint32_t state)
{
    dprint("layer_state: ");
    layer_debug(); dprint(" to ");
    layer_state = state;
 8007f7c:	4a63      	ldr	r2, [pc, #396]	; (800810c <process_action+0x38c>)
    layer_state_set(0);
}

void layer_move(uint8_t layer)
{
    layer_state_set(1UL<<layer);
 8007f7e:	4083      	lsls	r3, r0

static void layer_state_set(uint32_t state)
{
    dprint("layer_state: ");
    layer_debug(); dprint(" to ");
    layer_state = state;
 8007f80:	6013      	str	r3, [r2, #0]
 8007f82:	e7f0      	b.n	8007f66 <process_action+0x1e6>
                case OP_ON_OFF:
                    event.pressed ? layer_on(action.layer_tap.val) :
                                    layer_off(action.layer_tap.val);
                    break;
                case OP_OFF_ON:
                    event.pressed ? layer_off(action.layer_tap.val) :
 8007f84:	b146      	cbz	r6, 8007f98 <process_action+0x218>
                        }
                    }
                    break;
                case OP_ON_OFF:
                    event.pressed ? layer_on(action.layer_tap.val) :
                                    layer_off(action.layer_tap.val);
 8007f86:	f3c0 2004 	ubfx	r0, r0, #8, #5
            break;
#endif
        default:
            break;
    }
}
 8007f8a:	b007      	add	sp, #28
 8007f8c:	e8bd 40f0 	ldmia.w	sp!, {r4, r5, r6, r7, lr}
                        }
                    }
                    break;
                case OP_ON_OFF:
                    event.pressed ? layer_on(action.layer_tap.val) :
                                    layer_off(action.layer_tap.val);
 8007f90:	f001 b90e 	b.w	80091b0 <layer_off>
                            layer_invert(action.layer_tap.val);
                        }
                    }
                    break;
                case OP_ON_OFF:
                    event.pressed ? layer_on(action.layer_tap.val) :
 8007f94:	2e00      	cmp	r6, #0
 8007f96:	d0f6      	beq.n	8007f86 <process_action+0x206>
 8007f98:	f3c0 2004 	ubfx	r0, r0, #8, #5
            break;
#endif
        default:
            break;
    }
}
 8007f9c:	b007      	add	sp, #28
 8007f9e:	e8bd 40f0 	ldmia.w	sp!, {r4, r5, r6, r7, lr}
                            layer_invert(action.layer_tap.val);
                        }
                    }
                    break;
                case OP_ON_OFF:
                    event.pressed ? layer_on(action.layer_tap.val) :
 8007fa2:	f001 b915 	b.w	80091d0 <layer_on>
        case ACT_LAYER_TAP_EXT:
            switch (action.layer_tap.code) {
                case 0xe0 ... 0xef:
                    /* layer On/Off with modifiers(left only) */
                    if (event.pressed) {
                        layer_on(action.layer_tap.val);
 8007fa6:	f3c0 2004 	ubfx	r0, r0, #8, #5
        case ACT_LAYER_TAP:
        case ACT_LAYER_TAP_EXT:
            switch (action.layer_tap.code) {
                case 0xe0 ... 0xef:
                    /* layer On/Off with modifiers(left only) */
                    if (event.pressed) {
 8007faa:	2e00      	cmp	r6, #0
 8007fac:	f000 8123 	beq.w	80081f6 <process_action+0x476>
                        layer_on(action.layer_tap.val);
 8007fb0:	f001 f90e 	bl	80091d0 <layer_on>
    }
}

void register_mods(uint8_t mods)
{
    if (mods) {
 8007fb4:	f014 000f 	ands.w	r0, r4, #15
 8007fb8:	f43f af17 	beq.w	8007dea <process_action+0x6a>
        add_mods(mods);
 8007fbc:	f001 f870 	bl	80090a0 <add_mods>
            break;
#endif
        default:
            break;
    }
}
 8007fc0:	b007      	add	sp, #28
 8007fc2:	e8bd 40f0 	ldmia.w	sp!, {r4, r5, r6, r7, lr}

void register_mods(uint8_t mods)
{
    if (mods) {
        add_mods(mods);
        send_keyboard_report();
 8007fc6:	f001 b873 	b.w	80090b0 <send_keyboard_report>
                        unregister_mods(action.layer_tap.code & 0x0f);
                    }
                    break;
                case OP_TAP_TOGGLE:
                    /* tap toggle */
                    if (event.pressed) {
 8007fca:	2e00      	cmp	r6, #0
 8007fcc:	f000 810f 	beq.w	80081ee <process_action+0x46e>
                        if (tap_count < TAPPING_TOGGLE) {
 8007fd0:	2f04      	cmp	r7, #4
 8007fd2:	f63f af0a 	bhi.w	8007dea <process_action+0x6a>
 8007fd6:	494d      	ldr	r1, [pc, #308]	; (800810c <process_action+0x38c>)
    layer_state_set(layer_state & ~(1UL<<layer));
}

void layer_invert(uint8_t layer)
{
    layer_state_set(layer_state ^ (1UL<<layer));
 8007fd8:	f3c0 2004 	ubfx	r0, r0, #8, #5
 8007fdc:	680b      	ldr	r3, [r1, #0]
 8007fde:	2201      	movs	r2, #1
 8007fe0:	4082      	lsls	r2, r0
 8007fe2:	4053      	eors	r3, r2

static void layer_state_set(uint32_t state)
{
    dprint("layer_state: ");
    layer_debug(); dprint(" to ");
    layer_state = state;
 8007fe4:	600b      	str	r3, [r1, #0]
 8007fe6:	e7be      	b.n	8007f66 <process_action+0x1e6>
    switch (action.kind.id) {
        /* Key and Mods */
        case ACT_LMODS:
        case ACT_RMODS:
            {
                uint8_t mods = (action.kind.id == ACT_LMODS) ?  action.key.mods :
 8007fe8:	0904      	lsrs	r4, r0, #4
 8007fea:	f004 04f0 	and.w	r4, r4, #240	; 0xf0
 8007fee:	e723      	b.n	8007e38 <process_action+0xb8>
                        case OP_BIT_SET: default_layer_and(mask); default_layer_or(bits); break;
                    }
                }
            } else {
                /* Layer Bitwise Operation */
                if (event.pressed ? (action.layer_bitop.on & ON_PRESS) :
 8007ff0:	2e00      	cmp	r6, #0
 8007ff2:	f000 809d 	beq.w	8008130 <process_action+0x3b0>
 8007ff6:	f3c0 2300 	ubfx	r3, r0, #8, #1
 8007ffa:	2b00      	cmp	r3, #0
 8007ffc:	f43f aef5 	beq.w	8007dea <process_action+0x6a>
                                    (action.layer_bitop.on & ON_RELEASE)) {
                    uint8_t shift = action.layer_bitop.part*4;
 8008000:	08c1      	lsrs	r1, r0, #3
                    uint32_t bits = ((uint32_t)action.layer_bitop.bits)<<shift;
 8008002:	f000 030f 	and.w	r3, r0, #15
 8008006:	f001 011c 	and.w	r1, r1, #28
                    uint32_t mask = (action.layer_bitop.xbit) ? ~(((uint32_t)0xf)<<shift) : 0;
 800800a:	f000 0210 	and.w	r2, r0, #16
            } else {
                /* Layer Bitwise Operation */
                if (event.pressed ? (action.layer_bitop.on & ON_PRESS) :
                                    (action.layer_bitop.on & ON_RELEASE)) {
                    uint8_t shift = action.layer_bitop.part*4;
                    uint32_t bits = ((uint32_t)action.layer_bitop.bits)<<shift;
 800800e:	fa03 f401 	lsl.w	r4, r3, r1
                    uint32_t mask = (action.layer_bitop.xbit) ? ~(((uint32_t)0xf)<<shift) : 0;
 8008012:	f002 03ff 	and.w	r3, r2, #255	; 0xff
 8008016:	b112      	cbz	r2, 800801e <process_action+0x29e>
 8008018:	230f      	movs	r3, #15
 800801a:	408b      	lsls	r3, r1
 800801c:	43db      	mvns	r3, r3
                    switch (action.layer_bitop.op) {
 800801e:	f3c0 2081 	ubfx	r0, r0, #10, #2
 8008022:	2802      	cmp	r0, #2
 8008024:	f000 8126 	beq.w	8008274 <process_action+0x4f4>
 8008028:	2803      	cmp	r0, #3
 800802a:	f000 8119 	beq.w	8008260 <process_action+0x4e0>
 800802e:	2801      	cmp	r0, #1
 8008030:	4936      	ldr	r1, [pc, #216]	; (800810c <process_action+0x38c>)
 8008032:	f000 8110 	beq.w	8008256 <process_action+0x4d6>
{
    layer_state_set(layer_state | state);
}
void layer_and(uint32_t state)
{
    layer_state_set(layer_state & state);
 8008036:	680a      	ldr	r2, [r1, #0]
                        case OP_BIT_AND: layer_and(bits | mask); break;
 8008038:	4323      	orrs	r3, r4
 800803a:	4013      	ands	r3, r2

static void layer_state_set(uint32_t state)
{
    dprint("layer_state: ");
    layer_debug(); dprint(" to ");
    layer_state = state;
 800803c:	600b      	str	r3, [r1, #0]
 800803e:	e792      	b.n	8007f66 <process_action+0x1e6>
}

void mousekey_off(uint8_t code)
{
    if      (code == KC_MS_UP       && mouse_report.y < 0) mouse_report.y = 0;
 8008040:	28f0      	cmp	r0, #240	; 0xf0
 8008042:	f000 80ac 	beq.w	800819e <process_action+0x41e>
    else if (code == KC_MS_DOWN     && mouse_report.y > 0) mouse_report.y = 0;
 8008046:	28f1      	cmp	r0, #241	; 0xf1
 8008048:	f000 80b7 	beq.w	80081ba <process_action+0x43a>
    else if (code == KC_MS_LEFT     && mouse_report.x < 0) mouse_report.x = 0;
 800804c:	28f2      	cmp	r0, #242	; 0xf2
 800804e:	f000 80ba 	beq.w	80081c6 <process_action+0x446>
    else if (code == KC_MS_RIGHT    && mouse_report.x > 0) mouse_report.x = 0;
 8008052:	28f3      	cmp	r0, #243	; 0xf3
 8008054:	f000 80c5 	beq.w	80081e2 <process_action+0x462>
    else if (code == KC_MS_WH_UP    && mouse_report.v > 0) mouse_report.v = 0;
 8008058:	28f9      	cmp	r0, #249	; 0xf9
 800805a:	f000 80ee 	beq.w	800823a <process_action+0x4ba>
    else if (code == KC_MS_WH_DOWN  && mouse_report.v < 0) mouse_report.v = 0;
 800805e:	28fa      	cmp	r0, #250	; 0xfa
 8008060:	f000 8114 	beq.w	800828c <process_action+0x50c>
    else if (code == KC_MS_WH_LEFT  && mouse_report.h < 0) mouse_report.h = 0;
 8008064:	28fb      	cmp	r0, #251	; 0xfb
 8008066:	f000 8118 	beq.w	800829a <process_action+0x51a>
    else if (code == KC_MS_WH_RIGHT && mouse_report.h > 0) mouse_report.h = 0;
 800806a:	28fc      	cmp	r0, #252	; 0xfc
 800806c:	f000 8124 	beq.w	80082b8 <process_action+0x538>
    else if (code == KC_MS_BTN1) mouse_report.buttons &= ~MOUSE_BTN1;
 8008070:	28f4      	cmp	r0, #244	; 0xf4
 8008072:	f000 8132 	beq.w	80082da <process_action+0x55a>
    else if (code == KC_MS_BTN2) mouse_report.buttons &= ~MOUSE_BTN2;
 8008076:	28f5      	cmp	r0, #245	; 0xf5
 8008078:	f000 8136 	beq.w	80082e8 <process_action+0x568>
    else if (code == KC_MS_BTN3) mouse_report.buttons &= ~MOUSE_BTN3;
 800807c:	28f6      	cmp	r0, #246	; 0xf6
 800807e:	f000 814b 	beq.w	8008318 <process_action+0x598>
    else if (code == KC_MS_BTN4) mouse_report.buttons &= ~MOUSE_BTN4;
 8008082:	28f7      	cmp	r0, #247	; 0xf7
 8008084:	f000 8155 	beq.w	8008332 <process_action+0x5b2>
    else if (code == KC_MS_BTN5) mouse_report.buttons &= ~MOUSE_BTN5;
 8008088:	28f8      	cmp	r0, #248	; 0xf8
 800808a:	f000 8165 	beq.w	8008358 <process_action+0x5d8>
    else if (code == KC_MS_ACCEL0) mousekey_accel &= ~(1<<0);
 800808e:	28fd      	cmp	r0, #253	; 0xfd
 8008090:	f000 8177 	beq.w	8008382 <process_action+0x602>
    else if (code == KC_MS_ACCEL1) mousekey_accel &= ~(1<<1);
 8008094:	28fe      	cmp	r0, #254	; 0xfe
 8008096:	f000 816c 	beq.w	8008372 <process_action+0x5f2>
    else if (code == KC_MS_ACCEL2) mousekey_accel &= ~(1<<2);
 800809a:	28ff      	cmp	r0, #255	; 0xff
 800809c:	f000 8179 	beq.w	8008392 <process_action+0x612>
 80080a0:	4b1b      	ldr	r3, [pc, #108]	; (8008110 <process_action+0x390>)
 80080a2:	785a      	ldrb	r2, [r3, #1]

    if (mouse_report.x == 0 && mouse_report.y == 0 && mouse_report.v == 0 && mouse_report.h == 0)
 80080a4:	2a00      	cmp	r2, #0
 80080a6:	f47f af37 	bne.w	8007f18 <process_action+0x198>
 80080aa:	f993 2002 	ldrsb.w	r2, [r3, #2]
 80080ae:	2a00      	cmp	r2, #0
 80080b0:	f47f af32 	bne.w	8007f18 <process_action+0x198>
 80080b4:	f993 3003 	ldrsb.w	r3, [r3, #3]
 80080b8:	4a15      	ldr	r2, [pc, #84]	; (8008110 <process_action+0x390>)
 80080ba:	2b00      	cmp	r3, #0
 80080bc:	f47f af2c 	bne.w	8007f18 <process_action+0x198>
 80080c0:	f992 3004 	ldrsb.w	r3, [r2, #4]
 80080c4:	2b00      	cmp	r3, #0
 80080c6:	f47f af27 	bne.w	8007f18 <process_action+0x198>
        mousekey_repeat = 0;
 80080ca:	4a12      	ldr	r2, [pc, #72]	; (8008114 <process_action+0x394>)
 80080cc:	7013      	strb	r3, [r2, #0]
 80080ce:	e723      	b.n	8007f18 <process_action+0x198>
                                unregister_mods(mods);
                            }
                        }
                        break;
                    default:
                        if (event.pressed) {
 80080d0:	2e00      	cmp	r6, #0
 80080d2:	d03b      	beq.n	800814c <process_action+0x3cc>
                            if (tap_count > 0) {
 80080d4:	2f00      	cmp	r7, #0
 80080d6:	f43f aed2 	beq.w	8007e7e <process_action+0xfe>
                                if (record->tap.interrupted) {
 80080da:	79a2      	ldrb	r2, [r4, #6]
 80080dc:	07d5      	lsls	r5, r2, #31
 80080de:	f57f aeb2 	bpl.w	8007e46 <process_action+0xc6>
                                    dprint("MODS_TAP: Tap: Cancel: add_mods\n");
                                    // ad hoc: set 0 to cancel tap
                                    record->tap.count = 0;
 80080e2:	f36f 1207 	bfc	r2, #4, #4
 80080e6:	71a2      	strb	r2, [r4, #6]
    }
}

void register_mods(uint8_t mods)
{
    if (mods) {
 80080e8:	2b00      	cmp	r3, #0
 80080ea:	f43f ae7e 	beq.w	8007dea <process_action+0x6a>
 80080ee:	e6c8      	b.n	8007e82 <process_action+0x102>
#ifdef EXTRAKEY_ENABLE
        /* other HID usage */
        case ACT_USAGE:
            switch (action.usage.page) {
                case PAGE_SYSTEM:
                    if (event.pressed) {
 80080f0:	b356      	cbz	r6, 8008148 <process_action+0x3c8>
                        host_system_send(action.usage.code);
 80080f2:	f3c0 0009 	ubfx	r0, r0, #0, #10
            break;
#endif
        default:
            break;
    }
}
 80080f6:	b007      	add	sp, #28
 80080f8:	e8bd 40f0 	ldmia.w	sp!, {r4, r5, r6, r7, lr}
            switch (action.usage.page) {
                case PAGE_SYSTEM:
                    if (event.pressed) {
                        host_system_send(action.usage.code);
                    } else {
                        host_system_send(0);
 80080fc:	f7ff be30 	b.w	8007d60 <host_system_send>
 8008100:	200015cc 	.word	0x200015cc
 8008104:	20001538 	.word	0x20001538
 8008108:	2000153c 	.word	0x2000153c
 800810c:	200015b4 	.word	0x200015b4
 8008110:	2000156c 	.word	0x2000156c
 8008114:	2000154f 	.word	0x2000154f
                        add_weak_mods(mods);
                        send_keyboard_report();
                    }
                    register_code(action.key.code);
                } else {
                    unregister_code(action.key.code);
 8008118:	b2c0      	uxtb	r0, r0
 800811a:	f001 fb21 	bl	8009760 <unregister_code>
                    if (mods) {
 800811e:	2c00      	cmp	r4, #0
 8008120:	f43f ae63 	beq.w	8007dea <process_action+0x6a>
void clear_mods(void) { real_mods = 0; }

/* weak modifier */
uint8_t get_weak_mods(void) { return weak_mods; }
void add_weak_mods(uint8_t mods) { weak_mods |= mods; }
void del_weak_mods(uint8_t mods) { weak_mods &= ~mods; }
 8008124:	4aa8      	ldr	r2, [pc, #672]	; (80083c8 <process_action+0x648>)
 8008126:	7813      	ldrb	r3, [r2, #0]
 8008128:	ea23 0404 	bic.w	r4, r3, r4
 800812c:	7014      	strb	r4, [r2, #0]
 800812e:	e747      	b.n	8007fc0 <process_action+0x240>
                        case OP_BIT_SET: default_layer_and(mask); default_layer_or(bits); break;
                    }
                }
            } else {
                /* Layer Bitwise Operation */
                if (event.pressed ? (action.layer_bitop.on & ON_PRESS) :
 8008130:	f3c0 2340 	ubfx	r3, r0, #9, #1
 8008134:	e761      	b.n	8007ffa <process_action+0x27a>
void set_mods(uint8_t mods) { real_mods = mods; }
void clear_mods(void) { real_mods = 0; }

/* weak modifier */
uint8_t get_weak_mods(void) { return weak_mods; }
void add_weak_mods(uint8_t mods) { weak_mods |= mods; }
 8008136:	4aa4      	ldr	r2, [pc, #656]	; (80083c8 <process_action+0x648>)
 8008138:	9001      	str	r0, [sp, #4]
 800813a:	7813      	ldrb	r3, [r2, #0]
 800813c:	431c      	orrs	r4, r3
 800813e:	7014      	strb	r4, [r2, #0]
                uint8_t mods = (action.kind.id == ACT_LMODS) ?  action.key.mods :
                                                                action.key.mods<<4;
                if (event.pressed) {
                    if (mods) {
                        add_weak_mods(mods);
                        send_keyboard_report();
 8008140:	f000 ffb6 	bl	80090b0 <send_keyboard_report>
 8008144:	9801      	ldr	r0, [sp, #4]
 8008146:	e67d      	b.n	8007e44 <process_action+0xc4>
            switch (action.usage.page) {
                case PAGE_SYSTEM:
                    if (event.pressed) {
                        host_system_send(action.usage.code);
                    } else {
                        host_system_send(0);
 8008148:	4630      	mov	r0, r6
 800814a:	e7d4      	b.n	80080f6 <process_action+0x376>
                            } else {
                                dprint("MODS_TAP: No tap: add_mods\n");
                                register_mods(mods);
                            }
                        } else {
                            if (tap_count > 0) {
 800814c:	b957      	cbnz	r7, 8008164 <process_action+0x3e4>
    }
}

void unregister_mods(uint8_t mods)
{
    if (mods) {
 800814e:	2b00      	cmp	r3, #0
 8008150:	f43f ae4b 	beq.w	8007dea <process_action+0x6a>
        del_mods(mods);
 8008154:	4618      	mov	r0, r3
 8008156:	f000 ff9b 	bl	8009090 <del_mods>
 800815a:	e731      	b.n	8007fc0 <process_action+0x240>
                        } else {
                            dprint("KEYMAP_TAP_KEY: No tap: On on press\n");
                            layer_on(action.layer_tap.val);
                        }
                    } else {
                        if (tap_count > 0) {
 800815c:	2f00      	cmp	r7, #0
 800815e:	f43f af12 	beq.w	8007f86 <process_action+0x206>
                            dprint("KEYMAP_TAP_KEY: Tap: unregister_code\n");
                            unregister_code(action.layer_tap.code);
 8008162:	4620      	mov	r0, r4
            break;
#endif
        default:
            break;
    }
}
 8008164:	b007      	add	sp, #28
 8008166:	e8bd 40f0 	ldmia.w	sp!, {r4, r5, r6, r7, lr}
                            layer_on(action.layer_tap.val);
                        }
                    } else {
                        if (tap_count > 0) {
                            dprint("KEYMAP_TAP_KEY: Tap: unregister_code\n");
                            unregister_code(action.layer_tap.code);
 800816a:	f001 baf9 	b.w	8009760 <unregister_code>
                    event.pressed ? layer_move(action.layer_tap.val) :
                                    layer_clear();
                    break;
                default:
                    /* tap key */
                    if (event.pressed) {
 800816e:	2e00      	cmp	r6, #0
 8008170:	d0f4      	beq.n	800815c <process_action+0x3dc>
                        if (tap_count > 0) {
 8008172:	2f00      	cmp	r7, #0
 8008174:	f43f af10 	beq.w	8007f98 <process_action+0x218>
                            dprint("KEYMAP_TAP_KEY: Tap: register_code\n");
                            register_code(action.layer_tap.code);
 8008178:	4620      	mov	r0, r4
 800817a:	e664      	b.n	8007e46 <process_action+0xc6>
                        if (event.pressed) {
                            if (tap_count <= TAPPING_TOGGLE) {
                                register_mods(mods);
                            }
                        } else {
                            if (tap_count < TAPPING_TOGGLE) {
 800817c:	2f04      	cmp	r7, #4
 800817e:	d9e6      	bls.n	800814e <process_action+0x3ce>
 8008180:	e633      	b.n	8007dea <process_action+0x6a>
                    break;
                case PAGE_CONSUMER:
                    if (event.pressed) {
                        host_consumer_send(action.usage.code);
                    } else {
                        host_consumer_send(0);
 8008182:	4630      	mov	r0, r6
 8008184:	e68b      	b.n	8007e9e <process_action+0x11e>
                            }
                            else {
                                register_mods(mods);
                            }
                        } else {
                            if (tap_count == 0) {
 8008186:	2f00      	cmp	r7, #0
 8008188:	f000 809c 	beq.w	80082c4 <process_action+0x544>
                                clear_oneshot_mods();
                                unregister_mods(mods);
                            }
                            else if (tap_count == 1) {
 800818c:	2f01      	cmp	r7, #1
 800818e:	f43f ae2c 	beq.w	8007dea <process_action+0x6a>
    oneshot_time = timer_read();
#endif
}
void clear_oneshot_mods(void)
{
    oneshot_mods = 0;
 8008192:	4a8e      	ldr	r2, [pc, #568]	; (80083cc <process_action+0x64c>)
 8008194:	7016      	strb	r6, [r2, #0]
    }
}

void unregister_mods(uint8_t mods)
{
    if (mods) {
 8008196:	2b00      	cmp	r3, #0
 8008198:	f43f ae27 	beq.w	8007dea <process_action+0x6a>
 800819c:	e7da      	b.n	8008154 <process_action+0x3d4>
    else if (code == KC_MS_ACCEL2)   mousekey_accel |= (1<<2);
}

void mousekey_off(uint8_t code)
{
    if      (code == KC_MS_UP       && mouse_report.y < 0) mouse_report.y = 0;
 800819e:	4b8c      	ldr	r3, [pc, #560]	; (80083d0 <process_action+0x650>)
 80081a0:	f993 2002 	ldrsb.w	r2, [r3, #2]
 80081a4:	2a00      	cmp	r2, #0
 80081a6:	f6bf af7c 	bge.w	80080a2 <process_action+0x322>
    else if (code == KC_MS_BTN5) mouse_report.buttons &= ~MOUSE_BTN5;
    else if (code == KC_MS_ACCEL0) mousekey_accel &= ~(1<<0);
    else if (code == KC_MS_ACCEL1) mousekey_accel &= ~(1<<1);
    else if (code == KC_MS_ACCEL2) mousekey_accel &= ~(1<<2);

    if (mouse_report.x == 0 && mouse_report.y == 0 && mouse_report.v == 0 && mouse_report.h == 0)
 80081aa:	f993 2001 	ldrsb.w	r2, [r3, #1]
    else if (code == KC_MS_ACCEL2)   mousekey_accel |= (1<<2);
}

void mousekey_off(uint8_t code)
{
    if      (code == KC_MS_UP       && mouse_report.y < 0) mouse_report.y = 0;
 80081ae:	2100      	movs	r1, #0
 80081b0:	7099      	strb	r1, [r3, #2]
    else if (code == KC_MS_BTN5) mouse_report.buttons &= ~MOUSE_BTN5;
    else if (code == KC_MS_ACCEL0) mousekey_accel &= ~(1<<0);
    else if (code == KC_MS_ACCEL1) mousekey_accel &= ~(1<<1);
    else if (code == KC_MS_ACCEL2) mousekey_accel &= ~(1<<2);

    if (mouse_report.x == 0 && mouse_report.y == 0 && mouse_report.v == 0 && mouse_report.h == 0)
 80081b2:	2a00      	cmp	r2, #0
 80081b4:	f43f af7e 	beq.w	80080b4 <process_action+0x334>
 80081b8:	e6ae      	b.n	8007f18 <process_action+0x198>
}

void mousekey_off(uint8_t code)
{
    if      (code == KC_MS_UP       && mouse_report.y < 0) mouse_report.y = 0;
    else if (code == KC_MS_DOWN     && mouse_report.y > 0) mouse_report.y = 0;
 80081ba:	4b85      	ldr	r3, [pc, #532]	; (80083d0 <process_action+0x650>)
 80081bc:	f993 2002 	ldrsb.w	r2, [r3, #2]
 80081c0:	2a00      	cmp	r2, #0
 80081c2:	dcf2      	bgt.n	80081aa <process_action+0x42a>
 80081c4:	e76d      	b.n	80080a2 <process_action+0x322>
    else if (code == KC_MS_LEFT     && mouse_report.x < 0) mouse_report.x = 0;
 80081c6:	4b82      	ldr	r3, [pc, #520]	; (80083d0 <process_action+0x650>)
 80081c8:	785a      	ldrb	r2, [r3, #1]
 80081ca:	0611      	lsls	r1, r2, #24
 80081cc:	f57f af6a 	bpl.w	80080a4 <process_action+0x324>
 80081d0:	2200      	movs	r2, #0
 80081d2:	705a      	strb	r2, [r3, #1]
 80081d4:	e769      	b.n	80080aa <process_action+0x32a>
    mousekey_send();
}

void mousekey_on(uint8_t code)
{
    if      (code == KC_MS_UP)       mouse_report.y = move_unit() * -1;
 80081d6:	f000 fa13 	bl	8008600 <move_unit.lto_priv.51>
 80081da:	4b7d      	ldr	r3, [pc, #500]	; (80083d0 <process_action+0x650>)
 80081dc:	4240      	negs	r0, r0
 80081de:	7098      	strb	r0, [r3, #2]
 80081e0:	e69a      	b.n	8007f18 <process_action+0x198>
void mousekey_off(uint8_t code)
{
    if      (code == KC_MS_UP       && mouse_report.y < 0) mouse_report.y = 0;
    else if (code == KC_MS_DOWN     && mouse_report.y > 0) mouse_report.y = 0;
    else if (code == KC_MS_LEFT     && mouse_report.x < 0) mouse_report.x = 0;
    else if (code == KC_MS_RIGHT    && mouse_report.x > 0) mouse_report.x = 0;
 80081e2:	4b7b      	ldr	r3, [pc, #492]	; (80083d0 <process_action+0x650>)
 80081e4:	785a      	ldrb	r2, [r3, #1]
 80081e6:	b251      	sxtb	r1, r2
 80081e8:	2900      	cmp	r1, #0
 80081ea:	dcf1      	bgt.n	80081d0 <process_action+0x450>
 80081ec:	e75a      	b.n	80080a4 <process_action+0x324>
                    if (event.pressed) {
                        if (tap_count < TAPPING_TOGGLE) {
                            layer_invert(action.layer_tap.val);
                        }
                    } else {
                        if (tap_count <= TAPPING_TOGGLE) {
 80081ee:	2f05      	cmp	r7, #5
 80081f0:	f63f adfb 	bhi.w	8007dea <process_action+0x6a>
 80081f4:	e6ef      	b.n	8007fd6 <process_action+0x256>
                    /* layer On/Off with modifiers(left only) */
                    if (event.pressed) {
                        layer_on(action.layer_tap.val);
                        register_mods(action.layer_tap.code & 0x0f);
                    } else {
                        layer_off(action.layer_tap.val);
 80081f6:	f000 ffdb 	bl	80091b0 <layer_off>
    }
}

void unregister_mods(uint8_t mods)
{
    if (mods) {
 80081fa:	f014 000f 	ands.w	r0, r4, #15
 80081fe:	f43f adf4 	beq.w	8007dea <process_action+0x6a>
        del_mods(mods);
 8008202:	f000 ff45 	bl	8009090 <del_mods>
 8008206:	e6db      	b.n	8007fc0 <process_action+0x240>
 8008208:	4b72      	ldr	r3, [pc, #456]	; (80083d4 <process_action+0x654>)
 800820a:	601e      	str	r6, [r3, #0]
 800820c:	e6ab      	b.n	8007f66 <process_action+0x1e6>
 800820e:	6813      	ldr	r3, [r2, #0]
 8008210:	4323      	orrs	r3, r4
}

#ifndef NO_ACTION_LAYER
void default_layer_or(uint32_t state)
{
    default_layer_state_set(default_layer_state | state);
 8008212:	431e      	orrs	r6, r3

static void default_layer_state_set(uint32_t state)
{
    debug("default_layer_state: ");
    default_layer_debug(); debug(" to ");
    default_layer_state = state;
 8008214:	6016      	str	r6, [r2, #0]
 8008216:	e6a6      	b.n	8007f66 <process_action+0x1e6>
 8008218:	4d6f      	ldr	r5, [pc, #444]	; (80083d8 <process_action+0x658>)
{
    default_layer_state_set(default_layer_state | state);
}
void default_layer_and(uint32_t state)
{
    default_layer_state_set(default_layer_state & state);
 800821a:	682b      	ldr	r3, [r5, #0]
 800821c:	401e      	ands	r6, r3

static void default_layer_state_set(uint32_t state)
{
    debug("default_layer_state: ");
    default_layer_debug(); debug(" to ");
    default_layer_state = state;
 800821e:	602e      	str	r6, [r5, #0]
    default_layer_debug(); debug("\n");
    clear_keyboard_but_mods(); // To avoid stuck keys
 8008220:	f001 fa6e 	bl	8009700 <clear_keyboard_but_mods>
}

#ifndef NO_ACTION_LAYER
void default_layer_or(uint32_t state)
{
    default_layer_state_set(default_layer_state | state);
 8008224:	682b      	ldr	r3, [r5, #0]
 8008226:	ea44 0603 	orr.w	r6, r4, r3

static void default_layer_state_set(uint32_t state)
{
    debug("default_layer_state: ");
    default_layer_debug(); debug(" to ");
    default_layer_state = state;
 800822a:	602e      	str	r6, [r5, #0]
 800822c:	e69b      	b.n	8007f66 <process_action+0x1e6>
 800822e:	4a6a      	ldr	r2, [pc, #424]	; (80083d8 <process_action+0x658>)
                    uint32_t bits = ((uint32_t)action.layer_bitop.bits)<<shift;
                    uint32_t mask = (action.layer_bitop.xbit) ? ~(((uint32_t)0xf)<<shift) : 0;
                    switch (action.layer_bitop.op) {
                        case OP_BIT_AND: default_layer_and(bits | mask); break;
                        case OP_BIT_OR:  default_layer_or(bits | mask);  break;
                        case OP_BIT_XOR: default_layer_xor(bits | mask); break;
 8008230:	4326      	orrs	r6, r4
{
    default_layer_state_set(default_layer_state & state);
}
void default_layer_xor(uint32_t state)
{
    default_layer_state_set(default_layer_state ^ state);
 8008232:	6813      	ldr	r3, [r2, #0]
 8008234:	405e      	eors	r6, r3

static void default_layer_state_set(uint32_t state)
{
    debug("default_layer_state: ");
    default_layer_debug(); debug(" to ");
    default_layer_state = state;
 8008236:	6016      	str	r6, [r2, #0]
 8008238:	e695      	b.n	8007f66 <process_action+0x1e6>
    else if (code == KC_MS_WH_UP    && mouse_report.v > 0) mouse_report.v = 0;
 800823a:	4b65      	ldr	r3, [pc, #404]	; (80083d0 <process_action+0x650>)
 800823c:	f993 2003 	ldrsb.w	r2, [r3, #3]
 8008240:	2a00      	cmp	r2, #0
 8008242:	f77f af2e 	ble.w	80080a2 <process_action+0x322>
 8008246:	2200      	movs	r2, #0
 8008248:	70da      	strb	r2, [r3, #3]
 800824a:	e72a      	b.n	80080a2 <process_action+0x322>
}

void mousekey_on(uint8_t code)
{
    if      (code == KC_MS_UP)       mouse_report.y = move_unit() * -1;
    else if (code == KC_MS_DOWN)     mouse_report.y = move_unit();
 800824c:	f000 f9d8 	bl	8008600 <move_unit.lto_priv.51>
 8008250:	4b5f      	ldr	r3, [pc, #380]	; (80083d0 <process_action+0x650>)
 8008252:	7098      	strb	r0, [r3, #2]
 8008254:	e660      	b.n	8007f18 <process_action+0x198>
 8008256:	680a      	ldr	r2, [r1, #0]
 8008258:	4322      	orrs	r2, r4
    layer_state_set(layer_state ^ (1UL<<layer));
}

void layer_or(uint32_t state)
{
    layer_state_set(layer_state | state);
 800825a:	4313      	orrs	r3, r2

static void layer_state_set(uint32_t state)
{
    dprint("layer_state: ");
    layer_debug(); dprint(" to ");
    layer_state = state;
 800825c:	600b      	str	r3, [r1, #0]
 800825e:	e682      	b.n	8007f66 <process_action+0x1e6>
 8008260:	4d5c      	ldr	r5, [pc, #368]	; (80083d4 <process_action+0x654>)
{
    layer_state_set(layer_state | state);
}
void layer_and(uint32_t state)
{
    layer_state_set(layer_state & state);
 8008262:	682a      	ldr	r2, [r5, #0]
 8008264:	4013      	ands	r3, r2

static void layer_state_set(uint32_t state)
{
    dprint("layer_state: ");
    layer_debug(); dprint(" to ");
    layer_state = state;
 8008266:	602b      	str	r3, [r5, #0]
    layer_debug(); dprintln();
    clear_keyboard_but_mods(); // To avoid stuck keys
 8008268:	f001 fa4a 	bl	8009700 <clear_keyboard_but_mods>
    layer_state_set(layer_state ^ (1UL<<layer));
}

void layer_or(uint32_t state)
{
    layer_state_set(layer_state | state);
 800826c:	682b      	ldr	r3, [r5, #0]
 800826e:	4323      	orrs	r3, r4

static void layer_state_set(uint32_t state)
{
    dprint("layer_state: ");
    layer_debug(); dprint(" to ");
    layer_state = state;
 8008270:	602b      	str	r3, [r5, #0]
 8008272:	e678      	b.n	8007f66 <process_action+0x1e6>
 8008274:	4957      	ldr	r1, [pc, #348]	; (80083d4 <process_action+0x654>)
                    uint32_t bits = ((uint32_t)action.layer_bitop.bits)<<shift;
                    uint32_t mask = (action.layer_bitop.xbit) ? ~(((uint32_t)0xf)<<shift) : 0;
                    switch (action.layer_bitop.op) {
                        case OP_BIT_AND: layer_and(bits | mask); break;
                        case OP_BIT_OR:  layer_or(bits | mask);  break;
                        case OP_BIT_XOR: layer_xor(bits | mask); break;
 8008276:	4323      	orrs	r3, r4
{
    layer_state_set(layer_state & state);
}
void layer_xor(uint32_t state)
{
    layer_state_set(layer_state ^ state);
 8008278:	680a      	ldr	r2, [r1, #0]
 800827a:	4053      	eors	r3, r2

static void layer_state_set(uint32_t state)
{
    dprint("layer_state: ");
    layer_debug(); dprint(" to ");
    layer_state = state;
 800827c:	600b      	str	r3, [r1, #0]
 800827e:	e672      	b.n	8007f66 <process_action+0x1e6>
    else if (code == KC_MS_LEFT)     mouse_report.x = move_unit() * -1;
 8008280:	f000 f9be 	bl	8008600 <move_unit.lto_priv.51>
 8008284:	4b52      	ldr	r3, [pc, #328]	; (80083d0 <process_action+0x650>)
 8008286:	4240      	negs	r0, r0
 8008288:	7058      	strb	r0, [r3, #1]
 800828a:	e645      	b.n	8007f18 <process_action+0x198>
    if      (code == KC_MS_UP       && mouse_report.y < 0) mouse_report.y = 0;
    else if (code == KC_MS_DOWN     && mouse_report.y > 0) mouse_report.y = 0;
    else if (code == KC_MS_LEFT     && mouse_report.x < 0) mouse_report.x = 0;
    else if (code == KC_MS_RIGHT    && mouse_report.x > 0) mouse_report.x = 0;
    else if (code == KC_MS_WH_UP    && mouse_report.v > 0) mouse_report.v = 0;
    else if (code == KC_MS_WH_DOWN  && mouse_report.v < 0) mouse_report.v = 0;
 800828c:	4b50      	ldr	r3, [pc, #320]	; (80083d0 <process_action+0x650>)
 800828e:	f993 2003 	ldrsb.w	r2, [r3, #3]
 8008292:	2a00      	cmp	r2, #0
 8008294:	f6bf af05 	bge.w	80080a2 <process_action+0x322>
 8008298:	e7d5      	b.n	8008246 <process_action+0x4c6>
    else if (code == KC_MS_WH_LEFT  && mouse_report.h < 0) mouse_report.h = 0;
 800829a:	4b4d      	ldr	r3, [pc, #308]	; (80083d0 <process_action+0x650>)
 800829c:	f993 2004 	ldrsb.w	r2, [r3, #4]
 80082a0:	2a00      	cmp	r2, #0
 80082a2:	f6bf aefe 	bge.w	80080a2 <process_action+0x322>
 80082a6:	2200      	movs	r2, #0
 80082a8:	711a      	strb	r2, [r3, #4]
 80082aa:	785a      	ldrb	r2, [r3, #1]
 80082ac:	e6fa      	b.n	80080a4 <process_action+0x324>
void mousekey_on(uint8_t code)
{
    if      (code == KC_MS_UP)       mouse_report.y = move_unit() * -1;
    else if (code == KC_MS_DOWN)     mouse_report.y = move_unit();
    else if (code == KC_MS_LEFT)     mouse_report.x = move_unit() * -1;
    else if (code == KC_MS_RIGHT)    mouse_report.x = move_unit();
 80082ae:	f000 f9a7 	bl	8008600 <move_unit.lto_priv.51>
 80082b2:	4b47      	ldr	r3, [pc, #284]	; (80083d0 <process_action+0x650>)
 80082b4:	7058      	strb	r0, [r3, #1]
 80082b6:	e62f      	b.n	8007f18 <process_action+0x198>
    else if (code == KC_MS_LEFT     && mouse_report.x < 0) mouse_report.x = 0;
    else if (code == KC_MS_RIGHT    && mouse_report.x > 0) mouse_report.x = 0;
    else if (code == KC_MS_WH_UP    && mouse_report.v > 0) mouse_report.v = 0;
    else if (code == KC_MS_WH_DOWN  && mouse_report.v < 0) mouse_report.v = 0;
    else if (code == KC_MS_WH_LEFT  && mouse_report.h < 0) mouse_report.h = 0;
    else if (code == KC_MS_WH_RIGHT && mouse_report.h > 0) mouse_report.h = 0;
 80082b8:	4b45      	ldr	r3, [pc, #276]	; (80083d0 <process_action+0x650>)
 80082ba:	f993 2004 	ldrsb.w	r2, [r3, #4]
 80082be:	2a00      	cmp	r2, #0
 80082c0:	dcf1      	bgt.n	80082a6 <process_action+0x526>
 80082c2:	e6ee      	b.n	80080a2 <process_action+0x322>
 80082c4:	4a41      	ldr	r2, [pc, #260]	; (80083cc <process_action+0x64c>)
 80082c6:	7015      	strb	r5, [r2, #0]
    }
}

void unregister_mods(uint8_t mods)
{
    if (mods) {
 80082c8:	2b00      	cmp	r3, #0
 80082ca:	f43f ad8e 	beq.w	8007dea <process_action+0x6a>
 80082ce:	e741      	b.n	8008154 <process_action+0x3d4>
{
    if      (code == KC_MS_UP)       mouse_report.y = move_unit() * -1;
    else if (code == KC_MS_DOWN)     mouse_report.y = move_unit();
    else if (code == KC_MS_LEFT)     mouse_report.x = move_unit() * -1;
    else if (code == KC_MS_RIGHT)    mouse_report.x = move_unit();
    else if (code == KC_MS_WH_UP)    mouse_report.v = wheel_unit();
 80082d0:	f000 f95e 	bl	8008590 <wheel_unit.lto_priv.50>
 80082d4:	4b3e      	ldr	r3, [pc, #248]	; (80083d0 <process_action+0x650>)
 80082d6:	70d8      	strb	r0, [r3, #3]
 80082d8:	e61e      	b.n	8007f18 <process_action+0x198>
    else if (code == KC_MS_RIGHT    && mouse_report.x > 0) mouse_report.x = 0;
    else if (code == KC_MS_WH_UP    && mouse_report.v > 0) mouse_report.v = 0;
    else if (code == KC_MS_WH_DOWN  && mouse_report.v < 0) mouse_report.v = 0;
    else if (code == KC_MS_WH_LEFT  && mouse_report.h < 0) mouse_report.h = 0;
    else if (code == KC_MS_WH_RIGHT && mouse_report.h > 0) mouse_report.h = 0;
    else if (code == KC_MS_BTN1) mouse_report.buttons &= ~MOUSE_BTN1;
 80082da:	4b3d      	ldr	r3, [pc, #244]	; (80083d0 <process_action+0x650>)
 80082dc:	7819      	ldrb	r1, [r3, #0]
 80082de:	785a      	ldrb	r2, [r3, #1]
 80082e0:	f021 0101 	bic.w	r1, r1, #1
 80082e4:	7019      	strb	r1, [r3, #0]
 80082e6:	e6dd      	b.n	80080a4 <process_action+0x324>
    else if (code == KC_MS_BTN2) mouse_report.buttons &= ~MOUSE_BTN2;
 80082e8:	4b39      	ldr	r3, [pc, #228]	; (80083d0 <process_action+0x650>)
 80082ea:	7819      	ldrb	r1, [r3, #0]
 80082ec:	785a      	ldrb	r2, [r3, #1]
 80082ee:	f021 0102 	bic.w	r1, r1, #2
 80082f2:	7019      	strb	r1, [r3, #0]
 80082f4:	e6d6      	b.n	80080a4 <process_action+0x324>
    if      (code == KC_MS_UP)       mouse_report.y = move_unit() * -1;
    else if (code == KC_MS_DOWN)     mouse_report.y = move_unit();
    else if (code == KC_MS_LEFT)     mouse_report.x = move_unit() * -1;
    else if (code == KC_MS_RIGHT)    mouse_report.x = move_unit();
    else if (code == KC_MS_WH_UP)    mouse_report.v = wheel_unit();
    else if (code == KC_MS_WH_DOWN)  mouse_report.v = wheel_unit() * -1;
 80082f6:	f000 f94b 	bl	8008590 <wheel_unit.lto_priv.50>
 80082fa:	4b35      	ldr	r3, [pc, #212]	; (80083d0 <process_action+0x650>)
 80082fc:	4240      	negs	r0, r0
 80082fe:	70d8      	strb	r0, [r3, #3]
 8008300:	e60a      	b.n	8007f18 <process_action+0x198>
    else if (code == KC_MS_WH_LEFT)  mouse_report.h = wheel_unit() * -1;
    else if (code == KC_MS_WH_RIGHT) mouse_report.h = wheel_unit();
 8008302:	f000 f945 	bl	8008590 <wheel_unit.lto_priv.50>
 8008306:	4b32      	ldr	r3, [pc, #200]	; (80083d0 <process_action+0x650>)
 8008308:	7118      	strb	r0, [r3, #4]
 800830a:	e605      	b.n	8007f18 <process_action+0x198>
    else if (code == KC_MS_DOWN)     mouse_report.y = move_unit();
    else if (code == KC_MS_LEFT)     mouse_report.x = move_unit() * -1;
    else if (code == KC_MS_RIGHT)    mouse_report.x = move_unit();
    else if (code == KC_MS_WH_UP)    mouse_report.v = wheel_unit();
    else if (code == KC_MS_WH_DOWN)  mouse_report.v = wheel_unit() * -1;
    else if (code == KC_MS_WH_LEFT)  mouse_report.h = wheel_unit() * -1;
 800830c:	f000 f940 	bl	8008590 <wheel_unit.lto_priv.50>
 8008310:	4b2f      	ldr	r3, [pc, #188]	; (80083d0 <process_action+0x650>)
 8008312:	4240      	negs	r0, r0
 8008314:	7118      	strb	r0, [r3, #4]
 8008316:	e5ff      	b.n	8007f18 <process_action+0x198>
    else if (code == KC_MS_WH_DOWN  && mouse_report.v < 0) mouse_report.v = 0;
    else if (code == KC_MS_WH_LEFT  && mouse_report.h < 0) mouse_report.h = 0;
    else if (code == KC_MS_WH_RIGHT && mouse_report.h > 0) mouse_report.h = 0;
    else if (code == KC_MS_BTN1) mouse_report.buttons &= ~MOUSE_BTN1;
    else if (code == KC_MS_BTN2) mouse_report.buttons &= ~MOUSE_BTN2;
    else if (code == KC_MS_BTN3) mouse_report.buttons &= ~MOUSE_BTN3;
 8008318:	4b2d      	ldr	r3, [pc, #180]	; (80083d0 <process_action+0x650>)
 800831a:	7819      	ldrb	r1, [r3, #0]
 800831c:	785a      	ldrb	r2, [r3, #1]
 800831e:	f021 0104 	bic.w	r1, r1, #4
 8008322:	7019      	strb	r1, [r3, #0]
 8008324:	e6be      	b.n	80080a4 <process_action+0x324>
    else if (code == KC_MS_RIGHT)    mouse_report.x = move_unit();
    else if (code == KC_MS_WH_UP)    mouse_report.v = wheel_unit();
    else if (code == KC_MS_WH_DOWN)  mouse_report.v = wheel_unit() * -1;
    else if (code == KC_MS_WH_LEFT)  mouse_report.h = wheel_unit() * -1;
    else if (code == KC_MS_WH_RIGHT) mouse_report.h = wheel_unit();
    else if (code == KC_MS_BTN1)     mouse_report.buttons |= MOUSE_BTN1;
 8008326:	4a2a      	ldr	r2, [pc, #168]	; (80083d0 <process_action+0x650>)
 8008328:	7813      	ldrb	r3, [r2, #0]
 800832a:	f043 0301 	orr.w	r3, r3, #1
 800832e:	7013      	strb	r3, [r2, #0]
 8008330:	e5f2      	b.n	8007f18 <process_action+0x198>
    else if (code == KC_MS_WH_LEFT  && mouse_report.h < 0) mouse_report.h = 0;
    else if (code == KC_MS_WH_RIGHT && mouse_report.h > 0) mouse_report.h = 0;
    else if (code == KC_MS_BTN1) mouse_report.buttons &= ~MOUSE_BTN1;
    else if (code == KC_MS_BTN2) mouse_report.buttons &= ~MOUSE_BTN2;
    else if (code == KC_MS_BTN3) mouse_report.buttons &= ~MOUSE_BTN3;
    else if (code == KC_MS_BTN4) mouse_report.buttons &= ~MOUSE_BTN4;
 8008332:	4b27      	ldr	r3, [pc, #156]	; (80083d0 <process_action+0x650>)
 8008334:	7819      	ldrb	r1, [r3, #0]
 8008336:	785a      	ldrb	r2, [r3, #1]
 8008338:	f021 0108 	bic.w	r1, r1, #8
 800833c:	7019      	strb	r1, [r3, #0]
 800833e:	e6b1      	b.n	80080a4 <process_action+0x324>
    else if (code == KC_MS_WH_DOWN)  mouse_report.v = wheel_unit() * -1;
    else if (code == KC_MS_WH_LEFT)  mouse_report.h = wheel_unit() * -1;
    else if (code == KC_MS_WH_RIGHT) mouse_report.h = wheel_unit();
    else if (code == KC_MS_BTN1)     mouse_report.buttons |= MOUSE_BTN1;
    else if (code == KC_MS_BTN2)     mouse_report.buttons |= MOUSE_BTN2;
    else if (code == KC_MS_BTN3)     mouse_report.buttons |= MOUSE_BTN3;
 8008340:	4a23      	ldr	r2, [pc, #140]	; (80083d0 <process_action+0x650>)
 8008342:	7813      	ldrb	r3, [r2, #0]
 8008344:	f043 0304 	orr.w	r3, r3, #4
 8008348:	7013      	strb	r3, [r2, #0]
 800834a:	e5e5      	b.n	8007f18 <process_action+0x198>
    else if (code == KC_MS_WH_UP)    mouse_report.v = wheel_unit();
    else if (code == KC_MS_WH_DOWN)  mouse_report.v = wheel_unit() * -1;
    else if (code == KC_MS_WH_LEFT)  mouse_report.h = wheel_unit() * -1;
    else if (code == KC_MS_WH_RIGHT) mouse_report.h = wheel_unit();
    else if (code == KC_MS_BTN1)     mouse_report.buttons |= MOUSE_BTN1;
    else if (code == KC_MS_BTN2)     mouse_report.buttons |= MOUSE_BTN2;
 800834c:	4a20      	ldr	r2, [pc, #128]	; (80083d0 <process_action+0x650>)
 800834e:	7813      	ldrb	r3, [r2, #0]
 8008350:	f043 0302 	orr.w	r3, r3, #2
 8008354:	7013      	strb	r3, [r2, #0]
 8008356:	e5df      	b.n	8007f18 <process_action+0x198>
    else if (code == KC_MS_WH_RIGHT && mouse_report.h > 0) mouse_report.h = 0;
    else if (code == KC_MS_BTN1) mouse_report.buttons &= ~MOUSE_BTN1;
    else if (code == KC_MS_BTN2) mouse_report.buttons &= ~MOUSE_BTN2;
    else if (code == KC_MS_BTN3) mouse_report.buttons &= ~MOUSE_BTN3;
    else if (code == KC_MS_BTN4) mouse_report.buttons &= ~MOUSE_BTN4;
    else if (code == KC_MS_BTN5) mouse_report.buttons &= ~MOUSE_BTN5;
 8008358:	4b1d      	ldr	r3, [pc, #116]	; (80083d0 <process_action+0x650>)
 800835a:	7819      	ldrb	r1, [r3, #0]
 800835c:	785a      	ldrb	r2, [r3, #1]
 800835e:	f021 0110 	bic.w	r1, r1, #16
 8008362:	7019      	strb	r1, [r3, #0]
 8008364:	e69e      	b.n	80080a4 <process_action+0x324>
    else if (code == KC_MS_WH_LEFT)  mouse_report.h = wheel_unit() * -1;
    else if (code == KC_MS_WH_RIGHT) mouse_report.h = wheel_unit();
    else if (code == KC_MS_BTN1)     mouse_report.buttons |= MOUSE_BTN1;
    else if (code == KC_MS_BTN2)     mouse_report.buttons |= MOUSE_BTN2;
    else if (code == KC_MS_BTN3)     mouse_report.buttons |= MOUSE_BTN3;
    else if (code == KC_MS_BTN4)     mouse_report.buttons |= MOUSE_BTN4;
 8008366:	4a1a      	ldr	r2, [pc, #104]	; (80083d0 <process_action+0x650>)
 8008368:	7813      	ldrb	r3, [r2, #0]
 800836a:	f043 0308 	orr.w	r3, r3, #8
 800836e:	7013      	strb	r3, [r2, #0]
 8008370:	e5d2      	b.n	8007f18 <process_action+0x198>
    else if (code == KC_MS_BTN2) mouse_report.buttons &= ~MOUSE_BTN2;
    else if (code == KC_MS_BTN3) mouse_report.buttons &= ~MOUSE_BTN3;
    else if (code == KC_MS_BTN4) mouse_report.buttons &= ~MOUSE_BTN4;
    else if (code == KC_MS_BTN5) mouse_report.buttons &= ~MOUSE_BTN5;
    else if (code == KC_MS_ACCEL0) mousekey_accel &= ~(1<<0);
    else if (code == KC_MS_ACCEL1) mousekey_accel &= ~(1<<1);
 8008372:	481a      	ldr	r0, [pc, #104]	; (80083dc <process_action+0x65c>)
 8008374:	4b16      	ldr	r3, [pc, #88]	; (80083d0 <process_action+0x650>)
 8008376:	7801      	ldrb	r1, [r0, #0]
 8008378:	785a      	ldrb	r2, [r3, #1]
 800837a:	f021 0102 	bic.w	r1, r1, #2
 800837e:	7001      	strb	r1, [r0, #0]
 8008380:	e690      	b.n	80080a4 <process_action+0x324>
    else if (code == KC_MS_BTN1) mouse_report.buttons &= ~MOUSE_BTN1;
    else if (code == KC_MS_BTN2) mouse_report.buttons &= ~MOUSE_BTN2;
    else if (code == KC_MS_BTN3) mouse_report.buttons &= ~MOUSE_BTN3;
    else if (code == KC_MS_BTN4) mouse_report.buttons &= ~MOUSE_BTN4;
    else if (code == KC_MS_BTN5) mouse_report.buttons &= ~MOUSE_BTN5;
    else if (code == KC_MS_ACCEL0) mousekey_accel &= ~(1<<0);
 8008382:	4816      	ldr	r0, [pc, #88]	; (80083dc <process_action+0x65c>)
 8008384:	4b12      	ldr	r3, [pc, #72]	; (80083d0 <process_action+0x650>)
 8008386:	7801      	ldrb	r1, [r0, #0]
 8008388:	785a      	ldrb	r2, [r3, #1]
 800838a:	f021 0101 	bic.w	r1, r1, #1
 800838e:	7001      	strb	r1, [r0, #0]
 8008390:	e688      	b.n	80080a4 <process_action+0x324>
    else if (code == KC_MS_ACCEL1) mousekey_accel &= ~(1<<1);
    else if (code == KC_MS_ACCEL2) mousekey_accel &= ~(1<<2);
 8008392:	4812      	ldr	r0, [pc, #72]	; (80083dc <process_action+0x65c>)
 8008394:	4b0e      	ldr	r3, [pc, #56]	; (80083d0 <process_action+0x650>)
 8008396:	7801      	ldrb	r1, [r0, #0]
 8008398:	785a      	ldrb	r2, [r3, #1]
 800839a:	f021 0104 	bic.w	r1, r1, #4
 800839e:	7001      	strb	r1, [r0, #0]
 80083a0:	e680      	b.n	80080a4 <process_action+0x324>
    else if (code == KC_MS_BTN2)     mouse_report.buttons |= MOUSE_BTN2;
    else if (code == KC_MS_BTN3)     mouse_report.buttons |= MOUSE_BTN3;
    else if (code == KC_MS_BTN4)     mouse_report.buttons |= MOUSE_BTN4;
    else if (code == KC_MS_BTN5)     mouse_report.buttons |= MOUSE_BTN5;
    else if (code == KC_MS_ACCEL0)   mousekey_accel |= (1<<0);
    else if (code == KC_MS_ACCEL1)   mousekey_accel |= (1<<1);
 80083a2:	4a0e      	ldr	r2, [pc, #56]	; (80083dc <process_action+0x65c>)
 80083a4:	7813      	ldrb	r3, [r2, #0]
 80083a6:	f043 0302 	orr.w	r3, r3, #2
 80083aa:	7013      	strb	r3, [r2, #0]
 80083ac:	e5b4      	b.n	8007f18 <process_action+0x198>
    else if (code == KC_MS_BTN1)     mouse_report.buttons |= MOUSE_BTN1;
    else if (code == KC_MS_BTN2)     mouse_report.buttons |= MOUSE_BTN2;
    else if (code == KC_MS_BTN3)     mouse_report.buttons |= MOUSE_BTN3;
    else if (code == KC_MS_BTN4)     mouse_report.buttons |= MOUSE_BTN4;
    else if (code == KC_MS_BTN5)     mouse_report.buttons |= MOUSE_BTN5;
    else if (code == KC_MS_ACCEL0)   mousekey_accel |= (1<<0);
 80083ae:	4a0b      	ldr	r2, [pc, #44]	; (80083dc <process_action+0x65c>)
 80083b0:	7813      	ldrb	r3, [r2, #0]
 80083b2:	f043 0301 	orr.w	r3, r3, #1
 80083b6:	7013      	strb	r3, [r2, #0]
 80083b8:	e5ae      	b.n	8007f18 <process_action+0x198>
    else if (code == KC_MS_WH_RIGHT) mouse_report.h = wheel_unit();
    else if (code == KC_MS_BTN1)     mouse_report.buttons |= MOUSE_BTN1;
    else if (code == KC_MS_BTN2)     mouse_report.buttons |= MOUSE_BTN2;
    else if (code == KC_MS_BTN3)     mouse_report.buttons |= MOUSE_BTN3;
    else if (code == KC_MS_BTN4)     mouse_report.buttons |= MOUSE_BTN4;
    else if (code == KC_MS_BTN5)     mouse_report.buttons |= MOUSE_BTN5;
 80083ba:	4a05      	ldr	r2, [pc, #20]	; (80083d0 <process_action+0x650>)
 80083bc:	7813      	ldrb	r3, [r2, #0]
 80083be:	f043 0310 	orr.w	r3, r3, #16
 80083c2:	7013      	strb	r3, [r2, #0]
 80083c4:	e5a8      	b.n	8007f18 <process_action+0x198>
 80083c6:	bf00      	nop
 80083c8:	200015ba 	.word	0x200015ba
 80083cc:	200015cc 	.word	0x200015cc
 80083d0:	2000156c 	.word	0x2000156c
 80083d4:	200015b4 	.word	0x200015b4
 80083d8:	2000153c 	.word	0x2000153c
 80083dc:	20001538 	.word	0x20001538

080083e0 <host_keyboard_leds>:
    return driver;
}

uint8_t host_keyboard_leds(void)
{
    if (!driver) return 0;
 80083e0:	4b02      	ldr	r3, [pc, #8]	; (80083ec <host_keyboard_leds+0xc>)
 80083e2:	6818      	ldr	r0, [r3, #0]
 80083e4:	b108      	cbz	r0, 80083ea <host_keyboard_leds+0xa>
    return (*driver->keyboard_leds)();
 80083e6:	6803      	ldr	r3, [r0, #0]
 80083e8:	4718      	bx	r3
}
 80083ea:	4770      	bx	lr
 80083ec:	200014ac 	.word	0x200014ac

080083f0 <matrix_scan>:
    wait_ms(500);
    LED_OFF();
}

uint8_t matrix_scan(void)
{
 80083f0:	b538      	push	{r3, r4, r5, lr}
    for (uint8_t i = 0; i < MATRIX_ROWS; i++) {
        select_row(i);
        wait_us(30);  // without this wait read unstable value.
 80083f2:	2001      	movs	r0, #1
 80083f4:	f7fe fdf4 	bl	8006fe0 <chThdSleep>
}

/* Returns status of switches(1:on, 0:off) */
static matrix_row_t read_cols(void)
{
    return ((palReadPad(MAPLE_BUTTON_PORT, MAPLE_BUTTON_PIN)==PAL_LOW) ? 0 : (1<<0));
 80083f8:	4b1a      	ldr	r3, [pc, #104]	; (8008464 <matrix_scan+0x74>)
{
    for (uint8_t i = 0; i < MATRIX_ROWS; i++) {
        select_row(i);
        wait_us(30);  // without this wait read unstable value.
        matrix_row_t cols = read_cols();
        if (matrix_debouncing[i] != cols) {
 80083fa:	4a1b      	ldr	r2, [pc, #108]	; (8008468 <matrix_scan+0x78>)
}

/* Returns status of switches(1:on, 0:off) */
static matrix_row_t read_cols(void)
{
    return ((palReadPad(MAPLE_BUTTON_PORT, MAPLE_BUTTON_PIN)==PAL_LOW) ? 0 : (1<<0));
 80083fc:	689b      	ldr	r3, [r3, #8]
{
    for (uint8_t i = 0; i < MATRIX_ROWS; i++) {
        select_row(i);
        wait_us(30);  // without this wait read unstable value.
        matrix_row_t cols = read_cols();
        if (matrix_debouncing[i] != cols) {
 80083fe:	7811      	ldrb	r1, [r2, #0]
}

/* Returns status of switches(1:on, 0:off) */
static matrix_row_t read_cols(void)
{
    return ((palReadPad(MAPLE_BUTTON_PORT, MAPLE_BUTTON_PIN)==PAL_LOW) ? 0 : (1<<0));
 8008400:	f3c3 2300 	ubfx	r3, r3, #8, #1
{
    for (uint8_t i = 0; i < MATRIX_ROWS; i++) {
        select_row(i);
        wait_us(30);  // without this wait read unstable value.
        matrix_row_t cols = read_cols();
        if (matrix_debouncing[i] != cols) {
 8008404:	4299      	cmp	r1, r3
 8008406:	d01f      	beq.n	8008448 <matrix_scan+0x58>
            matrix_debouncing[i] = cols;
            if (debouncing) {
 8008408:	4c18      	ldr	r4, [pc, #96]	; (800846c <matrix_scan+0x7c>)
    for (uint8_t i = 0; i < MATRIX_ROWS; i++) {
        select_row(i);
        wait_us(30);  // without this wait read unstable value.
        matrix_row_t cols = read_cols();
        if (matrix_debouncing[i] != cols) {
            matrix_debouncing[i] = cols;
 800840a:	7013      	strb	r3, [r2, #0]
            if (debouncing) {
 800840c:	7823      	ldrb	r3, [r4, #0]
 800840e:	b933      	cbnz	r3, 800841e <matrix_scan+0x2e>
        }
        unselect_rows();
    }

    if (debouncing) {
        if (--debouncing) {
 8008410:	2304      	movs	r3, #4
 8008412:	7023      	strb	r3, [r4, #0]
            wait_ms(1);
 8008414:	2002      	movs	r0, #2
 8008416:	f7fe fde3 	bl	8006fe0 <chThdSleep>
            }
        }
    }

    return 1;
}
 800841a:	2001      	movs	r0, #1
 800841c:	bd38      	pop	{r3, r4, r5, pc}
        wait_us(30);  // without this wait read unstable value.
        matrix_row_t cols = read_cols();
        if (matrix_debouncing[i] != cols) {
            matrix_debouncing[i] = cols;
            if (debouncing) {
                debug("bounce!: "); debug_hex(debouncing); debug("\n");
 800841e:	4d14      	ldr	r5, [pc, #80]	; (8008470 <matrix_scan+0x80>)
 8008420:	782b      	ldrb	r3, [r5, #0]
 8008422:	07d9      	lsls	r1, r3, #31
 8008424:	d5f4      	bpl.n	8008410 <matrix_scan+0x20>
 8008426:	4813      	ldr	r0, [pc, #76]	; (8008474 <matrix_scan+0x84>)
 8008428:	f000 f95a 	bl	80086e0 <tfp_printf>
 800842c:	782b      	ldrb	r3, [r5, #0]
 800842e:	07da      	lsls	r2, r3, #31
 8008430:	d5ee      	bpl.n	8008410 <matrix_scan+0x20>
 8008432:	4811      	ldr	r0, [pc, #68]	; (8008478 <matrix_scan+0x88>)
 8008434:	7821      	ldrb	r1, [r4, #0]
 8008436:	f000 f953 	bl	80086e0 <tfp_printf>
 800843a:	782b      	ldrb	r3, [r5, #0]
 800843c:	07db      	lsls	r3, r3, #31
 800843e:	d5e7      	bpl.n	8008410 <matrix_scan+0x20>
 8008440:	480e      	ldr	r0, [pc, #56]	; (800847c <matrix_scan+0x8c>)
 8008442:	f000 f94d 	bl	80086e0 <tfp_printf>
 8008446:	e7e3      	b.n	8008410 <matrix_scan+0x20>
            debouncing = DEBOUNCE;
        }
        unselect_rows();
    }

    if (debouncing) {
 8008448:	4a08      	ldr	r2, [pc, #32]	; (800846c <matrix_scan+0x7c>)
 800844a:	7813      	ldrb	r3, [r2, #0]
 800844c:	2b00      	cmp	r3, #0
 800844e:	d0e4      	beq.n	800841a <matrix_scan+0x2a>
 8008450:	3b01      	subs	r3, #1
 8008452:	b2db      	uxtb	r3, r3
        if (--debouncing) {
 8008454:	7013      	strb	r3, [r2, #0]
 8008456:	2b00      	cmp	r3, #0
 8008458:	d1dc      	bne.n	8008414 <matrix_scan+0x24>
            wait_ms(1);
        } else {
            for (uint8_t i = 0; i < MATRIX_ROWS; i++) {
                matrix[i] = matrix_debouncing[i];
 800845a:	4b09      	ldr	r3, [pc, #36]	; (8008480 <matrix_scan+0x90>)
            }
        }
    }

    return 1;
}
 800845c:	2001      	movs	r0, #1
    if (debouncing) {
        if (--debouncing) {
            wait_ms(1);
        } else {
            for (uint8_t i = 0; i < MATRIX_ROWS; i++) {
                matrix[i] = matrix_debouncing[i];
 800845e:	7019      	strb	r1, [r3, #0]
            }
        }
    }

    return 1;
}
 8008460:	bd38      	pop	{r3, r4, r5, pc}
 8008462:	bf00      	nop
 8008464:	40010c00 	.word	0x40010c00
 8008468:	200014a8 	.word	0x200014a8
 800846c:	2000122c 	.word	0x2000122c
 8008470:	20001544 	.word	0x20001544
 8008474:	0800a310 	.word	0x0800a310
 8008478:	08009eac 	.word	0x08009eac
 800847c:	0800a8c0 	.word	0x0800a8c0
 8008480:	200014a4 	.word	0x200014a4
 8008484:	f3af 8000 	nop.w
 8008488:	f3af 8000 	nop.w
 800848c:	f3af 8000 	nop.w

08008490 <chTMStartMeasurementX.constprop.27>:
 *
 * @return              The realtime counter value.
 */
static inline rtcnt_t port_rt_get_counter_value(void) {

  return DWT->CYCCNT;
 8008490:	4b01      	ldr	r3, [pc, #4]	; (8008498 <chTMStartMeasurementX.constprop.27+0x8>)
 8008492:	685b      	ldr	r3, [r3, #4]
 *
 * @xclass
 */
NOINLINE void chTMStartMeasurementX(time_measurement_t *tmp) {

  tmp->last = chSysGetRealtimeCounterX();
 8008494:	6083      	str	r3, [r0, #8]
 8008496:	4770      	bx	lr
 8008498:	e0001000 	.word	0xe0001000
 800849c:	f3af 8000 	nop.w

080084a0 <_usb_reset.constprop.16>:
 *
 * @param[in] usbp      pointer to the @p USBDriver object
 *
 * @notapi
 */
void _usb_reset(USBDriver *usbp) {
 80084a0:	e92d 41f0 	stmdb	sp!, {r4, r5, r6, r7, r8, lr}
  unsigned i;

  /* State transition.*/
  usbp->state         = USB_READY;
 80084a4:	4c1c      	ldr	r4, [pc, #112]	; (8008518 <_usb_reset.constprop.16+0x78>)

  /* Resetting internal state.*/
  usbp->status        = 0;
 80084a6:	2300      	movs	r3, #0
 */
void _usb_reset(USBDriver *usbp) {
  unsigned i;

  /* State transition.*/
  usbp->state         = USB_READY;
 80084a8:	2202      	movs	r2, #2
  usbp->transmitting  = 0;
  usbp->receiving     = 0;

  /* Invalidates all endpoints into the USBDriver structure.*/
  for (i = 0; i <= (unsigned)USB_MAX_ENDPOINTS; i++) {
    usbp->epc[i] = NULL;
 80084aa:	4619      	mov	r1, r3

  /* State transition.*/
  usbp->state         = USB_READY;

  /* Resetting internal state.*/
  usbp->status        = 0;
 80084ac:	f8a4 307c 	strh.w	r3, [r4, #124]	; 0x7c
  usbp->address       = 0;
 80084b0:	f884 307e 	strb.w	r3, [r4, #126]	; 0x7e
  usbp->configuration = 0;
 80084b4:	f884 307f 	strb.w	r3, [r4, #127]	; 0x7f
  usbp->transmitting  = 0;
 80084b8:	8123      	strh	r3, [r4, #8]
  usbp->receiving     = 0;
 80084ba:	8163      	strh	r3, [r4, #10]
 */
void _usb_reset(USBDriver *usbp) {
  unsigned i;

  /* State transition.*/
  usbp->state         = USB_READY;
 80084bc:	7022      	strb	r2, [r4, #0]
 80084be:	f104 0308 	add.w	r3, r4, #8
 80084c2:	f104 0228 	add.w	r2, r4, #40	; 0x28
  usbp->transmitting  = 0;
  usbp->receiving     = 0;

  /* Invalidates all endpoints into the USBDriver structure.*/
  for (i = 0; i <= (unsigned)USB_MAX_ENDPOINTS; i++) {
    usbp->epc[i] = NULL;
 80084c6:	f843 1f04 	str.w	r1, [r3, #4]!
  usbp->configuration = 0;
  usbp->transmitting  = 0;
  usbp->receiving     = 0;

  /* Invalidates all endpoints into the USBDriver structure.*/
  for (i = 0; i <= (unsigned)USB_MAX_ENDPOINTS; i++) {
 80084ca:	4293      	cmp	r3, r2
    usbp->epc[i] = NULL;
 80084cc:	f04f 0500 	mov.w	r5, #0
  usbp->configuration = 0;
  usbp->transmitting  = 0;
  usbp->receiving     = 0;

  /* Invalidates all endpoints into the USBDriver structure.*/
  for (i = 0; i <= (unsigned)USB_MAX_ENDPOINTS; i++) {
 80084d0:	d1f9      	bne.n	80084c6 <_usb_reset.constprop.16+0x26>
  STM32_USB->DADDR  = DADDR_EF;
  cntr              = /*CNTR_ESOFM | */ CNTR_RESETM  | CNTR_SUSPM |
                      CNTR_WKUPM | /*CNTR_ERRM | CNTR_PMAOVRM |*/ CNTR_CTRM;
  /* The SOF interrupt is only enabled if a callback is defined for
     this service because it is an high rate source.*/
  if (usbp->config->sof_cb != NULL)
 80084d2:	6862      	ldr	r2, [r4, #4]
 */
void usb_lld_reset(USBDriver *usbp) {
  uint32_t cntr;

  /* Post reset initialization.*/
  STM32_USB->BTABLE = 0;
 80084d4:	4b11      	ldr	r3, [pc, #68]	; (800851c <_usb_reset.constprop.16+0x7c>)
  STM32_USB->DADDR  = DADDR_EF;
  cntr              = /*CNTR_ESOFM | */ CNTR_RESETM  | CNTR_SUSPM |
                      CNTR_WKUPM | /*CNTR_ERRM | CNTR_PMAOVRM |*/ CNTR_CTRM;
  /* The SOF interrupt is only enabled if a callback is defined for
     this service because it is an high rate source.*/
  if (usbp->config->sof_cb != NULL)
 80084d6:	68d2      	ldr	r2, [r2, #12]
  uint32_t cntr;

  /* Post reset initialization.*/
  STM32_USB->BTABLE = 0;
  STM32_USB->ISTR   = 0;
  STM32_USB->DADDR  = DADDR_EF;
 80084d8:	2180      	movs	r1, #128	; 0x80
  cntr              = /*CNTR_ESOFM | */ CNTR_RESETM  | CNTR_SUSPM |
                      CNTR_WKUPM | /*CNTR_ERRM | CNTR_PMAOVRM |*/ CNTR_CTRM;
  /* The SOF interrupt is only enabled if a callback is defined for
     this service because it is an high rate source.*/
  if (usbp->config->sof_cb != NULL)
    cntr |= CNTR_SOFM;
 80084da:	42aa      	cmp	r2, r5
 80084dc:	bf0c      	ite	eq
 80084de:	f44f 471c 	moveq.w	r7, #39936	; 0x9c00
 80084e2:	f44f 471e 	movne.w	r7, #40448	; 0x9e00
 */
static void usb_pm_reset(USBDriver *usbp) {

  /* The first 64 bytes are reserved for the descriptors table. The effective
     available RAM for endpoint buffers is just 448 bytes.*/
  usbp->pmnext = 64;
 80084e6:	2240      	movs	r2, #64	; 0x40

  /* Resets the packet memory allocator.*/
  usb_pm_reset(usbp);

  /* EP0 initialization.*/
  usbp->epc[0] = &ep0config;
 80084e8:	4e0d      	ldr	r6, [pc, #52]	; (8008520 <_usb_reset.constprop.16+0x80>)
 */
void usb_lld_reset(USBDriver *usbp) {
  uint32_t cntr;

  /* Post reset initialization.*/
  STM32_USB->BTABLE = 0;
 80084ea:	651d      	str	r5, [r3, #80]	; 0x50
  /* Resets the packet memory allocator.*/
  usb_pm_reset(usbp);

  /* EP0 initialization.*/
  usbp->epc[0] = &ep0config;
  usb_lld_init_endpoint(usbp, 0);
 80084ec:	480a      	ldr	r0, [pc, #40]	; (8008518 <_usb_reset.constprop.16+0x78>)
void usb_lld_reset(USBDriver *usbp) {
  uint32_t cntr;

  /* Post reset initialization.*/
  STM32_USB->BTABLE = 0;
  STM32_USB->ISTR   = 0;
 80084ee:	645d      	str	r5, [r3, #68]	; 0x44
  STM32_USB->DADDR  = DADDR_EF;
 80084f0:	64d9      	str	r1, [r3, #76]	; 0x4c
                      CNTR_WKUPM | /*CNTR_ERRM | CNTR_PMAOVRM |*/ CNTR_CTRM;
  /* The SOF interrupt is only enabled if a callback is defined for
     this service because it is an high rate source.*/
  if (usbp->config->sof_cb != NULL)
    cntr |= CNTR_SOFM;
  STM32_USB->CNTR = cntr;
 80084f2:	641f      	str	r7, [r3, #64]	; 0x40
  /* Resets the packet memory allocator.*/
  usb_pm_reset(usbp);

  /* EP0 initialization.*/
  usbp->epc[0] = &ep0config;
  usb_lld_init_endpoint(usbp, 0);
 80084f4:	4629      	mov	r1, r5
 */
static void usb_pm_reset(USBDriver *usbp) {

  /* The first 64 bytes are reserved for the descriptors table. The effective
     available RAM for endpoint buffers is just 448 bytes.*/
  usbp->pmnext = 64;
 80084f6:	f8c4 2080 	str.w	r2, [r4, #128]	; 0x80
    usbp->epc[i] = NULL;
  }

  /* EP0 state machine initialization.*/
  usbp->ep0state = USB_EP0_WAITING_SETUP;
 80084fa:	f884 5064 	strb.w	r5, [r4, #100]	; 0x64

  /* Resets the packet memory allocator.*/
  usb_pm_reset(usbp);

  /* EP0 initialization.*/
  usbp->epc[0] = &ep0config;
 80084fe:	60e6      	str	r6, [r4, #12]
  usb_lld_init_endpoint(usbp, 0);
 8008500:	f7ff fb1e 	bl	8007b40 <usb_lld_init_endpoint>

  /* Low level reset.*/
  usb_lld_reset(usbp);

  /* Notification of reset event.*/
  _usb_isr_invoke_event_cb(usbp, USB_EVENT_RESET);
 8008504:	6863      	ldr	r3, [r4, #4]
 8008506:	681b      	ldr	r3, [r3, #0]
 8008508:	b123      	cbz	r3, 8008514 <_usb_reset.constprop.16+0x74>
 800850a:	4629      	mov	r1, r5
}
 800850c:	e8bd 41f0 	ldmia.w	sp!, {r4, r5, r6, r7, r8, lr}

  /* Low level reset.*/
  usb_lld_reset(usbp);

  /* Notification of reset event.*/
  _usb_isr_invoke_event_cb(usbp, USB_EVENT_RESET);
 8008510:	4801      	ldr	r0, [pc, #4]	; (8008518 <_usb_reset.constprop.16+0x78>)
 8008512:	4718      	bx	r3
 8008514:	e8bd 81f0 	ldmia.w	sp!, {r4, r5, r6, r7, r8, pc}
 8008518:	200014b4 	.word	0x200014b4
 800851c:	40005c00 	.word	0x40005c00
 8008520:	0800a830 	.word	0x0800a830
 8008524:	f3af 8000 	nop.w
 8008528:	f3af 8000 	nop.w
 800852c:	f3af 8000 	nop.w

08008530 <usbStartReceiveI.constprop.10>:
bool usbStartReceiveI(USBDriver *usbp, usbep_t ep) {

  osalDbgCheckClassI();
  osalDbgCheck(usbp != NULL);

  if (usbGetReceiveStatusI(usbp, ep)) {
 8008530:	8943      	ldrh	r3, [r0, #10]
 8008532:	f013 0101 	ands.w	r1, r3, #1
 8008536:	d001      	beq.n	800853c <usbStartReceiveI.constprop.10+0xc>
    return true;
 8008538:	2001      	movs	r0, #1
 800853a:	4770      	bx	lr
 * @retval false        Operation started successfully.
 * @retval true         Endpoint busy, operation not started.
 *
 * @iclass
 */
bool usbStartReceiveI(USBDriver *usbp, usbep_t ep) {
 800853c:	b410      	push	{r4}
 */
void usb_lld_start_out(USBDriver *usbp, usbep_t ep) {

  (void)usbp;

  EPR_SET_STAT_RX(ep, EPR_STAT_RX_VALID);
 800853e:	4c0a      	ldr	r4, [pc, #40]	; (8008568 <usbStartReceiveI.constprop.10+0x38>)

  if (usbGetReceiveStatusI(usbp, ep)) {
    return true;
  }

  usbp->receiving |= (uint16_t)((unsigned)1U << (unsigned)ep);
 8008540:	f043 0201 	orr.w	r2, r3, #1
 8008544:	6823      	ldr	r3, [r4, #0]
 8008546:	8142      	strh	r2, [r0, #10]
 8008548:	f423 4390 	bic.w	r3, r3, #18432	; 0x4800
 800854c:	f023 0370 	bic.w	r3, r3, #112	; 0x70
 8008550:	f483 5340 	eor.w	r3, r3, #12288	; 0x3000
 8008554:	f443 4300 	orr.w	r3, r3, #32768	; 0x8000
 8008558:	f043 0380 	orr.w	r3, r3, #128	; 0x80
  usb_lld_start_out(usbp, ep);
  return false;
 800855c:	4608      	mov	r0, r1
 800855e:	6023      	str	r3, [r4, #0]
}
 8008560:	f85d 4b04 	ldr.w	r4, [sp], #4
 8008564:	4770      	bx	lr
 8008566:	bf00      	nop
 8008568:	40005c00 	.word	0x40005c00
 800856c:	f3af 8000 	nop.w

08008570 <usb_lld_prepare_receive.constprop.7>:
 * @param[in] ep        endpoint number
 *
 * @notapi
 */
void usb_lld_prepare_receive(USBDriver *usbp, usbep_t ep) {
  USBOutEndpointState *osp = usbp->epc[ep]->out_state;
 8008570:	68c1      	ldr	r1, [r0, #12]
 8008572:	698a      	ldr	r2, [r1, #24]

  /* Transfer initialization.*/
  if (osp->rxsize == 0)         /* Special case for zero sized packets.*/
 8008574:	6853      	ldr	r3, [r2, #4]
 8008576:	b133      	cbz	r3, 8008586 <usb_lld_prepare_receive.constprop.7+0x16>
    osp->rxpkts = 1;
  else
    osp->rxpkts = (uint16_t)((osp->rxsize + usbp->epc[ep]->out_maxsize - 1) /
 8008578:	8a49      	ldrh	r1, [r1, #18]
 800857a:	3b01      	subs	r3, #1
 800857c:	440b      	add	r3, r1
 800857e:	fbb3 f3f1 	udiv	r3, r3, r1
 8008582:	8213      	strh	r3, [r2, #16]
 8008584:	4770      	bx	lr
void usb_lld_prepare_receive(USBDriver *usbp, usbep_t ep) {
  USBOutEndpointState *osp = usbp->epc[ep]->out_state;

  /* Transfer initialization.*/
  if (osp->rxsize == 0)         /* Special case for zero sized packets.*/
    osp->rxpkts = 1;
 8008586:	2301      	movs	r3, #1
 8008588:	8213      	strh	r3, [r2, #16]
 800858a:	4770      	bx	lr
 800858c:	f3af 8000 	nop.w

08008590 <wheel_unit.lto_priv.50>:
}

static uint8_t wheel_unit(void)
{
    uint16_t unit;
    if (mousekey_accel & (1<<0)) {
 8008590:	4b15      	ldr	r3, [pc, #84]	; (80085e8 <wheel_unit.lto_priv.50+0x58>)
 8008592:	781b      	ldrb	r3, [r3, #0]
 8008594:	07d9      	lsls	r1, r3, #31
 8008596:	d505      	bpl.n	80085a4 <wheel_unit.lto_priv.50+0x14>
        unit = (MOUSEKEY_WHEEL_DELTA * mk_wheel_max_speed)/4;
 8008598:	4b14      	ldr	r3, [pc, #80]	; (80085ec <wheel_unit.lto_priv.50+0x5c>)
 800859a:	7818      	ldrb	r0, [r3, #0]
 800859c:	0880      	lsrs	r0, r0, #2
    } else if (mousekey_repeat >= mk_wheel_time_to_max) {
        unit = MOUSEKEY_WHEEL_DELTA * mk_wheel_max_speed;
    } else {
        unit = (MOUSEKEY_WHEEL_DELTA * mk_wheel_max_speed * mousekey_repeat) / mk_wheel_time_to_max;
    }
    return (unit > MOUSEKEY_WHEEL_MAX ? MOUSEKEY_WHEEL_MAX : (unit == 0 ? 1 : unit));
 800859e:	b180      	cbz	r0, 80085c2 <wheel_unit.lto_priv.50+0x32>
 80085a0:	b2c0      	uxtb	r0, r0
 80085a2:	4770      	bx	lr
static uint8_t wheel_unit(void)
{
    uint16_t unit;
    if (mousekey_accel & (1<<0)) {
        unit = (MOUSEKEY_WHEEL_DELTA * mk_wheel_max_speed)/4;
    } else if (mousekey_accel & (1<<1)) {
 80085a4:	079a      	lsls	r2, r3, #30
 80085a6:	d504      	bpl.n	80085b2 <wheel_unit.lto_priv.50+0x22>
        unit = (MOUSEKEY_WHEEL_DELTA * mk_wheel_max_speed)/2;
 80085a8:	4b10      	ldr	r3, [pc, #64]	; (80085ec <wheel_unit.lto_priv.50+0x5c>)
 80085aa:	7818      	ldrb	r0, [r3, #0]
 80085ac:	0840      	lsrs	r0, r0, #1
    } else if (mousekey_repeat >= mk_wheel_time_to_max) {
        unit = MOUSEKEY_WHEEL_DELTA * mk_wheel_max_speed;
    } else {
        unit = (MOUSEKEY_WHEEL_DELTA * mk_wheel_max_speed * mousekey_repeat) / mk_wheel_time_to_max;
    }
    return (unit > MOUSEKEY_WHEEL_MAX ? MOUSEKEY_WHEEL_MAX : (unit == 0 ? 1 : unit));
 80085ae:	b140      	cbz	r0, 80085c2 <wheel_unit.lto_priv.50+0x32>
 80085b0:	e7f6      	b.n	80085a0 <wheel_unit.lto_priv.50+0x10>
    uint16_t unit;
    if (mousekey_accel & (1<<0)) {
        unit = (MOUSEKEY_WHEEL_DELTA * mk_wheel_max_speed)/4;
    } else if (mousekey_accel & (1<<1)) {
        unit = (MOUSEKEY_WHEEL_DELTA * mk_wheel_max_speed)/2;
    } else if (mousekey_accel & (1<<2)) {
 80085b2:	075b      	lsls	r3, r3, #29
 80085b4:	d507      	bpl.n	80085c6 <wheel_unit.lto_priv.50+0x36>
        unit = (MOUSEKEY_WHEEL_DELTA * mk_wheel_max_speed);
 80085b6:	4b0d      	ldr	r3, [pc, #52]	; (80085ec <wheel_unit.lto_priv.50+0x5c>)
 80085b8:	7818      	ldrb	r0, [r3, #0]
    } else if (mousekey_repeat >= mk_wheel_time_to_max) {
        unit = MOUSEKEY_WHEEL_DELTA * mk_wheel_max_speed;
    } else {
        unit = (MOUSEKEY_WHEEL_DELTA * mk_wheel_max_speed * mousekey_repeat) / mk_wheel_time_to_max;
    }
    return (unit > MOUSEKEY_WHEEL_MAX ? MOUSEKEY_WHEEL_MAX : (unit == 0 ? 1 : unit));
 80085ba:	287f      	cmp	r0, #127	; 0x7f
 80085bc:	d9ef      	bls.n	800859e <wheel_unit.lto_priv.50+0xe>
 80085be:	207f      	movs	r0, #127	; 0x7f
 80085c0:	4770      	bx	lr
 80085c2:	2001      	movs	r0, #1
 80085c4:	4770      	bx	lr
        unit = (MOUSEKEY_WHEEL_DELTA * mk_wheel_max_speed)/4;
    } else if (mousekey_accel & (1<<1)) {
        unit = (MOUSEKEY_WHEEL_DELTA * mk_wheel_max_speed)/2;
    } else if (mousekey_accel & (1<<2)) {
        unit = (MOUSEKEY_WHEEL_DELTA * mk_wheel_max_speed);
    } else if (mousekey_repeat == 0) {
 80085c6:	4b0a      	ldr	r3, [pc, #40]	; (80085f0 <wheel_unit.lto_priv.50+0x60>)
 80085c8:	781b      	ldrb	r3, [r3, #0]
 80085ca:	b153      	cbz	r3, 80085e2 <wheel_unit.lto_priv.50+0x52>
        unit = MOUSEKEY_WHEEL_DELTA;
    } else if (mousekey_repeat >= mk_wheel_time_to_max) {
 80085cc:	4a09      	ldr	r2, [pc, #36]	; (80085f4 <wheel_unit.lto_priv.50+0x64>)
 80085ce:	7812      	ldrb	r2, [r2, #0]
 80085d0:	4293      	cmp	r3, r2
 80085d2:	d2f0      	bcs.n	80085b6 <wheel_unit.lto_priv.50+0x26>
        unit = MOUSEKEY_WHEEL_DELTA * mk_wheel_max_speed;
    } else {
        unit = (MOUSEKEY_WHEEL_DELTA * mk_wheel_max_speed * mousekey_repeat) / mk_wheel_time_to_max;
 80085d4:	4905      	ldr	r1, [pc, #20]	; (80085ec <wheel_unit.lto_priv.50+0x5c>)
 80085d6:	7808      	ldrb	r0, [r1, #0]
 80085d8:	fb03 f300 	mul.w	r3, r3, r0
 80085dc:	fb93 f0f2 	sdiv	r0, r3, r2
 80085e0:	e7eb      	b.n	80085ba <wheel_unit.lto_priv.50+0x2a>
    } else if (mousekey_accel & (1<<1)) {
        unit = (MOUSEKEY_WHEEL_DELTA * mk_wheel_max_speed)/2;
    } else if (mousekey_accel & (1<<2)) {
        unit = (MOUSEKEY_WHEEL_DELTA * mk_wheel_max_speed);
    } else if (mousekey_repeat == 0) {
        unit = MOUSEKEY_WHEEL_DELTA;
 80085e2:	2001      	movs	r0, #1
 80085e4:	e7dc      	b.n	80085a0 <wheel_unit.lto_priv.50+0x10>
 80085e6:	bf00      	nop
 80085e8:	20001538 	.word	0x20001538
 80085ec:	20001232 	.word	0x20001232
 80085f0:	2000154f 	.word	0x2000154f
 80085f4:	2000122e 	.word	0x2000122e
 80085f8:	f3af 8000 	nop.w
 80085fc:	f3af 8000 	nop.w

08008600 <move_unit.lto_priv.51>:


static uint8_t move_unit(void)
{
    uint16_t unit;
    if (mousekey_accel & (1<<0)) {
 8008600:	4b1b      	ldr	r3, [pc, #108]	; (8008670 <move_unit.lto_priv.51+0x70>)
 8008602:	781b      	ldrb	r3, [r3, #0]
 8008604:	07d9      	lsls	r1, r3, #31
 8008606:	d509      	bpl.n	800861c <move_unit.lto_priv.51+0x1c>
        unit = (MOUSEKEY_MOVE_DELTA * mk_max_speed)/4;
 8008608:	4b1a      	ldr	r3, [pc, #104]	; (8008674 <move_unit.lto_priv.51+0x74>)
 800860a:	7818      	ldrb	r0, [r3, #0]
 800860c:	eb00 0080 	add.w	r0, r0, r0, lsl #2
 8008610:	f3c0 008f 	ubfx	r0, r0, #2, #16
    } else if (mousekey_repeat >= mk_time_to_max) {
        unit = MOUSEKEY_MOVE_DELTA * mk_max_speed;
    } else {
        unit = (MOUSEKEY_MOVE_DELTA * mk_max_speed * mousekey_repeat) / mk_time_to_max;
    }
    return (unit > MOUSEKEY_MOVE_MAX ? MOUSEKEY_MOVE_MAX : (unit == 0 ? 1 : unit));
 8008614:	287f      	cmp	r0, #127	; 0x7f
 8008616:	d90b      	bls.n	8008630 <move_unit.lto_priv.51+0x30>
 8008618:	207f      	movs	r0, #127	; 0x7f
 800861a:	4770      	bx	lr
static uint8_t move_unit(void)
{
    uint16_t unit;
    if (mousekey_accel & (1<<0)) {
        unit = (MOUSEKEY_MOVE_DELTA * mk_max_speed)/4;
    } else if (mousekey_accel & (1<<1)) {
 800861c:	079a      	lsls	r2, r3, #30
 800861e:	d50a      	bpl.n	8008636 <move_unit.lto_priv.51+0x36>
        unit = (MOUSEKEY_MOVE_DELTA * mk_max_speed)/2;
 8008620:	4b14      	ldr	r3, [pc, #80]	; (8008674 <move_unit.lto_priv.51+0x74>)
 8008622:	7818      	ldrb	r0, [r3, #0]
 8008624:	eb00 0080 	add.w	r0, r0, r0, lsl #2
 8008628:	f3c0 004f 	ubfx	r0, r0, #1, #16
    } else if (mousekey_repeat >= mk_time_to_max) {
        unit = MOUSEKEY_MOVE_DELTA * mk_max_speed;
    } else {
        unit = (MOUSEKEY_MOVE_DELTA * mk_max_speed * mousekey_repeat) / mk_time_to_max;
    }
    return (unit > MOUSEKEY_MOVE_MAX ? MOUSEKEY_MOVE_MAX : (unit == 0 ? 1 : unit));
 800862c:	287f      	cmp	r0, #127	; 0x7f
 800862e:	d8f3      	bhi.n	8008618 <move_unit.lto_priv.51+0x18>
 8008630:	b978      	cbnz	r0, 8008652 <move_unit.lto_priv.51+0x52>
 8008632:	2001      	movs	r0, #1
}
 8008634:	4770      	bx	lr
    uint16_t unit;
    if (mousekey_accel & (1<<0)) {
        unit = (MOUSEKEY_MOVE_DELTA * mk_max_speed)/4;
    } else if (mousekey_accel & (1<<1)) {
        unit = (MOUSEKEY_MOVE_DELTA * mk_max_speed)/2;
    } else if (mousekey_accel & (1<<2)) {
 8008636:	075b      	lsls	r3, r3, #29
 8008638:	d406      	bmi.n	8008648 <move_unit.lto_priv.51+0x48>
        unit = (MOUSEKEY_MOVE_DELTA * mk_max_speed);
    } else if (mousekey_repeat == 0) {
 800863a:	4b0f      	ldr	r3, [pc, #60]	; (8008678 <move_unit.lto_priv.51+0x78>)
 800863c:	781b      	ldrb	r3, [r3, #0]
 800863e:	b153      	cbz	r3, 8008656 <move_unit.lto_priv.51+0x56>
        unit = MOUSEKEY_MOVE_DELTA;
    } else if (mousekey_repeat >= mk_time_to_max) {
 8008640:	4a0e      	ldr	r2, [pc, #56]	; (800867c <move_unit.lto_priv.51+0x7c>)
 8008642:	7810      	ldrb	r0, [r2, #0]
 8008644:	4283      	cmp	r3, r0
 8008646:	d308      	bcc.n	800865a <move_unit.lto_priv.51+0x5a>
    if (mousekey_accel & (1<<0)) {
        unit = (MOUSEKEY_MOVE_DELTA * mk_max_speed)/4;
    } else if (mousekey_accel & (1<<1)) {
        unit = (MOUSEKEY_MOVE_DELTA * mk_max_speed)/2;
    } else if (mousekey_accel & (1<<2)) {
        unit = (MOUSEKEY_MOVE_DELTA * mk_max_speed);
 8008648:	4b0a      	ldr	r3, [pc, #40]	; (8008674 <move_unit.lto_priv.51+0x74>)
 800864a:	7818      	ldrb	r0, [r3, #0]
 800864c:	eb00 0080 	add.w	r0, r0, r0, lsl #2
 8008650:	e7e0      	b.n	8008614 <move_unit.lto_priv.51+0x14>
 8008652:	b2c0      	uxtb	r0, r0
 8008654:	4770      	bx	lr
    } else if (mousekey_repeat == 0) {
 8008656:	2005      	movs	r0, #5
 8008658:	4770      	bx	lr
        unit = MOUSEKEY_MOVE_DELTA;
    } else if (mousekey_repeat >= mk_time_to_max) {
        unit = MOUSEKEY_MOVE_DELTA * mk_max_speed;
    } else {
        unit = (MOUSEKEY_MOVE_DELTA * mk_max_speed * mousekey_repeat) / mk_time_to_max;
 800865a:	4a06      	ldr	r2, [pc, #24]	; (8008674 <move_unit.lto_priv.51+0x74>)
 800865c:	7812      	ldrb	r2, [r2, #0]
 800865e:	eb02 0282 	add.w	r2, r2, r2, lsl #2
 8008662:	fb03 f302 	mul.w	r3, r3, r2
 8008666:	fb93 f0f0 	sdiv	r0, r3, r0
 800866a:	b280      	uxth	r0, r0
 800866c:	e7d2      	b.n	8008614 <move_unit.lto_priv.51+0x14>
 800866e:	bf00      	nop
 8008670:	20001538 	.word	0x20001538
 8008674:	2000122d 	.word	0x2000122d
 8008678:	2000154f 	.word	0x2000154f
 800867c:	20001230 	.word	0x20001230

08008680 <bootloader_jump>:
/* This code should be checked whether it runs correctly on platforms */
#define SYMVAL(sym) (uint32_t)(((uint8_t *)&(sym)) - ((uint8_t *)0))
extern uint32_t __ram0_end__;

void bootloader_jump(void) {
  *((unsigned long *)(SYMVAL(__ram0_end__) - 4)) = 0xDEADBEEF; // set magic flag => reset handler will jump into boot loader
 8008680:	4b07      	ldr	r3, [pc, #28]	; (80086a0 <bootloader_jump+0x20>)
 8008682:	4a08      	ldr	r2, [pc, #32]	; (80086a4 <bootloader_jump+0x24>)
 8008684:	601a      	str	r2, [r3, #0]
    This function acts as a special kind of Data Memory Barrier.
    It completes when all explicit memory accesses before this instruction complete.
 */
__attribute__((always_inline)) __STATIC_INLINE void __DSB(void)
{
  __ASM volatile ("dsb 0xF":::"memory");
 8008686:	f3bf 8f4f 	dsb	sy
__STATIC_INLINE void NVIC_SystemReset(void)
{
  __DSB();                                                          /* Ensure all outstanding memory accesses included
                                                                       buffered write are completed before reset */
  SCB->AIRCR  = (uint32_t)((0x5FAUL << SCB_AIRCR_VECTKEY_Pos)    |
                           (SCB->AIRCR & SCB_AIRCR_PRIGROUP_Msk) |
 800868a:	4907      	ldr	r1, [pc, #28]	; (80086a8 <bootloader_jump+0x28>)
 */
__STATIC_INLINE void NVIC_SystemReset(void)
{
  __DSB();                                                          /* Ensure all outstanding memory accesses included
                                                                       buffered write are completed before reset */
  SCB->AIRCR  = (uint32_t)((0x5FAUL << SCB_AIRCR_VECTKEY_Pos)    |
 800868c:	4b07      	ldr	r3, [pc, #28]	; (80086ac <bootloader_jump+0x2c>)
                           (SCB->AIRCR & SCB_AIRCR_PRIGROUP_Msk) |
 800868e:	68ca      	ldr	r2, [r1, #12]
 8008690:	f402 62e0 	and.w	r2, r2, #1792	; 0x700
 */
__STATIC_INLINE void NVIC_SystemReset(void)
{
  __DSB();                                                          /* Ensure all outstanding memory accesses included
                                                                       buffered write are completed before reset */
  SCB->AIRCR  = (uint32_t)((0x5FAUL << SCB_AIRCR_VECTKEY_Pos)    |
 8008694:	4313      	orrs	r3, r2
 8008696:	60cb      	str	r3, [r1, #12]
 8008698:	f3bf 8f4f 	dsb	sy

    No Operation does nothing. This instruction can be used for code alignment purposes.
 */
__attribute__((always_inline)) __STATIC_INLINE void __NOP(void)
{
  __ASM volatile ("nop");
 800869c:	bf00      	nop
 800869e:	e7fd      	b.n	800869c <bootloader_jump+0x1c>
 80086a0:	20004ffc 	.word	0x20004ffc
 80086a4:	deadbeef 	.word	0xdeadbeef
 80086a8:	e000ed00 	.word	0xe000ed00
 80086ac:	05fa0004 	.word	0x05fa0004

080086b0 <timer_read>:
 80086b0:	2320      	movs	r3, #32
 80086b2:	f383 8811 	msr	BASEPRI, r3
 *
 * @notapi
 */
static inline systime_t st_lld_get_counter(void) {

  return (systime_t)STM32_ST_TIM->CNT;
 80086b6:	f04f 4380 	mov.w	r3, #1073741824	; 0x40000000
 80086ba:	6a58      	ldr	r0, [r3, #36]	; 0x24
 80086bc:	2300      	movs	r3, #0
 80086be:	f383 8811 	msr	BASEPRI, r3

void timer_clear(void) {}

uint16_t timer_read(void)
{
    return (uint16_t)ST2MS(chVTGetSystemTime());
 80086c2:	f44f 737a 	mov.w	r3, #1000	; 0x3e8
 80086c6:	b280      	uxth	r0, r0
 80086c8:	fb03 f000 	mul.w	r0, r3, r0
 80086cc:	4b03      	ldr	r3, [pc, #12]	; (80086dc <timer_read+0x2c>)
 80086ce:	f200 70cf 	addw	r0, r0, #1999	; 0x7cf
 80086d2:	fba3 3000 	umull	r3, r0, r3, r0
}
 80086d6:	f3c0 10cf 	ubfx	r0, r0, #7, #16
 80086da:	4770      	bx	lr
 80086dc:	10624dd3 	.word	0x10624dd3

080086e0 <tfp_printf>:
    stdout_putp=putp;
    }

void tfp_printf(char *fmt, ...)
    {
 80086e0:	b40f      	push	{r0, r1, r2, r3}
 80086e2:	e92d 47f0 	stmdb	sp!, {r4, r5, r6, r7, r8, r9, sl, lr}
 80086e6:	b086      	sub	sp, #24
 80086e8:	ae0e      	add	r6, sp, #56	; 0x38
    va_list va;
    va_start(va,fmt);
    tfp_format(stdout_putp,stdout_putf,fmt,va);
 80086ea:	4a78      	ldr	r2, [pc, #480]	; (80088cc <tfp_printf+0x1ec>)
 80086ec:	4b78      	ldr	r3, [pc, #480]	; (80088d0 <tfp_printf+0x1f0>)
    stdout_putf=putf;
    stdout_putp=putp;
    }

void tfp_printf(char *fmt, ...)
    {
 80086ee:	f856 ab04 	ldr.w	sl, [r6], #4
    va_list va;
    va_start(va,fmt);
    tfp_format(stdout_putp,stdout_putf,fmt,va);
 80086f2:	f8d2 8000 	ldr.w	r8, [r2]
 80086f6:	681f      	ldr	r7, [r3, #0]
    }

void tfp_printf(char *fmt, ...)
    {
    va_list va;
    va_start(va,fmt);
 80086f8:	9602      	str	r6, [sp, #8]
#ifdef  PRINTF_LONG_SUPPORT
                    if (lng)
                        uli2a(va_arg(va, unsigned long int),10,0,bf);
                    else
#endif
                    ui2a(va_arg(va, unsigned int),10,0,bf);
 80086fa:	ac03      	add	r4, sp, #12
    char bf[12];
    
    char ch;


    while ((ch=*(fmt++))) {
 80086fc:	f89a 1000 	ldrb.w	r1, [sl]
 8008700:	b149      	cbz	r1, 8008716 <tfp_printf+0x36>
        if (ch!='%') 
 8008702:	2925      	cmp	r1, #37	; 0x25
 8008704:	d00c      	beq.n	8008720 <tfp_printf+0x40>
            putf(putp,ch);
 8008706:	4640      	mov	r0, r8
    char bf[12];
    
    char ch;


    while ((ch=*(fmt++))) {
 8008708:	f10a 0a01 	add.w	sl, sl, #1
        if (ch!='%') 
            putf(putp,ch);
 800870c:	47b8      	blx	r7
    char bf[12];
    
    char ch;


    while ((ch=*(fmt++))) {
 800870e:	f89a 1000 	ldrb.w	r1, [sl]
 8008712:	2900      	cmp	r1, #0
 8008714:	d1f5      	bne.n	8008702 <tfp_printf+0x22>
    {
    va_list va;
    va_start(va,fmt);
    tfp_format(stdout_putp,stdout_putf,fmt,va);
    va_end(va);
    }
 8008716:	b006      	add	sp, #24
 8008718:	e8bd 47f0 	ldmia.w	sp!, {r4, r5, r6, r7, r8, r9, sl, lr}
 800871c:	b004      	add	sp, #16
 800871e:	4770      	bx	lr
            char lz=0;
#ifdef  PRINTF_LONG_SUPPORT
            char lng=0;
#endif
            int w=0;
            ch=*(fmt++);
 8008720:	f89a 3001 	ldrb.w	r3, [sl, #1]
            if (ch=='0') {
 8008724:	2b30      	cmp	r3, #48	; 0x30
 8008726:	d040      	beq.n	80087aa <tfp_printf+0xca>
            char lz=0;
#ifdef  PRINTF_LONG_SUPPORT
            char lng=0;
#endif
            int w=0;
            ch=*(fmt++);
 8008728:	f10a 0e02 	add.w	lr, sl, #2

    while ((ch=*(fmt++))) {
        if (ch!='%') 
            putf(putp,ch);
        else {
            char lz=0;
 800872c:	f04f 0900 	mov.w	r9, #0
            ch=*(fmt++);
            if (ch=='0') {
                ch=*(fmt++);
                lz=1;
                }
            if (ch>='0' && ch<='9') {
 8008730:	f1a3 0230 	sub.w	r2, r3, #48	; 0x30
 8008734:	b2d1      	uxtb	r1, r2
 8008736:	2909      	cmp	r1, #9
 8008738:	f04f 0500 	mov.w	r5, #0
 800873c:	d927      	bls.n	800878e <tfp_printf+0xae>
                ch=a2i(ch,&fmt,10,&w);
                }
#ifdef  PRINTF_LONG_SUPPORT
            if (ch=='l') {
 800873e:	2b6c      	cmp	r3, #108	; 0x6c
 8008740:	d03a      	beq.n	80087b8 <tfp_printf+0xd8>
                ch=*(fmt++);
                lng=1;
            }
#endif
            switch (ch) {
 8008742:	2b63      	cmp	r3, #99	; 0x63
 8008744:	d069      	beq.n	800881a <tfp_printf+0x13a>
 8008746:	d94d      	bls.n	80087e4 <tfp_printf+0x104>
 8008748:	2b73      	cmp	r3, #115	; 0x73
 800874a:	d054      	beq.n	80087f6 <tfp_printf+0x116>
 800874c:	d96c      	bls.n	8008828 <tfp_printf+0x148>
 800874e:	2b75      	cmp	r3, #117	; 0x75
 8008750:	d177      	bne.n	8008842 <tfp_printf+0x162>
#ifdef  PRINTF_LONG_SUPPORT
                    if (lng)
                        uli2a(va_arg(va, unsigned long int),10,0,bf);
                    else
#endif
                    ui2a(va_arg(va, unsigned int),10,0,bf);
 8008752:	f106 0c04 	add.w	ip, r6, #4
 8008756:	6830      	ldr	r0, [r6, #0]
 8008758:	210a      	movs	r1, #10
 800875a:	2200      	movs	r2, #0
 800875c:	4623      	mov	r3, r4
            if (ch=='l') {
                ch=*(fmt++);
                lng=1;
            }
#endif
            switch (ch) {
 800875e:	46f2      	mov	sl, lr
#ifdef  PRINTF_LONG_SUPPORT
                    if (lng)
                        uli2a(va_arg(va, unsigned long int),10,0,bf);
                    else
#endif
                    ui2a(va_arg(va, unsigned int),10,0,bf);
 8008760:	4666      	mov	r6, ip
 8008762:	f000 fc15 	bl	8008f90 <ui2a.lto_priv.33>
                    if (lng)
                        uli2a(va_arg(va, unsigned long int),16,(ch=='X'),bf);
                    else
#endif
                    ui2a(va_arg(va, unsigned int),16,(ch=='X'),bf);
                    putchw(putp,putf,w,lz,bf);
 8008766:	9400      	str	r4, [sp, #0]
 8008768:	462a      	mov	r2, r5
 800876a:	464b      	mov	r3, r9
 800876c:	4640      	mov	r0, r8
 800876e:	4639      	mov	r1, r7
 8008770:	f000 fbd6 	bl	8008f20 <putchw.lto_priv.32>
 8008774:	e7c2      	b.n	80086fc <tfp_printf+0x1c>
static int a2d(char ch)
    {
    if (ch>='0' && ch<='9') 
        return ch-'0';
    else if (ch>='a' && ch<='f')
        return ch-'a'+10;
 8008776:	f1a3 0257 	sub.w	r2, r3, #87	; 0x57
    {
    char* p= *src;
    int num=0;
    int digit;
    while ((digit=a2d(ch))>=0) {
        if (digit>base) break;
 800877a:	2a0a      	cmp	r2, #10
 800877c:	dcdf      	bgt.n	800873e <tfp_printf+0x5e>
        num=num*base+digit;
        ch=*p++;
 800877e:	f81e 3b01 	ldrb.w	r3, [lr], #1
    char* p= *src;
    int num=0;
    int digit;
    while ((digit=a2d(ch))>=0) {
        if (digit>base) break;
        num=num*base+digit;
 8008782:	eb05 0585 	add.w	r5, r5, r5, lsl #2
 8008786:	eb02 0545 	add.w	r5, r2, r5, lsl #1
 800878a:	f1a3 0230 	sub.w	r2, r3, #48	; 0x30
    ui2a(num,10,0,bf);
    }

static int a2d(char ch)
    {
    if (ch>='0' && ch<='9') 
 800878e:	b2d1      	uxtb	r1, r2
 8008790:	2909      	cmp	r1, #9
        return ch-'0';
    else if (ch>='a' && ch<='f')
 8008792:	f1a3 0061 	sub.w	r0, r3, #97	; 0x61
    ui2a(num,10,0,bf);
    }

static int a2d(char ch)
    {
    if (ch>='0' && ch<='9') 
 8008796:	d9f2      	bls.n	800877e <tfp_printf+0x9e>
        return ch-'0';
    else if (ch>='a' && ch<='f')
 8008798:	2805      	cmp	r0, #5
        return ch-'a'+10;
    else if (ch>='A' && ch<='F')
 800879a:	f1a3 0241 	sub.w	r2, r3, #65	; 0x41

static int a2d(char ch)
    {
    if (ch>='0' && ch<='9') 
        return ch-'0';
    else if (ch>='a' && ch<='f')
 800879e:	d9ea      	bls.n	8008776 <tfp_printf+0x96>
        return ch-'a'+10;
    else if (ch>='A' && ch<='F')
 80087a0:	2a05      	cmp	r2, #5
 80087a2:	d8cc      	bhi.n	800873e <tfp_printf+0x5e>
        return ch-'A'+10;
 80087a4:	f1a3 0237 	sub.w	r2, r3, #55	; 0x37
 80087a8:	e7e7      	b.n	800877a <tfp_printf+0x9a>
            char lng=0;
#endif
            int w=0;
            ch=*(fmt++);
            if (ch=='0') {
                ch=*(fmt++);
 80087aa:	f89a 3002 	ldrb.w	r3, [sl, #2]
 80087ae:	f10a 0e03 	add.w	lr, sl, #3
                lz=1;
 80087b2:	f04f 0901 	mov.w	r9, #1
 80087b6:	e7bb      	b.n	8008730 <tfp_printf+0x50>
            if (ch>='0' && ch<='9') {
                ch=a2i(ch,&fmt,10,&w);
                }
#ifdef  PRINTF_LONG_SUPPORT
            if (ch=='l') {
                ch=*(fmt++);
 80087b8:	f89e 2000 	ldrb.w	r2, [lr]
 80087bc:	f10e 0a01 	add.w	sl, lr, #1
                lng=1;
            }
#endif
            switch (ch) {
 80087c0:	2a63      	cmp	r2, #99	; 0x63
 80087c2:	d029      	beq.n	8008818 <tfp_printf+0x138>
 80087c4:	d94c      	bls.n	8008860 <tfp_printf+0x180>
 80087c6:	2a73      	cmp	r2, #115	; 0x73
 80087c8:	d014      	beq.n	80087f4 <tfp_printf+0x114>
 80087ca:	d964      	bls.n	8008896 <tfp_printf+0x1b6>
 80087cc:	2a75      	cmp	r2, #117	; 0x75
 80087ce:	d153      	bne.n	8008878 <tfp_printf+0x198>
                case 0: 
                    goto abort;
                case 'u' : {
#ifdef  PRINTF_LONG_SUPPORT
                    if (lng)
                        uli2a(va_arg(va, unsigned long int),10,0,bf);
 80087d0:	f106 0e04 	add.w	lr, r6, #4
 80087d4:	6830      	ldr	r0, [r6, #0]
 80087d6:	210a      	movs	r1, #10
 80087d8:	2200      	movs	r2, #0
 80087da:	4623      	mov	r3, r4
 80087dc:	4676      	mov	r6, lr
 80087de:	f000 fc17 	bl	8009010 <uli2a.lto_priv.34>
 80087e2:	e7c0      	b.n	8008766 <tfp_printf+0x86>
            if (ch=='l') {
                ch=*(fmt++);
                lng=1;
            }
#endif
            switch (ch) {
 80087e4:	2b25      	cmp	r3, #37	; 0x25
 80087e6:	d012      	beq.n	800880e <tfp_printf+0x12e>
 80087e8:	2b58      	cmp	r3, #88	; 0x58
 80087ea:	d02c      	beq.n	8008846 <tfp_printf+0x166>
 80087ec:	2b00      	cmp	r3, #0
 80087ee:	d092      	beq.n	8008716 <tfp_printf+0x36>
 80087f0:	46f2      	mov	sl, lr
 80087f2:	e783      	b.n	80086fc <tfp_printf+0x1c>
            if (ch>='0' && ch<='9') {
                ch=a2i(ch,&fmt,10,&w);
                }
#ifdef  PRINTF_LONG_SUPPORT
            if (ch=='l') {
                ch=*(fmt++);
 80087f4:	46d6      	mov	lr, sl
                    break;
                case 'c' : 
                    putf(putp,(char)(va_arg(va, int)));
                    break;
                case 's' : 
                    putchw(putp,putf,w,0,va_arg(va, char*));
 80087f6:	6833      	ldr	r3, [r6, #0]
 80087f8:	462a      	mov	r2, r5
 80087fa:	9300      	str	r3, [sp, #0]
 80087fc:	4640      	mov	r0, r8
 80087fe:	4639      	mov	r1, r7
 8008800:	2300      	movs	r3, #0
 8008802:	3604      	adds	r6, #4
 8008804:	46f2      	mov	sl, lr
 8008806:	f000 fb8b 	bl	8008f20 <putchw.lto_priv.32>
 800880a:	e777      	b.n	80086fc <tfp_printf+0x1c>
            if (ch>='0' && ch<='9') {
                ch=a2i(ch,&fmt,10,&w);
                }
#ifdef  PRINTF_LONG_SUPPORT
            if (ch=='l') {
                ch=*(fmt++);
 800880c:	46d6      	mov	lr, sl
                    break;
                case 's' : 
                    putchw(putp,putf,w,0,va_arg(va, char*));
                    break;
                case '%' :
                    putf(putp,ch);
 800880e:	4640      	mov	r0, r8
 8008810:	2125      	movs	r1, #37	; 0x25
 8008812:	46f2      	mov	sl, lr
 8008814:	47b8      	blx	r7
 8008816:	e771      	b.n	80086fc <tfp_printf+0x1c>
            if (ch>='0' && ch<='9') {
                ch=a2i(ch,&fmt,10,&w);
                }
#ifdef  PRINTF_LONG_SUPPORT
            if (ch=='l') {
                ch=*(fmt++);
 8008818:	46d6      	mov	lr, sl
#endif
                    ui2a(va_arg(va, unsigned int),16,(ch=='X'),bf);
                    putchw(putp,putf,w,lz,bf);
                    break;
                case 'c' : 
                    putf(putp,(char)(va_arg(va, int)));
 800881a:	1d33      	adds	r3, r6, #4
 800881c:	7831      	ldrb	r1, [r6, #0]
 800881e:	4640      	mov	r0, r8
 8008820:	46f2      	mov	sl, lr
 8008822:	461e      	mov	r6, r3
 8008824:	47b8      	blx	r7
 8008826:	e769      	b.n	80086fc <tfp_printf+0x1c>
            if (ch=='l') {
                ch=*(fmt++);
                lng=1;
            }
#endif
            switch (ch) {
 8008828:	2b64      	cmp	r3, #100	; 0x64
 800882a:	d1e1      	bne.n	80087f0 <tfp_printf+0x110>
#ifdef  PRINTF_LONG_SUPPORT
                    if (lng)
                        li2a(va_arg(va, unsigned long int),bf);
                    else
#endif
                    i2a(va_arg(va, int),bf);
 800882c:	6830      	ldr	r0, [r6, #0]
 800882e:	3604      	adds	r6, #4
    *bf=0;
    }

static void i2a (int num, char * bf)
    {
    if (num<0) {
 8008830:	2800      	cmp	r0, #0
 8008832:	db44      	blt.n	80088be <tfp_printf+0x1de>
 8008834:	4623      	mov	r3, r4
        num=-num;
        *bf++ = '-';
        }
    ui2a(num,10,0,bf);
 8008836:	210a      	movs	r1, #10
 8008838:	2200      	movs	r2, #0
 800883a:	46f2      	mov	sl, lr
 800883c:	f000 fba8 	bl	8008f90 <ui2a.lto_priv.33>
 8008840:	e791      	b.n	8008766 <tfp_printf+0x86>
            if (ch=='l') {
                ch=*(fmt++);
                lng=1;
            }
#endif
            switch (ch) {
 8008842:	2b78      	cmp	r3, #120	; 0x78
 8008844:	d1d4      	bne.n	80087f0 <tfp_printf+0x110>
#ifdef  PRINTF_LONG_SUPPORT
                    if (lng)
                        uli2a(va_arg(va, unsigned long int),16,(ch=='X'),bf);
                    else
#endif
                    ui2a(va_arg(va, unsigned int),16,(ch=='X'),bf);
 8008846:	f1a3 0258 	sub.w	r2, r3, #88	; 0x58
 800884a:	fab2 f282 	clz	r2, r2
 800884e:	6830      	ldr	r0, [r6, #0]
 8008850:	0952      	lsrs	r2, r2, #5
 8008852:	2110      	movs	r1, #16
 8008854:	4623      	mov	r3, r4
 8008856:	3604      	adds	r6, #4
 8008858:	46f2      	mov	sl, lr
 800885a:	f000 fb99 	bl	8008f90 <ui2a.lto_priv.33>
 800885e:	e782      	b.n	8008766 <tfp_printf+0x86>
            if (ch=='l') {
                ch=*(fmt++);
                lng=1;
            }
#endif
            switch (ch) {
 8008860:	2a25      	cmp	r2, #37	; 0x25
 8008862:	d0d3      	beq.n	800880c <tfp_printf+0x12c>
 8008864:	2a58      	cmp	r2, #88	; 0x58
 8008866:	d00a      	beq.n	800887e <tfp_printf+0x19e>
 8008868:	2a00      	cmp	r2, #0
 800886a:	f47f af47 	bne.w	80086fc <tfp_printf+0x1c>
    {
    va_list va;
    va_start(va,fmt);
    tfp_format(stdout_putp,stdout_putf,fmt,va);
    va_end(va);
    }
 800886e:	b006      	add	sp, #24
 8008870:	e8bd 47f0 	ldmia.w	sp!, {r4, r5, r6, r7, r8, r9, sl, lr}
 8008874:	b004      	add	sp, #16
 8008876:	4770      	bx	lr
            if (ch=='l') {
                ch=*(fmt++);
                lng=1;
            }
#endif
            switch (ch) {
 8008878:	2a78      	cmp	r2, #120	; 0x78
 800887a:	f47f af3f 	bne.w	80086fc <tfp_printf+0x1c>
                    break;
                    }
                case 'x': case 'X' : 
#ifdef  PRINTF_LONG_SUPPORT
                    if (lng)
                        uli2a(va_arg(va, unsigned long int),16,(ch=='X'),bf);
 800887e:	f1a2 0258 	sub.w	r2, r2, #88	; 0x58
 8008882:	fab2 f282 	clz	r2, r2
 8008886:	6830      	ldr	r0, [r6, #0]
 8008888:	0952      	lsrs	r2, r2, #5
 800888a:	2110      	movs	r1, #16
 800888c:	4623      	mov	r3, r4
 800888e:	3604      	adds	r6, #4
 8008890:	f000 fbbe 	bl	8009010 <uli2a.lto_priv.34>
 8008894:	e767      	b.n	8008766 <tfp_printf+0x86>
            if (ch=='l') {
                ch=*(fmt++);
                lng=1;
            }
#endif
            switch (ch) {
 8008896:	2a64      	cmp	r2, #100	; 0x64
 8008898:	f47f af30 	bne.w	80086fc <tfp_printf+0x1c>
 800889c:	6830      	ldr	r0, [r6, #0]
                    break;
                    }
                case 'd' :  {
#ifdef  PRINTF_LONG_SUPPORT
                    if (lng)
                        li2a(va_arg(va, unsigned long int),bf);
 800889e:	3604      	adds	r6, #4
    *bf=0;
    }

static void li2a (long num, char * bf)
    {
    if (num<0) {
 80088a0:	2800      	cmp	r0, #0
 80088a2:	db05      	blt.n	80088b0 <tfp_printf+0x1d0>
 80088a4:	4623      	mov	r3, r4
        num=-num;
        *bf++ = '-';
        }
    uli2a(num,10,0,bf);
 80088a6:	210a      	movs	r1, #10
 80088a8:	2200      	movs	r2, #0
 80088aa:	f000 fbb1 	bl	8009010 <uli2a.lto_priv.34>
 80088ae:	e75a      	b.n	8008766 <tfp_printf+0x86>

static void li2a (long num, char * bf)
    {
    if (num<0) {
        num=-num;
        *bf++ = '-';
 80088b0:	232d      	movs	r3, #45	; 0x2d
 80088b2:	f88d 300c 	strb.w	r3, [sp, #12]
    }

static void li2a (long num, char * bf)
    {
    if (num<0) {
        num=-num;
 80088b6:	4240      	negs	r0, r0
        *bf++ = '-';
 80088b8:	f10d 030d 	add.w	r3, sp, #13
 80088bc:	e7f3      	b.n	80088a6 <tfp_printf+0x1c6>

static void i2a (int num, char * bf)
    {
    if (num<0) {
        num=-num;
        *bf++ = '-';
 80088be:	232d      	movs	r3, #45	; 0x2d
 80088c0:	f88d 300c 	strb.w	r3, [sp, #12]
    }

static void i2a (int num, char * bf)
    {
    if (num<0) {
        num=-num;
 80088c4:	4240      	negs	r0, r0
        *bf++ = '-';
 80088c6:	f10d 030d 	add.w	r3, sp, #13
 80088ca:	e7b4      	b.n	8008836 <tfp_printf+0x156>
 80088cc:	20001540 	.word	0x20001540
 80088d0:	20001548 	.word	0x20001548
 80088d4:	f3af 8000 	nop.w
 80088d8:	f3af 8000 	nop.w
 80088dc:	f3af 8000 	nop.w

080088e0 <switch_default_layer>:
    }
    return 0;
}

static void switch_default_layer(uint8_t layer)
{
 80088e0:	b510      	push	{r4, lr}
 80088e2:	4604      	mov	r4, r0
    xprintf("L%d\n", layer);
 80088e4:	4808      	ldr	r0, [pc, #32]	; (8008908 <switch_default_layer+0x28>)
 80088e6:	4621      	mov	r1, r4
 80088e8:	f7ff fefa 	bl	80086e0 <tfp_printf>

static void default_layer_state_set(uint32_t state)
{
    debug("default_layer_state: ");
    default_layer_debug(); debug(" to ");
    default_layer_state = state;
 80088ec:	4a07      	ldr	r2, [pc, #28]	; (800890c <switch_default_layer+0x2c>)
    default_layer_set(1UL<<layer);
 80088ee:	2301      	movs	r3, #1
 80088f0:	40a3      	lsls	r3, r4
 80088f2:	6013      	str	r3, [r2, #0]
    default_layer_debug(); debug("\n");
    clear_keyboard_but_mods(); // To avoid stuck keys
 80088f4:	f000 ff04 	bl	8009700 <clear_keyboard_but_mods>
/* modifier */
uint8_t get_mods(void) { return real_mods; }
void add_mods(uint8_t mods) { real_mods |= mods; }
void del_mods(uint8_t mods) { real_mods &= ~mods; }
void set_mods(uint8_t mods) { real_mods = mods; }
void clear_mods(void) { real_mods = 0; }
 80088f8:	4b05      	ldr	r3, [pc, #20]	; (8008910 <switch_default_layer+0x30>)
 80088fa:	2200      	movs	r2, #0
 80088fc:	701a      	strb	r2, [r3, #0]
    clear_keyboard();
}
 80088fe:	e8bd 4010 	ldmia.w	sp!, {r4, lr}
}

void clear_keyboard(void)
{
    clear_mods();
    clear_keyboard_but_mods();
 8008902:	f000 befd 	b.w	8009700 <clear_keyboard_but_mods>
 8008906:	bf00      	nop
 8008908:	0800a320 	.word	0x0800a320
 800890c:	2000153c 	.word	0x2000153c
 8008910:	2000154e 	.word	0x2000154e
 8008914:	f3af 8000 	nop.w
 8008918:	f3af 8000 	nop.w
 800891c:	f3af 8000 	nop.w

08008920 <mousekey_console_help.lto_priv.44>:
            break;
    }
}

static void mousekey_console_help(void)
{
 8008920:	b508      	push	{r3, lr}
    print("\n\t- Mousekey -\n"
 8008922:	4805      	ldr	r0, [pc, #20]	; (8008938 <mousekey_console_help.lto_priv.44+0x18>)
 8008924:	f7ff fedc 	bl	80086e0 <tfp_printf>
          "pgdown:	-10\n"
          "\n"
          "speed = delta * max_speed * (repeat / time_to_max)\n");
    xprintf("where delta: cursor=%d, wheel=%d\n" 
            "See http://en.wikipedia.org/wiki/Mouse_keys\n", MOUSEKEY_MOVE_DELTA,  MOUSEKEY_WHEEL_DELTA);
}
 8008928:	e8bd 4008 	ldmia.w	sp!, {r3, lr}
          "down:	-1\n"
          "pgup:	+10\n"
          "pgdown:	-10\n"
          "\n"
          "speed = delta * max_speed * (repeat / time_to_max)\n");
    xprintf("where delta: cursor=%d, wheel=%d\n" 
 800892c:	4803      	ldr	r0, [pc, #12]	; (800893c <mousekey_console_help.lto_priv.44+0x1c>)
 800892e:	2105      	movs	r1, #5
 8008930:	2201      	movs	r2, #1
 8008932:	f7ff bed5 	b.w	80086e0 <tfp_printf>
 8008936:	bf00      	nop
 8008938:	0800a328 	.word	0x0800a328
 800893c:	0800a424 	.word	0x0800a424

08008940 <mousekey_param_dec.lto_priv.42>:
    }
}

static void mousekey_param_dec(uint8_t param, uint8_t dec)
{
    switch (param) {
 8008940:	3801      	subs	r0, #1
 8008942:	2805      	cmp	r0, #5
 8008944:	d840      	bhi.n	80089c8 <mousekey_param_dec.lto_priv.42+0x88>
 8008946:	e8df f000 	tbb	[pc, r0]
 800894a:	170d      	.short	0x170d
 800894c:	0335212b 	.word	0x0335212b
            else
                mk_wheel_max_speed = 0;
            PRINT_SET_VAL(mk_wheel_max_speed);
            break;
        case 6:
            if (mk_wheel_time_to_max > dec)
 8008950:	4a2a      	ldr	r2, [pc, #168]	; (80089fc <mousekey_param_dec.lto_priv.42+0xbc>)
 8008952:	7813      	ldrb	r3, [r2, #0]
 8008954:	4299      	cmp	r1, r3
 8008956:	d238      	bcs.n	80089ca <mousekey_param_dec.lto_priv.42+0x8a>
                mk_wheel_time_to_max -= dec;
 8008958:	1a59      	subs	r1, r3, r1
 800895a:	b2c9      	uxtb	r1, r1
 800895c:	7011      	strb	r1, [r2, #0]
            else
                mk_wheel_time_to_max = 0;
            PRINT_SET_VAL(mk_wheel_time_to_max);
 800895e:	4828      	ldr	r0, [pc, #160]	; (8008a00 <mousekey_param_dec.lto_priv.42+0xc0>)
 8008960:	f7ff bebe 	b.w	80086e0 <tfp_printf>

static void mousekey_param_dec(uint8_t param, uint8_t dec)
{
    switch (param) {
        case 1:
            if (mk_delay > dec)
 8008964:	4a27      	ldr	r2, [pc, #156]	; (8008a04 <mousekey_param_dec.lto_priv.42+0xc4>)
 8008966:	7813      	ldrb	r3, [r2, #0]
 8008968:	428b      	cmp	r3, r1
 800896a:	d936      	bls.n	80089da <mousekey_param_dec.lto_priv.42+0x9a>
                mk_delay -= dec;
 800896c:	1a59      	subs	r1, r3, r1
 800896e:	b2c9      	uxtb	r1, r1
 8008970:	7011      	strb	r1, [r2, #0]
            else
                mk_delay = 0;
            PRINT_SET_VAL(mk_delay);
 8008972:	4825      	ldr	r0, [pc, #148]	; (8008a08 <mousekey_param_dec.lto_priv.42+0xc8>)
 8008974:	f7ff beb4 	b.w	80086e0 <tfp_printf>
            break;
        case 2:
            if (mk_interval > dec)
 8008978:	4a24      	ldr	r2, [pc, #144]	; (8008a0c <mousekey_param_dec.lto_priv.42+0xcc>)
 800897a:	7813      	ldrb	r3, [r2, #0]
 800897c:	4299      	cmp	r1, r3
 800897e:	d234      	bcs.n	80089ea <mousekey_param_dec.lto_priv.42+0xaa>
                mk_interval -= dec;
 8008980:	1a59      	subs	r1, r3, r1
 8008982:	b2c9      	uxtb	r1, r1
 8008984:	7011      	strb	r1, [r2, #0]
            else
                mk_interval = 0;
            PRINT_SET_VAL(mk_interval);
 8008986:	4822      	ldr	r0, [pc, #136]	; (8008a10 <mousekey_param_dec.lto_priv.42+0xd0>)
 8008988:	f7ff beaa 	b.w	80086e0 <tfp_printf>
            else
                mk_max_speed = 0;
            PRINT_SET_VAL(mk_max_speed);
            break;
        case 4:
            if (mk_time_to_max > dec)
 800898c:	4a21      	ldr	r2, [pc, #132]	; (8008a14 <mousekey_param_dec.lto_priv.42+0xd4>)
 800898e:	7813      	ldrb	r3, [r2, #0]
 8008990:	4299      	cmp	r1, r3
 8008992:	d226      	bcs.n	80089e2 <mousekey_param_dec.lto_priv.42+0xa2>
                mk_time_to_max -= dec;
 8008994:	1a59      	subs	r1, r3, r1
 8008996:	b2c9      	uxtb	r1, r1
 8008998:	7011      	strb	r1, [r2, #0]
            else
                mk_time_to_max = 0;
            PRINT_SET_VAL(mk_time_to_max);
 800899a:	481f      	ldr	r0, [pc, #124]	; (8008a18 <mousekey_param_dec.lto_priv.42+0xd8>)
 800899c:	f7ff bea0 	b.w	80086e0 <tfp_printf>
            else
                mk_interval = 0;
            PRINT_SET_VAL(mk_interval);
            break;
        case 3:
            if (mk_max_speed > dec)
 80089a0:	4a1e      	ldr	r2, [pc, #120]	; (8008a1c <mousekey_param_dec.lto_priv.42+0xdc>)
 80089a2:	7813      	ldrb	r3, [r2, #0]
 80089a4:	4299      	cmp	r1, r3
 80089a6:	d224      	bcs.n	80089f2 <mousekey_param_dec.lto_priv.42+0xb2>
                mk_max_speed -= dec;
 80089a8:	1a59      	subs	r1, r3, r1
 80089aa:	b2c9      	uxtb	r1, r1
 80089ac:	7011      	strb	r1, [r2, #0]
            else
                mk_max_speed = 0;
            PRINT_SET_VAL(mk_max_speed);
 80089ae:	481c      	ldr	r0, [pc, #112]	; (8008a20 <mousekey_param_dec.lto_priv.42+0xe0>)
 80089b0:	f7ff be96 	b.w	80086e0 <tfp_printf>
            else
                mk_time_to_max = 0;
            PRINT_SET_VAL(mk_time_to_max);
            break;
        case 5:
            if (mk_wheel_max_speed > dec)
 80089b4:	4a1b      	ldr	r2, [pc, #108]	; (8008a24 <mousekey_param_dec.lto_priv.42+0xe4>)
 80089b6:	7813      	ldrb	r3, [r2, #0]
 80089b8:	4299      	cmp	r1, r3
 80089ba:	d20a      	bcs.n	80089d2 <mousekey_param_dec.lto_priv.42+0x92>
                mk_wheel_max_speed -= dec;
 80089bc:	1a59      	subs	r1, r3, r1
 80089be:	b2c9      	uxtb	r1, r1
 80089c0:	7011      	strb	r1, [r2, #0]
            else
                mk_wheel_max_speed = 0;
            PRINT_SET_VAL(mk_wheel_max_speed);
 80089c2:	4819      	ldr	r0, [pc, #100]	; (8008a28 <mousekey_param_dec.lto_priv.42+0xe8>)
 80089c4:	f7ff be8c 	b.w	80086e0 <tfp_printf>
 80089c8:	4770      	bx	lr
            break;
        case 6:
            if (mk_wheel_time_to_max > dec)
                mk_wheel_time_to_max -= dec;
            else
                mk_wheel_time_to_max = 0;
 80089ca:	2300      	movs	r3, #0
 80089cc:	4619      	mov	r1, r3
 80089ce:	7013      	strb	r3, [r2, #0]
 80089d0:	e7c5      	b.n	800895e <mousekey_param_dec.lto_priv.42+0x1e>
            break;
        case 5:
            if (mk_wheel_max_speed > dec)
                mk_wheel_max_speed -= dec;
            else
                mk_wheel_max_speed = 0;
 80089d2:	2300      	movs	r3, #0
 80089d4:	4619      	mov	r1, r3
 80089d6:	7013      	strb	r3, [r2, #0]
 80089d8:	e7f3      	b.n	80089c2 <mousekey_param_dec.lto_priv.42+0x82>
    switch (param) {
        case 1:
            if (mk_delay > dec)
                mk_delay -= dec;
            else
                mk_delay = 0;
 80089da:	2300      	movs	r3, #0
 80089dc:	4619      	mov	r1, r3
 80089de:	7013      	strb	r3, [r2, #0]
 80089e0:	e7c7      	b.n	8008972 <mousekey_param_dec.lto_priv.42+0x32>
            break;
        case 4:
            if (mk_time_to_max > dec)
                mk_time_to_max -= dec;
            else
                mk_time_to_max = 0;
 80089e2:	2300      	movs	r3, #0
 80089e4:	4619      	mov	r1, r3
 80089e6:	7013      	strb	r3, [r2, #0]
 80089e8:	e7d7      	b.n	800899a <mousekey_param_dec.lto_priv.42+0x5a>
            break;
        case 2:
            if (mk_interval > dec)
                mk_interval -= dec;
            else
                mk_interval = 0;
 80089ea:	2300      	movs	r3, #0
 80089ec:	4619      	mov	r1, r3
 80089ee:	7013      	strb	r3, [r2, #0]
 80089f0:	e7c9      	b.n	8008986 <mousekey_param_dec.lto_priv.42+0x46>
            break;
        case 3:
            if (mk_max_speed > dec)
                mk_max_speed -= dec;
            else
                mk_max_speed = 0;
 80089f2:	2300      	movs	r3, #0
 80089f4:	4619      	mov	r1, r3
 80089f6:	7013      	strb	r3, [r2, #0]
 80089f8:	e7d9      	b.n	80089ae <mousekey_param_dec.lto_priv.42+0x6e>
 80089fa:	bf00      	nop
 80089fc:	2000122e 	.word	0x2000122e
 8008a00:	0800a4e0 	.word	0x0800a4e0
 8008a04:	20001233 	.word	0x20001233
 8008a08:	0800a474 	.word	0x0800a474
 8008a0c:	2000122f 	.word	0x2000122f
 8008a10:	0800a484 	.word	0x0800a484
 8008a14:	20001230 	.word	0x20001230
 8008a18:	0800a4ac 	.word	0x0800a4ac
 8008a1c:	2000122d 	.word	0x2000122d
 8008a20:	0800a498 	.word	0x0800a498
 8008a24:	20001232 	.word	0x20001232
 8008a28:	0800a4c4 	.word	0x0800a4c4
 8008a2c:	f3af 8000 	nop.w

08008a30 <mousekey_param_inc.lto_priv.43>:

//#define PRINT_SET_VAL(v)  print(#v " = "); print_dec(v); print("\n");
#define PRINT_SET_VAL(v)  xprintf(#v " = %d\n", (v))
static void mousekey_param_inc(uint8_t param, uint8_t inc)
{
    switch (param) {
 8008a30:	3801      	subs	r0, #1
 8008a32:	2805      	cmp	r0, #5
 8008a34:	d840      	bhi.n	8008ab8 <mousekey_param_inc.lto_priv.43+0x88>
 8008a36:	e8df f000 	tbb	[pc, r0]
 8008a3a:	170d      	.short	0x170d
 8008a3c:	0335212b 	.word	0x0335212b
            else
                mk_wheel_max_speed = UINT8_MAX;
            PRINT_SET_VAL(mk_wheel_max_speed);
            break;
        case 6:
            if (mk_wheel_time_to_max + inc < UINT8_MAX)
 8008a40:	4b2a      	ldr	r3, [pc, #168]	; (8008aec <mousekey_param_inc.lto_priv.43+0xbc>)
 8008a42:	781a      	ldrb	r2, [r3, #0]
 8008a44:	4411      	add	r1, r2
 8008a46:	29fe      	cmp	r1, #254	; 0xfe
 8008a48:	dc37      	bgt.n	8008aba <mousekey_param_inc.lto_priv.43+0x8a>
                mk_wheel_time_to_max += inc;
 8008a4a:	b2c9      	uxtb	r1, r1
 8008a4c:	7019      	strb	r1, [r3, #0]
            else
                mk_wheel_time_to_max = UINT8_MAX;
            PRINT_SET_VAL(mk_wheel_time_to_max);
 8008a4e:	4828      	ldr	r0, [pc, #160]	; (8008af0 <mousekey_param_inc.lto_priv.43+0xc0>)
 8008a50:	f7ff be46 	b.w	80086e0 <tfp_printf>
#define PRINT_SET_VAL(v)  xprintf(#v " = %d\n", (v))
static void mousekey_param_inc(uint8_t param, uint8_t inc)
{
    switch (param) {
        case 1:
            if (mk_delay + inc < UINT8_MAX)
 8008a54:	4b27      	ldr	r3, [pc, #156]	; (8008af4 <mousekey_param_inc.lto_priv.43+0xc4>)
 8008a56:	781a      	ldrb	r2, [r3, #0]
 8008a58:	4411      	add	r1, r2
 8008a5a:	29fe      	cmp	r1, #254	; 0xfe
 8008a5c:	dc35      	bgt.n	8008aca <mousekey_param_inc.lto_priv.43+0x9a>
                mk_delay += inc;
 8008a5e:	b2c9      	uxtb	r1, r1
 8008a60:	7019      	strb	r1, [r3, #0]
            else
                mk_delay = UINT8_MAX;
            PRINT_SET_VAL(mk_delay);
 8008a62:	4825      	ldr	r0, [pc, #148]	; (8008af8 <mousekey_param_inc.lto_priv.43+0xc8>)
 8008a64:	f7ff be3c 	b.w	80086e0 <tfp_printf>
            break;
        case 2:
            if (mk_interval + inc < UINT8_MAX)
 8008a68:	4b24      	ldr	r3, [pc, #144]	; (8008afc <mousekey_param_inc.lto_priv.43+0xcc>)
 8008a6a:	781a      	ldrb	r2, [r3, #0]
 8008a6c:	4411      	add	r1, r2
 8008a6e:	29fe      	cmp	r1, #254	; 0xfe
 8008a70:	dc33      	bgt.n	8008ada <mousekey_param_inc.lto_priv.43+0xaa>
                mk_interval += inc;
 8008a72:	b2c9      	uxtb	r1, r1
 8008a74:	7019      	strb	r1, [r3, #0]
            else
                mk_interval = UINT8_MAX;
            PRINT_SET_VAL(mk_interval);
 8008a76:	4822      	ldr	r0, [pc, #136]	; (8008b00 <mousekey_param_inc.lto_priv.43+0xd0>)
 8008a78:	f7ff be32 	b.w	80086e0 <tfp_printf>
            else
                mk_max_speed = UINT8_MAX;
            PRINT_SET_VAL(mk_max_speed);
            break;
        case 4:
            if (mk_time_to_max + inc < UINT8_MAX)
 8008a7c:	4b21      	ldr	r3, [pc, #132]	; (8008b04 <mousekey_param_inc.lto_priv.43+0xd4>)
 8008a7e:	781a      	ldrb	r2, [r3, #0]
 8008a80:	4411      	add	r1, r2
 8008a82:	29fe      	cmp	r1, #254	; 0xfe
 8008a84:	dc25      	bgt.n	8008ad2 <mousekey_param_inc.lto_priv.43+0xa2>
                mk_time_to_max += inc;
 8008a86:	b2c9      	uxtb	r1, r1
 8008a88:	7019      	strb	r1, [r3, #0]
            else
                mk_time_to_max = UINT8_MAX;
            PRINT_SET_VAL(mk_time_to_max);
 8008a8a:	481f      	ldr	r0, [pc, #124]	; (8008b08 <mousekey_param_inc.lto_priv.43+0xd8>)
 8008a8c:	f7ff be28 	b.w	80086e0 <tfp_printf>
            else
                mk_interval = UINT8_MAX;
            PRINT_SET_VAL(mk_interval);
            break;
        case 3:
            if (mk_max_speed + inc < UINT8_MAX)
 8008a90:	4b1e      	ldr	r3, [pc, #120]	; (8008b0c <mousekey_param_inc.lto_priv.43+0xdc>)
 8008a92:	781a      	ldrb	r2, [r3, #0]
 8008a94:	4411      	add	r1, r2
 8008a96:	29fe      	cmp	r1, #254	; 0xfe
 8008a98:	dc23      	bgt.n	8008ae2 <mousekey_param_inc.lto_priv.43+0xb2>
                mk_max_speed += inc;
 8008a9a:	b2c9      	uxtb	r1, r1
 8008a9c:	7019      	strb	r1, [r3, #0]
            else
                mk_max_speed = UINT8_MAX;
            PRINT_SET_VAL(mk_max_speed);
 8008a9e:	481c      	ldr	r0, [pc, #112]	; (8008b10 <mousekey_param_inc.lto_priv.43+0xe0>)
 8008aa0:	f7ff be1e 	b.w	80086e0 <tfp_printf>
            else
                mk_time_to_max = UINT8_MAX;
            PRINT_SET_VAL(mk_time_to_max);
            break;
        case 5:
            if (mk_wheel_max_speed + inc < UINT8_MAX)
 8008aa4:	4b1b      	ldr	r3, [pc, #108]	; (8008b14 <mousekey_param_inc.lto_priv.43+0xe4>)
 8008aa6:	781a      	ldrb	r2, [r3, #0]
 8008aa8:	4411      	add	r1, r2
 8008aaa:	29fe      	cmp	r1, #254	; 0xfe
 8008aac:	dc09      	bgt.n	8008ac2 <mousekey_param_inc.lto_priv.43+0x92>
                mk_wheel_max_speed += inc;
 8008aae:	b2c9      	uxtb	r1, r1
 8008ab0:	7019      	strb	r1, [r3, #0]
            else
                mk_wheel_max_speed = UINT8_MAX;
            PRINT_SET_VAL(mk_wheel_max_speed);
 8008ab2:	4819      	ldr	r0, [pc, #100]	; (8008b18 <mousekey_param_inc.lto_priv.43+0xe8>)
 8008ab4:	f7ff be14 	b.w	80086e0 <tfp_printf>
 8008ab8:	4770      	bx	lr
            break;
        case 6:
            if (mk_wheel_time_to_max + inc < UINT8_MAX)
                mk_wheel_time_to_max += inc;
            else
                mk_wheel_time_to_max = UINT8_MAX;
 8008aba:	22ff      	movs	r2, #255	; 0xff
 8008abc:	4611      	mov	r1, r2
 8008abe:	701a      	strb	r2, [r3, #0]
 8008ac0:	e7c5      	b.n	8008a4e <mousekey_param_inc.lto_priv.43+0x1e>
            break;
        case 5:
            if (mk_wheel_max_speed + inc < UINT8_MAX)
                mk_wheel_max_speed += inc;
            else
                mk_wheel_max_speed = UINT8_MAX;
 8008ac2:	22ff      	movs	r2, #255	; 0xff
 8008ac4:	4611      	mov	r1, r2
 8008ac6:	701a      	strb	r2, [r3, #0]
 8008ac8:	e7f3      	b.n	8008ab2 <mousekey_param_inc.lto_priv.43+0x82>
    switch (param) {
        case 1:
            if (mk_delay + inc < UINT8_MAX)
                mk_delay += inc;
            else
                mk_delay = UINT8_MAX;
 8008aca:	22ff      	movs	r2, #255	; 0xff
 8008acc:	4611      	mov	r1, r2
 8008ace:	701a      	strb	r2, [r3, #0]
 8008ad0:	e7c7      	b.n	8008a62 <mousekey_param_inc.lto_priv.43+0x32>
            break;
        case 4:
            if (mk_time_to_max + inc < UINT8_MAX)
                mk_time_to_max += inc;
            else
                mk_time_to_max = UINT8_MAX;
 8008ad2:	22ff      	movs	r2, #255	; 0xff
 8008ad4:	4611      	mov	r1, r2
 8008ad6:	701a      	strb	r2, [r3, #0]
 8008ad8:	e7d7      	b.n	8008a8a <mousekey_param_inc.lto_priv.43+0x5a>
            break;
        case 2:
            if (mk_interval + inc < UINT8_MAX)
                mk_interval += inc;
            else
                mk_interval = UINT8_MAX;
 8008ada:	22ff      	movs	r2, #255	; 0xff
 8008adc:	4611      	mov	r1, r2
 8008ade:	701a      	strb	r2, [r3, #0]
 8008ae0:	e7c9      	b.n	8008a76 <mousekey_param_inc.lto_priv.43+0x46>
            break;
        case 3:
            if (mk_max_speed + inc < UINT8_MAX)
                mk_max_speed += inc;
            else
                mk_max_speed = UINT8_MAX;
 8008ae2:	22ff      	movs	r2, #255	; 0xff
 8008ae4:	4611      	mov	r1, r2
 8008ae6:	701a      	strb	r2, [r3, #0]
 8008ae8:	e7d9      	b.n	8008a9e <mousekey_param_inc.lto_priv.43+0x6e>
 8008aea:	bf00      	nop
 8008aec:	2000122e 	.word	0x2000122e
 8008af0:	0800a4e0 	.word	0x0800a4e0
 8008af4:	20001233 	.word	0x20001233
 8008af8:	0800a474 	.word	0x0800a474
 8008afc:	2000122f 	.word	0x2000122f
 8008b00:	0800a484 	.word	0x0800a484
 8008b04:	20001230 	.word	0x20001230
 8008b08:	0800a4ac 	.word	0x0800a4ac
 8008b0c:	2000122d 	.word	0x2000122d
 8008b10:	0800a498 	.word	0x0800a498
 8008b14:	20001232 	.word	0x20001232
 8008b18:	0800a4c4 	.word	0x0800a4c4
 8008b1c:	f3af 8000 	nop.w

08008b20 <command_common.lto_priv.41>:
#endif
}
#endif

static bool command_common(uint8_t code)
{
 8008b20:	b538      	push	{r3, r4, r5, lr}
#ifdef KEYBOARD_LOCK_ENABLE
    static host_driver_t *host_driver = 0;
#endif
    switch (code) {
 8008b22:	1f83      	subs	r3, r0, #6
 8008b24:	2b42      	cmp	r3, #66	; 0x42
 8008b26:	f200 811d 	bhi.w	8008d64 <command_common.lto_priv.41+0x244>
 8008b2a:	e8df f013 	tbh	[pc, r3, lsl #1]
 8008b2e:	0051      	.short	0x0051
 8008b30:	011b0063 	.word	0x011b0063
 8008b34:	011b011b 	.word	0x011b011b
 8008b38:	011b0073 	.word	0x011b0073
 8008b3c:	0078011b 	.word	0x0078011b
 8008b40:	008d011b 	.word	0x008d011b
 8008b44:	011b00a2 	.word	0x011b00a2
 8008b48:	011b011b 	.word	0x011b011b
 8008b4c:	00b2011b 	.word	0x00b2011b
 8008b50:	011b011b 	.word	0x011b011b
 8008b54:	011b00e3 	.word	0x011b00e3
 8008b58:	011b00f7 	.word	0x011b00f7
 8008b5c:	010a011b 	.word	0x010a011b
 8008b60:	010a010a 	.word	0x010a010a
 8008b64:	010a010a 	.word	0x010a010a
 8008b68:	010a010a 	.word	0x010a010a
 8008b6c:	010a010a 	.word	0x010a010a
 8008b70:	011b0110 	.word	0x011b0110
 8008b74:	011b0110 	.word	0x011b0110
 8008b78:	011b011b 	.word	0x011b011b
 8008b7c:	011b011b 	.word	0x011b011b
 8008b80:	011b011b 	.word	0x011b011b
 8008b84:	011b011b 	.word	0x011b011b
 8008b88:	011b011b 	.word	0x011b011b
 8008b8c:	011b0110 	.word	0x011b0110
 8008b90:	0073011b 	.word	0x0073011b
 8008b94:	0115011b 	.word	0x0115011b
 8008b98:	01150115 	.word	0x01150115
 8008b9c:	01150115 	.word	0x01150115
 8008ba0:	01150115 	.word	0x01150115
 8008ba4:	01150115 	.word	0x01150115
 8008ba8:	011b0110 	.word	0x011b0110
 8008bac:	011b011b 	.word	0x011b011b
 8008bb0:	0043011b 	.word	0x0043011b
 8008bb4:	4b7c      	ldr	r3, [pc, #496]	; (8008da8 <command_common.lto_priv.41+0x288>)
 8008bb6:	2200      	movs	r2, #0
 8008bb8:	701a      	strb	r2, [r3, #0]
 8008bba:	f000 fda1 	bl	8009700 <clear_keyboard_but_mods>
            print("C> ");
            command_state = CONSOLE;
            break;
        case KC_PAUSE:
            clear_keyboard();
            print("\n\nbootloader... ");
 8008bbe:	487b      	ldr	r0, [pc, #492]	; (8008dac <command_common.lto_priv.41+0x28c>)
 8008bc0:	f7ff fd8e 	bl	80086e0 <tfp_printf>
            wait_ms(1000);
 8008bc4:	f44f 60fa 	mov.w	r0, #2000	; 0x7d0
 8008bc8:	f7fe fa0a 	bl	8006fe0 <chThdSleep>
            bootloader_jump(); // not return
 8008bcc:	f7ff fd58 	bl	8008680 <bootloader_jump>
        case KC_H:
        case KC_SLASH: /* ? */
            command_common_help();
            break;
        case KC_C:
            debug_matrix   = false;
 8008bd0:	4a77      	ldr	r2, [pc, #476]	; (8008db0 <command_common.lto_priv.41+0x290>)
/***********************************************************
 * Command console
 ***********************************************************/
static void command_console_help(void)
{
    print("\n\t- Console -\n"
 8008bd2:	4878      	ldr	r0, [pc, #480]	; (8008db4 <command_common.lto_priv.41+0x294>)
        case KC_H:
        case KC_SLASH: /* ? */
            command_common_help();
            break;
        case KC_C:
            debug_matrix   = false;
 8008bd4:	7813      	ldrb	r3, [r2, #0]
            debug_keyboard = false;
            debug_mouse    = false;
            debug_enable   = false;
            command_console_help();
            print("C> ");
            command_state = CONSOLE;
 8008bd6:	2401      	movs	r4, #1
            break;
        case KC_C:
            debug_matrix   = false;
            debug_keyboard = false;
            debug_mouse    = false;
            debug_enable   = false;
 8008bd8:	f003 03f1 	and.w	r3, r3, #241	; 0xf1
 8008bdc:	f36f 0300 	bfc	r3, #0, #1
 8008be0:	7013      	strb	r3, [r2, #0]
/***********************************************************
 * Command console
 ***********************************************************/
static void command_console_help(void)
{
    print("\n\t- Console -\n"
 8008be2:	f7ff fd7d 	bl	80086e0 <tfp_printf>
            debug_matrix   = false;
            debug_keyboard = false;
            debug_mouse    = false;
            debug_enable   = false;
            command_console_help();
            print("C> ");
 8008be6:	4874      	ldr	r0, [pc, #464]	; (8008db8 <command_common.lto_priv.41+0x298>)
 8008be8:	f7ff fd7a 	bl	80086e0 <tfp_printf>
            command_state = CONSOLE;
 8008bec:	4b73      	ldr	r3, [pc, #460]	; (8008dbc <command_common.lto_priv.41+0x29c>)
 8008bee:	701c      	strb	r4, [r3, #0]
        default:
            print("?");
            return false;
    }
    return true;
}
 8008bf0:	4620      	mov	r0, r4
 8008bf2:	bd38      	pop	{r3, r4, r5, pc}
            print("\n\nbootloader... ");
            wait_ms(1000);
            bootloader_jump(); // not return
            break;
        case KC_D:
            if (debug_enable) {
 8008bf4:	4d6e      	ldr	r5, [pc, #440]	; (8008db0 <command_common.lto_priv.41+0x290>)
 8008bf6:	782c      	ldrb	r4, [r5, #0]
 8008bf8:	f014 0401 	ands.w	r4, r4, #1
 8008bfc:	f000 80cb 	beq.w	8008d96 <command_common.lto_priv.41+0x276>
                print("\ndebug: off\n");
 8008c00:	486f      	ldr	r0, [pc, #444]	; (8008dc0 <command_common.lto_priv.41+0x2a0>)
 8008c02:	f7ff fd6d 	bl	80086e0 <tfp_printf>
                debug_matrix   = false;
 8008c06:	782b      	ldrb	r3, [r5, #0]
                debug_keyboard = false;
                debug_mouse    = false;
                debug_enable   = false;
 8008c08:	f003 03f1 	and.w	r3, r3, #241	; 0xf1
 8008c0c:	f36f 0300 	bfc	r3, #0, #1
 8008c10:	702b      	strb	r3, [r5, #0]
 8008c12:	e7ed      	b.n	8008bf0 <command_common.lto_priv.41+0xd0>
/***********************************************************
 * Command common
 ***********************************************************/
static void command_common_help(void)
{
    print("\n\t- Magic -\n"
 8008c14:	486b      	ldr	r0, [pc, #428]	; (8008dc4 <command_common.lto_priv.41+0x2a4>)
 8008c16:	f7ff fd63 	bl	80086e0 <tfp_printf>
            break;
        default:
            print("?");
            return false;
    }
    return true;
 8008c1a:	2401      	movs	r4, #1
 8008c1c:	e7e8      	b.n	8008bf0 <command_common.lto_priv.41+0xd0>
            } else {
                print("\nmatrix: off\n");
            }
            break;
        case KC_K: // debug keyboard toggle
            debug_keyboard = !debug_keyboard;
 8008c1e:	4d64      	ldr	r5, [pc, #400]	; (8008db0 <command_common.lto_priv.41+0x290>)
 8008c20:	782c      	ldrb	r4, [r5, #0]
 8008c22:	4623      	mov	r3, r4
 8008c24:	f084 0404 	eor.w	r4, r4, #4
 8008c28:	f3c4 0480 	ubfx	r4, r4, #2, #1
 8008c2c:	f364 0382 	bfi	r3, r4, #2, #1
 8008c30:	702b      	strb	r3, [r5, #0]
            if (debug_keyboard) {
 8008c32:	2c00      	cmp	r4, #0
 8008c34:	f000 80aa 	beq.w	8008d8c <command_common.lto_priv.41+0x26c>
                print("\nkeyboard: on\n");
 8008c38:	4863      	ldr	r0, [pc, #396]	; (8008dc8 <command_common.lto_priv.41+0x2a8>)
 8008c3a:	f7ff fd51 	bl	80086e0 <tfp_printf>
                debug_enable = true;
 8008c3e:	782b      	ldrb	r3, [r5, #0]
 8008c40:	f043 0301 	orr.w	r3, r3, #1
 8008c44:	702b      	strb	r3, [r5, #0]
 8008c46:	e7d3      	b.n	8008bf0 <command_common.lto_priv.41+0xd0>
            } else {
                print("\nkeyboard: off\n");
            }
            break;
        case KC_M: // debug mouse toggle
            debug_mouse = !debug_mouse;
 8008c48:	4d59      	ldr	r5, [pc, #356]	; (8008db0 <command_common.lto_priv.41+0x290>)
 8008c4a:	782c      	ldrb	r4, [r5, #0]
 8008c4c:	4623      	mov	r3, r4
 8008c4e:	f084 0408 	eor.w	r4, r4, #8
 8008c52:	f3c4 04c0 	ubfx	r4, r4, #3, #1
 8008c56:	f364 03c3 	bfi	r3, r4, #3, #1
 8008c5a:	702b      	strb	r3, [r5, #0]
            if (debug_mouse) {
 8008c5c:	2c00      	cmp	r4, #0
 8008c5e:	f000 8090 	beq.w	8008d82 <command_common.lto_priv.41+0x262>
                print("\nmouse: on\n");
 8008c62:	485a      	ldr	r0, [pc, #360]	; (8008dcc <command_common.lto_priv.41+0x2ac>)
 8008c64:	f7ff fd3c 	bl	80086e0 <tfp_printf>
                debug_enable = true;
 8008c68:	782b      	ldrb	r3, [r5, #0]
 8008c6a:	f043 0301 	orr.w	r3, r3, #1
 8008c6e:	702b      	strb	r3, [r5, #0]
 8008c70:	e7be      	b.n	8008bf0 <command_common.lto_priv.41+0xd0>
 8008c72:	4b4d      	ldr	r3, [pc, #308]	; (8008da8 <command_common.lto_priv.41+0x288>)
 8008c74:	2200      	movs	r2, #0
 8008c76:	701a      	strb	r2, [r3, #0]
 8008c78:	f000 fd42 	bl	8009700 <clear_keyboard_but_mods>
#endif
            break;
#ifdef NKRO_ENABLE
        case KC_N:
            clear_keyboard(); //Prevents stuck keys.
            keyboard_nkro = !keyboard_nkro;
 8008c7c:	4b54      	ldr	r3, [pc, #336]	; (8008dd0 <command_common.lto_priv.41+0x2b0>)
 8008c7e:	781c      	ldrb	r4, [r3, #0]
 8008c80:	f084 0401 	eor.w	r4, r4, #1
 8008c84:	701c      	strb	r4, [r3, #0]
            if (keyboard_nkro)
 8008c86:	2c00      	cmp	r4, #0
 8008c88:	d076      	beq.n	8008d78 <command_common.lto_priv.41+0x258>
                print("NKRO: on\n");
 8008c8a:	4852      	ldr	r0, [pc, #328]	; (8008dd4 <command_common.lto_priv.41+0x2b4>)
 8008c8c:	f7ff fd28 	bl	80086e0 <tfp_printf>
 8008c90:	e7ae      	b.n	8008bf0 <command_common.lto_priv.41+0xd0>
            // TODO
            );
#endif
            break;
        case KC_S:
            print("\n\t- Status -\n");
 8008c92:	4851      	ldr	r0, [pc, #324]	; (8008dd8 <command_common.lto_priv.41+0x2b8>)
 8008c94:	f7ff fd24 	bl	80086e0 <tfp_printf>
            print_val_hex8(host_keyboard_leds());
 8008c98:	f7ff fba2 	bl	80083e0 <host_keyboard_leds>
 8008c9c:	4601      	mov	r1, r0
 8008c9e:	484f      	ldr	r0, [pc, #316]	; (8008ddc <command_common.lto_priv.41+0x2bc>)
 8008ca0:	f7ff fd1e 	bl	80086e0 <tfp_printf>
            print_val_hex8(keyboard_protocol);
 8008ca4:	4b4e      	ldr	r3, [pc, #312]	; (8008de0 <command_common.lto_priv.41+0x2c0>)
 8008ca6:	484f      	ldr	r0, [pc, #316]	; (8008de4 <command_common.lto_priv.41+0x2c4>)
 8008ca8:	7819      	ldrb	r1, [r3, #0]
 8008caa:	f7ff fd19 	bl	80086e0 <tfp_printf>
            print_val_hex8(keyboard_idle);
 8008cae:	4b4e      	ldr	r3, [pc, #312]	; (8008de8 <command_common.lto_priv.41+0x2c8>)
 8008cb0:	484e      	ldr	r0, [pc, #312]	; (8008dec <command_common.lto_priv.41+0x2cc>)
 8008cb2:	7819      	ldrb	r1, [r3, #0]
 8008cb4:	f7ff fd14 	bl	80086e0 <tfp_printf>
#ifdef NKRO_ENABLE
            print_val_hex8(keyboard_nkro);
 8008cb8:	4b45      	ldr	r3, [pc, #276]	; (8008dd0 <command_common.lto_priv.41+0x2b0>)
 8008cba:	484d      	ldr	r0, [pc, #308]	; (8008df0 <command_common.lto_priv.41+0x2d0>)
 8008cbc:	7819      	ldrb	r1, [r3, #0]
 8008cbe:	f7ff fd0f 	bl	80086e0 <tfp_printf>
 8008cc2:	2320      	movs	r3, #32
 8008cc4:	f383 8811 	msr	BASEPRI, r3
 8008cc8:	f04f 4380 	mov.w	r3, #1073741824	; 0x40000000
 8008ccc:	6a5b      	ldr	r3, [r3, #36]	; 0x24
 8008cce:	2200      	movs	r2, #0
 8008cd0:	f382 8811 	msr	BASEPRI, r2

uint32_t timer_read32(void)
{
    return ST2MS(chVTGetSystemTime());
 8008cd4:	f44f 727a 	mov.w	r2, #1000	; 0x3e8
 8008cd8:	b29b      	uxth	r3, r3
 8008cda:	fb02 f303 	mul.w	r3, r2, r3
 8008cde:	4945      	ldr	r1, [pc, #276]	; (8008df4 <command_common.lto_priv.41+0x2d4>)
 8008ce0:	f203 73cf 	addw	r3, r3, #1999	; 0x7cf
 8008ce4:	fba1 3103 	umull	r3, r1, r1, r3
#endif
            print_val_hex32(timer_read32());
 8008ce8:	4843      	ldr	r0, [pc, #268]	; (8008df8 <command_common.lto_priv.41+0x2d8>)
 8008cea:	09c9      	lsrs	r1, r1, #7
 8008cec:	f7ff fcf8 	bl	80086e0 <tfp_printf>
            break;
        default:
            print("?");
            return false;
    }
    return true;
 8008cf0:	2401      	movs	r4, #1
 8008cf2:	e77d      	b.n	8008bf0 <command_common.lto_priv.41+0xd0>
            } else {
                print("\nmouse: off\n");
            }
            break;
        case KC_V: // print version & information
            print("\n\t- Version -\n");
 8008cf4:	4841      	ldr	r0, [pc, #260]	; (8008dfc <command_common.lto_priv.41+0x2dc>)
 8008cf6:	f7ff fcf3 	bl	80086e0 <tfp_printf>
            print("DESC: " STR(DESCRIPTION) "\n");
 8008cfa:	4841      	ldr	r0, [pc, #260]	; (8008e00 <command_common.lto_priv.41+0x2e0>)
 8008cfc:	f7ff fcf0 	bl	80086e0 <tfp_printf>
            print("VID: " STR(VENDOR_ID) "(" STR(MANUFACTURER) ") "
 8008d00:	4840      	ldr	r0, [pc, #256]	; (8008e04 <command_common.lto_priv.41+0x2e4>)
 8008d02:	f7ff fced 	bl	80086e0 <tfp_printf>
                  "PID: " STR(PRODUCT_ID) "(" STR(PRODUCT) ") "
                  "VER: " STR(DEVICE_VER) "\n");
            print("BUILD: " STR(VERSION) " (" __TIME__ " " __DATE__ ")\n");
 8008d06:	4840      	ldr	r0, [pc, #256]	; (8008e08 <command_common.lto_priv.41+0x2e8>)
 8008d08:	f7ff fcea 	bl	80086e0 <tfp_printf>
            /* build options */
            print("OPTIONS:"
 8008d0c:	483f      	ldr	r0, [pc, #252]	; (8008e0c <command_common.lto_priv.41+0x2ec>)
 8008d0e:	f7ff fce7 	bl	80086e0 <tfp_printf>
#ifdef KEYMAP_SECTION_ENABLE
            " KEYMAP_SECTION"
#endif
            " " STR(BOOTLOADER_SIZE) "\n");

            print("GCC: " STR(__GNUC__) "." STR(__GNUC_MINOR__) "." STR(__GNUC_PATCHLEVEL__)
 8008d12:	483f      	ldr	r0, [pc, #252]	; (8008e10 <command_common.lto_priv.41+0x2f0>)
 8008d14:	f7ff fce4 	bl	80086e0 <tfp_printf>
            break;
        default:
            print("?");
            return false;
    }
    return true;
 8008d18:	2401      	movs	r4, #1
 8008d1a:	e769      	b.n	8008bf0 <command_common.lto_priv.41+0xd0>
                print("\ndebug: on\n");
                debug_enable   = true;
            }
            break;
        case KC_X: // debug matrix toggle
            debug_matrix = !debug_matrix;
 8008d1c:	4d24      	ldr	r5, [pc, #144]	; (8008db0 <command_common.lto_priv.41+0x290>)
 8008d1e:	782c      	ldrb	r4, [r5, #0]
 8008d20:	4623      	mov	r3, r4
 8008d22:	f084 0402 	eor.w	r4, r4, #2
 8008d26:	f3c4 0440 	ubfx	r4, r4, #1, #1
 8008d2a:	f364 0341 	bfi	r3, r4, #1, #1
 8008d2e:	702b      	strb	r3, [r5, #0]
            if (debug_matrix) {
 8008d30:	b1ec      	cbz	r4, 8008d6e <command_common.lto_priv.41+0x24e>
                print("\nmatrix: on\n");
 8008d32:	4838      	ldr	r0, [pc, #224]	; (8008e14 <command_common.lto_priv.41+0x2f4>)
 8008d34:	f7ff fcd4 	bl	80086e0 <tfp_printf>
                debug_enable = true;
 8008d38:	782b      	ldrb	r3, [r5, #0]
 8008d3a:	f043 0301 	orr.w	r3, r3, #1
 8008d3e:	702b      	strb	r3, [r5, #0]
 8008d40:	e756      	b.n	8008bf0 <command_common.lto_priv.41+0xd0>
        case KC_0:
        case KC_F10:
            switch_default_layer(0);
            break;
        case KC_1 ... KC_9:
            switch_default_layer((code - KC_1) + 1);
 8008d42:	381d      	subs	r0, #29
 8008d44:	b2c0      	uxtb	r0, r0
 8008d46:	f7ff fdcb 	bl	80088e0 <switch_default_layer>
            break;
        default:
            print("?");
            return false;
    }
    return true;
 8008d4a:	2401      	movs	r4, #1
 8008d4c:	e750      	b.n	8008bf0 <command_common.lto_priv.41+0xd0>
#endif
        case KC_ESC:
        case KC_GRV:
        case KC_0:
        case KC_F10:
            switch_default_layer(0);
 8008d4e:	2000      	movs	r0, #0
 8008d50:	f7ff fdc6 	bl	80088e0 <switch_default_layer>
            break;
        default:
            print("?");
            return false;
    }
    return true;
 8008d54:	2401      	movs	r4, #1
 8008d56:	e74b      	b.n	8008bf0 <command_common.lto_priv.41+0xd0>
            break;
        case KC_1 ... KC_9:
            switch_default_layer((code - KC_1) + 1);
            break;
        case KC_F1 ... KC_F9:
            switch_default_layer((code - KC_F1) + 1);
 8008d58:	3839      	subs	r0, #57	; 0x39
 8008d5a:	b2c0      	uxtb	r0, r0
 8008d5c:	f7ff fdc0 	bl	80088e0 <switch_default_layer>
            break;
        default:
            print("?");
            return false;
    }
    return true;
 8008d60:	2401      	movs	r4, #1
 8008d62:	e745      	b.n	8008bf0 <command_common.lto_priv.41+0xd0>
            break;
        case KC_F1 ... KC_F9:
            switch_default_layer((code - KC_F1) + 1);
            break;
        default:
            print("?");
 8008d64:	482c      	ldr	r0, [pc, #176]	; (8008e18 <command_common.lto_priv.41+0x2f8>)
 8008d66:	f7ff fcbb 	bl	80086e0 <tfp_printf>
            return false;
 8008d6a:	2400      	movs	r4, #0
 8008d6c:	e740      	b.n	8008bf0 <command_common.lto_priv.41+0xd0>
            debug_matrix = !debug_matrix;
            if (debug_matrix) {
                print("\nmatrix: on\n");
                debug_enable = true;
            } else {
                print("\nmatrix: off\n");
 8008d6e:	482b      	ldr	r0, [pc, #172]	; (8008e1c <command_common.lto_priv.41+0x2fc>)
 8008d70:	f7ff fcb6 	bl	80086e0 <tfp_printf>
            break;
        default:
            print("?");
            return false;
    }
    return true;
 8008d74:	2401      	movs	r4, #1
 8008d76:	e73b      	b.n	8008bf0 <command_common.lto_priv.41+0xd0>
            clear_keyboard(); //Prevents stuck keys.
            keyboard_nkro = !keyboard_nkro;
            if (keyboard_nkro)
                print("NKRO: on\n");
            else
                print("NKRO: off\n");
 8008d78:	4829      	ldr	r0, [pc, #164]	; (8008e20 <command_common.lto_priv.41+0x300>)
 8008d7a:	f7ff fcb1 	bl	80086e0 <tfp_printf>
            break;
        default:
            print("?");
            return false;
    }
    return true;
 8008d7e:	2401      	movs	r4, #1
 8008d80:	e736      	b.n	8008bf0 <command_common.lto_priv.41+0xd0>
            debug_mouse = !debug_mouse;
            if (debug_mouse) {
                print("\nmouse: on\n");
                debug_enable = true;
            } else {
                print("\nmouse: off\n");
 8008d82:	4828      	ldr	r0, [pc, #160]	; (8008e24 <command_common.lto_priv.41+0x304>)
 8008d84:	f7ff fcac 	bl	80086e0 <tfp_printf>
            break;
        default:
            print("?");
            return false;
    }
    return true;
 8008d88:	2401      	movs	r4, #1
 8008d8a:	e731      	b.n	8008bf0 <command_common.lto_priv.41+0xd0>
            debug_keyboard = !debug_keyboard;
            if (debug_keyboard) {
                print("\nkeyboard: on\n");
                debug_enable = true;
            } else {
                print("\nkeyboard: off\n");
 8008d8c:	4826      	ldr	r0, [pc, #152]	; (8008e28 <command_common.lto_priv.41+0x308>)
 8008d8e:	f7ff fca7 	bl	80086e0 <tfp_printf>
            break;
        default:
            print("?");
            return false;
    }
    return true;
 8008d92:	2401      	movs	r4, #1
 8008d94:	e72c      	b.n	8008bf0 <command_common.lto_priv.41+0xd0>
                debug_matrix   = false;
                debug_keyboard = false;
                debug_mouse    = false;
                debug_enable   = false;
            } else {
                print("\ndebug: on\n");
 8008d96:	4825      	ldr	r0, [pc, #148]	; (8008e2c <command_common.lto_priv.41+0x30c>)
 8008d98:	f7ff fca2 	bl	80086e0 <tfp_printf>
                debug_enable   = true;
 8008d9c:	782b      	ldrb	r3, [r5, #0]
            break;
        default:
            print("?");
            return false;
    }
    return true;
 8008d9e:	2401      	movs	r4, #1
                debug_keyboard = false;
                debug_mouse    = false;
                debug_enable   = false;
            } else {
                print("\ndebug: on\n");
                debug_enable   = true;
 8008da0:	4323      	orrs	r3, r4
 8008da2:	702b      	strb	r3, [r5, #0]
 8008da4:	e724      	b.n	8008bf0 <command_common.lto_priv.41+0xd0>
 8008da6:	bf00      	nop
 8008da8:	2000154e 	.word	0x2000154e
 8008dac:	0800a5c4 	.word	0x0800a5c4
 8008db0:	20001544 	.word	0x20001544
 8008db4:	0800a598 	.word	0x0800a598
 8008db8:	0800a5c0 	.word	0x0800a5c0
 8008dbc:	2000154d 	.word	0x2000154d
 8008dc0:	0800a5d8 	.word	0x0800a5d8
 8008dc4:	0800a4fc 	.word	0x0800a4fc
 8008dc8:	0800a614 	.word	0x0800a614
 8008dcc:	0800a634 	.word	0x0800a634
 8008dd0:	20001234 	.word	0x20001234
 8008dd4:	0800a7dc 	.word	0x0800a7dc
 8008dd8:	0800a758 	.word	0x0800a758
 8008ddc:	0800a768 	.word	0x0800a768
 8008de0:	20001231 	.word	0x20001231
 8008de4:	0800a784 	.word	0x0800a784
 8008de8:	2000154c 	.word	0x2000154c
 8008dec:	0800a79c 	.word	0x0800a79c
 8008df0:	0800a7b0 	.word	0x0800a7b0
 8008df4:	10624dd3 	.word	0x10624dd3
 8008df8:	0800a7c4 	.word	0x0800a7c4
 8008dfc:	0800a650 	.word	0x0800a650
 8008e00:	0800a660 	.word	0x0800a660
 8008e04:	0800a68c 	.word	0x0800a68c
 8008e08:	0800a6d0 	.word	0x0800a6d0
 8008e0c:	0800a700 	.word	0x0800a700
 8008e10:	0800a74c 	.word	0x0800a74c
 8008e14:	0800a5f4 	.word	0x0800a5f4
 8008e18:	0800a7f4 	.word	0x0800a7f4
 8008e1c:	0800a604 	.word	0x0800a604
 8008e20:	0800a7e8 	.word	0x0800a7e8
 8008e24:	0800a640 	.word	0x0800a640
 8008e28:	0800a624 	.word	0x0800a624
 8008e2c:	0800a5e8 	.word	0x0800a5e8

08008e30 <mousekey_send>:
    if (mouse_report.x == 0 && mouse_report.y == 0 && mouse_report.v == 0 && mouse_report.h == 0)
        mousekey_repeat = 0;
}

void mousekey_send(void)
{
 8008e30:	b510      	push	{r4, lr}
    mousekey_accel = 0;
}

static void mousekey_debug(void)
{
    if (!debug_mouse) return;
 8008e32:	4b25      	ldr	r3, [pc, #148]	; (8008ec8 <mousekey_send+0x98>)
 8008e34:	781b      	ldrb	r3, [r3, #0]
 8008e36:	071b      	lsls	r3, r3, #28
 8008e38:	d53a      	bpl.n	8008eb0 <mousekey_send+0x80>
    print("mousekey [btn|x y v h](rep/acl): [");
    phex(mouse_report.buttons); print("|");
 8008e3a:	4c24      	ldr	r4, [pc, #144]	; (8008ecc <mousekey_send+0x9c>)
}

static void mousekey_debug(void)
{
    if (!debug_mouse) return;
    print("mousekey [btn|x y v h](rep/acl): [");
 8008e3c:	4824      	ldr	r0, [pc, #144]	; (8008ed0 <mousekey_send+0xa0>)
 8008e3e:	f7ff fc4f 	bl	80086e0 <tfp_printf>
    phex(mouse_report.buttons); print("|");
 8008e42:	7821      	ldrb	r1, [r4, #0]
 8008e44:	4823      	ldr	r0, [pc, #140]	; (8008ed4 <mousekey_send+0xa4>)
 8008e46:	f7ff fc4b 	bl	80086e0 <tfp_printf>
 8008e4a:	4823      	ldr	r0, [pc, #140]	; (8008ed8 <mousekey_send+0xa8>)
 8008e4c:	f7ff fc48 	bl	80086e0 <tfp_printf>
    print_decs(mouse_report.x); print(" ");
 8008e50:	f994 1001 	ldrsb.w	r1, [r4, #1]
 8008e54:	4821      	ldr	r0, [pc, #132]	; (8008edc <mousekey_send+0xac>)
 8008e56:	f7ff fc43 	bl	80086e0 <tfp_printf>
 8008e5a:	4821      	ldr	r0, [pc, #132]	; (8008ee0 <mousekey_send+0xb0>)
 8008e5c:	f7ff fc40 	bl	80086e0 <tfp_printf>
    print_decs(mouse_report.y); print(" ");
 8008e60:	f994 1002 	ldrsb.w	r1, [r4, #2]
 8008e64:	481d      	ldr	r0, [pc, #116]	; (8008edc <mousekey_send+0xac>)
 8008e66:	f7ff fc3b 	bl	80086e0 <tfp_printf>
 8008e6a:	481d      	ldr	r0, [pc, #116]	; (8008ee0 <mousekey_send+0xb0>)
 8008e6c:	f7ff fc38 	bl	80086e0 <tfp_printf>
    print_decs(mouse_report.v); print(" ");
 8008e70:	f994 1003 	ldrsb.w	r1, [r4, #3]
 8008e74:	4819      	ldr	r0, [pc, #100]	; (8008edc <mousekey_send+0xac>)
 8008e76:	f7ff fc33 	bl	80086e0 <tfp_printf>
 8008e7a:	4819      	ldr	r0, [pc, #100]	; (8008ee0 <mousekey_send+0xb0>)
 8008e7c:	f7ff fc30 	bl	80086e0 <tfp_printf>
    print_decs(mouse_report.h); print("](");
 8008e80:	f994 1004 	ldrsb.w	r1, [r4, #4]
 8008e84:	4815      	ldr	r0, [pc, #84]	; (8008edc <mousekey_send+0xac>)
 8008e86:	f7ff fc2b 	bl	80086e0 <tfp_printf>
 8008e8a:	4816      	ldr	r0, [pc, #88]	; (8008ee4 <mousekey_send+0xb4>)
 8008e8c:	f7ff fc28 	bl	80086e0 <tfp_printf>
    print_dec(mousekey_repeat); print("/");
 8008e90:	4b15      	ldr	r3, [pc, #84]	; (8008ee8 <mousekey_send+0xb8>)
 8008e92:	4816      	ldr	r0, [pc, #88]	; (8008eec <mousekey_send+0xbc>)
 8008e94:	7819      	ldrb	r1, [r3, #0]
 8008e96:	f7ff fc23 	bl	80086e0 <tfp_printf>
 8008e9a:	4815      	ldr	r0, [pc, #84]	; (8008ef0 <mousekey_send+0xc0>)
 8008e9c:	f7ff fc20 	bl	80086e0 <tfp_printf>
    print_dec(mousekey_accel); print(")\n");
 8008ea0:	4b14      	ldr	r3, [pc, #80]	; (8008ef4 <mousekey_send+0xc4>)
 8008ea2:	4812      	ldr	r0, [pc, #72]	; (8008eec <mousekey_send+0xbc>)
 8008ea4:	7819      	ldrb	r1, [r3, #0]
 8008ea6:	f7ff fc1b 	bl	80086e0 <tfp_printf>
 8008eaa:	4813      	ldr	r0, [pc, #76]	; (8008ef8 <mousekey_send+0xc8>)
 8008eac:	f7ff fc18 	bl	80086e0 <tfp_printf>
    }
}

void host_mouse_send(report_mouse_t *report)
{
    if (!driver) return;
 8008eb0:	4b12      	ldr	r3, [pc, #72]	; (8008efc <mousekey_send+0xcc>)
 8008eb2:	681b      	ldr	r3, [r3, #0]
 8008eb4:	b113      	cbz	r3, 8008ebc <mousekey_send+0x8c>
    (*driver->send_mouse)(report);
 8008eb6:	689b      	ldr	r3, [r3, #8]
 8008eb8:	4804      	ldr	r0, [pc, #16]	; (8008ecc <mousekey_send+0x9c>)
 8008eba:	4798      	blx	r3

void mousekey_send(void)
{
    mousekey_debug();
    host_mouse_send(&mouse_report);
    last_timer = timer_read();
 8008ebc:	f7ff fbf8 	bl	80086b0 <timer_read>
 8008ec0:	4b0f      	ldr	r3, [pc, #60]	; (8008f00 <mousekey_send+0xd0>)
 8008ec2:	8018      	strh	r0, [r3, #0]
 8008ec4:	bd10      	pop	{r4, pc}
 8008ec6:	bf00      	nop
 8008ec8:	20001544 	.word	0x20001544
 8008ecc:	2000156c 	.word	0x2000156c
 8008ed0:	0800a7f8 	.word	0x0800a7f8
 8008ed4:	08009eac 	.word	0x08009eac
 8008ed8:	0800a81c 	.word	0x0800a81c
 8008edc:	0800a820 	.word	0x0800a820
 8008ee0:	0800a318 	.word	0x0800a318
 8008ee4:	0800a824 	.word	0x0800a824
 8008ee8:	2000154f 	.word	0x2000154f
 8008eec:	0800a828 	.word	0x0800a828
 8008ef0:	0800a82c 	.word	0x0800a82c
 8008ef4:	20001538 	.word	0x20001538
 8008ef8:	0800a420 	.word	0x0800a420
 8008efc:	200014ac 	.word	0x200014ac
 8008f00:	200014b0 	.word	0x200014b0
 8008f04:	f3af 8000 	nop.w
 8008f08:	f3af 8000 	nop.w
 8008f0c:	f3af 8000 	nop.w

08008f10 <action_for_key>:
            return keycode_to_action(KC_BSPACE);
#endif
        default:
            return keycode_to_action(keycode);
    }
}
 8008f10:	f04f 0004 	mov.w	r0, #4
static action_t keycode_to_action(uint8_t keycode);


/* converts key to action */
action_t action_for_key(uint8_t layer, keypos_t key)
{
 8008f14:	b082      	sub	sp, #8
            return keycode_to_action(KC_BSPACE);
#endif
        default:
            return keycode_to_action(keycode);
    }
}
 8008f16:	b002      	add	sp, #8
 8008f18:	4770      	bx	lr
 8008f1a:	bf00      	nop
 8008f1c:	f3af 8000 	nop.w

08008f20 <putchw.lto_priv.32>:
    *nump=num;
    return ch;
    }

static void putchw(void* putp,putcf putf,int n, char z, char* bf)
    {
 8008f20:	e92d 43f8 	stmdb	sp!, {r3, r4, r5, r6, r7, r8, r9, lr}
 8008f24:	f8dd 9020 	ldr.w	r9, [sp, #32]
    char fc=z? '0' : ' ';
 8008f28:	2b00      	cmp	r3, #0
    char ch;
    char* p=bf;
    while (*p++ && n > 0)
 8008f2a:	f899 3000 	ldrb.w	r3, [r9]
    *nump=num;
    return ch;
    }

static void putchw(void* putp,putcf putf,int n, char z, char* bf)
    {
 8008f2e:	4606      	mov	r6, r0
 8008f30:	460f      	mov	r7, r1
    char fc=z? '0' : ' ';
 8008f32:	bf14      	ite	ne
 8008f34:	f04f 0830 	movne.w	r8, #48	; 0x30
 8008f38:	f04f 0820 	moveq.w	r8, #32
    char ch;
    char* p=bf;
    while (*p++ && n > 0)
 8008f3c:	f109 0501 	add.w	r5, r9, #1
 8008f40:	b1f3      	cbz	r3, 8008f80 <putchw.lto_priv.32+0x60>
 8008f42:	2a00      	cmp	r2, #0
 8008f44:	dd13      	ble.n	8008f6e <putchw.lto_priv.32+0x4e>
 8008f46:	4629      	mov	r1, r5
 8008f48:	e000      	b.n	8008f4c <putchw.lto_priv.32+0x2c>
 8008f4a:	b182      	cbz	r2, 8008f6e <putchw.lto_priv.32+0x4e>
 8008f4c:	f811 0b01 	ldrb.w	r0, [r1], #1
        n--;
 8008f50:	3a01      	subs	r2, #1
static void putchw(void* putp,putcf putf,int n, char z, char* bf)
    {
    char fc=z? '0' : ' ';
    char ch;
    char* p=bf;
    while (*p++ && n > 0)
 8008f52:	2800      	cmp	r0, #0
 8008f54:	d1f9      	bne.n	8008f4a <putchw.lto_priv.32+0x2a>
        n--;
    while (n-- > 0) 
 8008f56:	1e54      	subs	r4, r2, #1
 8008f58:	b14a      	cbz	r2, 8008f6e <putchw.lto_priv.32+0x4e>
 8008f5a:	3c01      	subs	r4, #1
        putf(putp,fc);
 8008f5c:	4630      	mov	r0, r6
 8008f5e:	4641      	mov	r1, r8
 8008f60:	47b8      	blx	r7
 8008f62:	1c63      	adds	r3, r4, #1
    char fc=z? '0' : ' ';
    char ch;
    char* p=bf;
    while (*p++ && n > 0)
        n--;
    while (n-- > 0) 
 8008f64:	2b00      	cmp	r3, #0
 8008f66:	dcf8      	bgt.n	8008f5a <putchw.lto_priv.32+0x3a>
 8008f68:	f899 3000 	ldrb.w	r3, [r9]
        putf(putp,fc);
    while ((ch= *bf++))
 8008f6c:	b163      	cbz	r3, 8008f88 <putchw.lto_priv.32+0x68>
        putf(putp,ch);
 8008f6e:	4619      	mov	r1, r3
 8008f70:	4630      	mov	r0, r6
 8008f72:	47b8      	blx	r7
    char* p=bf;
    while (*p++ && n > 0)
        n--;
    while (n-- > 0) 
        putf(putp,fc);
    while ((ch= *bf++))
 8008f74:	f815 3b01 	ldrb.w	r3, [r5], #1
 8008f78:	2b00      	cmp	r3, #0
 8008f7a:	d1f8      	bne.n	8008f6e <putchw.lto_priv.32+0x4e>
 8008f7c:	e8bd 83f8 	ldmia.w	sp!, {r3, r4, r5, r6, r7, r8, r9, pc}
    char fc=z? '0' : ' ';
    char ch;
    char* p=bf;
    while (*p++ && n > 0)
        n--;
    while (n-- > 0) 
 8008f80:	2a00      	cmp	r2, #0
 8008f82:	f102 34ff 	add.w	r4, r2, #4294967295
 8008f86:	dce8      	bgt.n	8008f5a <putchw.lto_priv.32+0x3a>
 8008f88:	e8bd 83f8 	ldmia.w	sp!, {r3, r4, r5, r6, r7, r8, r9, pc}
 8008f8c:	f3af 8000 	nop.w

08008f90 <ui2a.lto_priv.33>:

static void ui2a(unsigned int num, unsigned int base, int uc,char * bf)
    {
    int n=0;
    unsigned int d=1;
    while (num/d >= base)
 8008f90:	4288      	cmp	r0, r1
    }

#endif

static void ui2a(unsigned int num, unsigned int base, int uc,char * bf)
    {
 8008f92:	b5f0      	push	{r4, r5, r6, r7, lr}
    int n=0;
    unsigned int d=1;
    while (num/d >= base)
 8008f94:	d333      	bcc.n	8008ffe <ui2a.lto_priv.33+0x6e>
 8008f96:	2401      	movs	r4, #1
        d*=base;        
 8008f98:	fb01 f404 	mul.w	r4, r1, r4

static void ui2a(unsigned int num, unsigned int base, int uc,char * bf)
    {
    int n=0;
    unsigned int d=1;
    while (num/d >= base)
 8008f9c:	fbb0 f5f4 	udiv	r5, r0, r4
 8008fa0:	428d      	cmp	r5, r1
 8008fa2:	d2f9      	bcs.n	8008f98 <ui2a.lto_priv.33+0x8>
        d*=base;        
    while (d!=0) {
 8008fa4:	b374      	cbz	r4, 8009004 <ui2a.lto_priv.33+0x74>
        int dgt = num / d;
        num%= d;
        d/=base;
        if (n || dgt>0 || d==0) {
 8008fa6:	2600      	movs	r6, #0
 8008fa8:	e00c      	b.n	8008fc4 <ui2a.lto_priv.33+0x34>
            *bf++ = dgt+(dgt<10 ? '0' : (uc ? 'A' : 'a')-10);
 8008faa:	2a00      	cmp	r2, #0
 8008fac:	bf14      	ite	ne
 8008fae:	f04f 0e37 	movne.w	lr, #55	; 0x37
 8008fb2:	f04f 0e57 	moveq.w	lr, #87	; 0x57
 8008fb6:	4475      	add	r5, lr
 8008fb8:	701d      	strb	r5, [r3, #0]
            ++n;
 8008fba:	3601      	adds	r6, #1
    {
    int n=0;
    unsigned int d=1;
    while (num/d >= base)
        d*=base;        
    while (d!=0) {
 8008fbc:	b19c      	cbz	r4, 8008fe6 <ui2a.lto_priv.33+0x56>
        int dgt = num / d;
        num%= d;
        d/=base;
        if (n || dgt>0 || d==0) {
 8008fbe:	463b      	mov	r3, r7
 8008fc0:	fbb0 f5f4 	udiv	r5, r0, r4
    unsigned int d=1;
    while (num/d >= base)
        d*=base;        
    while (d!=0) {
        int dgt = num / d;
        num%= d;
 8008fc4:	fb04 0015 	mls	r0, r4, r5, r0
        d/=base;
        if (n || dgt>0 || d==0) {
            *bf++ = dgt+(dgt<10 ? '0' : (uc ? 'A' : 'a')-10);
 8008fc8:	1c5f      	adds	r7, r3, #1
    while (num/d >= base)
        d*=base;        
    while (d!=0) {
        int dgt = num / d;
        num%= d;
        d/=base;
 8008fca:	fbb4 f4f1 	udiv	r4, r4, r1
        if (n || dgt>0 || d==0) {
 8008fce:	b90e      	cbnz	r6, 8008fd4 <ui2a.lto_priv.33+0x44>
 8008fd0:	2d00      	cmp	r5, #0
 8008fd2:	dd0b      	ble.n	8008fec <ui2a.lto_priv.33+0x5c>
            *bf++ = dgt+(dgt<10 ? '0' : (uc ? 'A' : 'a')-10);
 8008fd4:	2d09      	cmp	r5, #9
 8008fd6:	dce8      	bgt.n	8008faa <ui2a.lto_priv.33+0x1a>
 8008fd8:	f04f 0e30 	mov.w	lr, #48	; 0x30
 8008fdc:	4475      	add	r5, lr
 8008fde:	701d      	strb	r5, [r3, #0]
            ++n;
 8008fe0:	3601      	adds	r6, #1
    {
    int n=0;
    unsigned int d=1;
    while (num/d >= base)
        d*=base;        
    while (d!=0) {
 8008fe2:	2c00      	cmp	r4, #0
 8008fe4:	d1eb      	bne.n	8008fbe <ui2a.lto_priv.33+0x2e>
        if (n || dgt>0 || d==0) {
            *bf++ = dgt+(dgt<10 ? '0' : (uc ? 'A' : 'a')-10);
            ++n;
            }
        }
    *bf=0;
 8008fe6:	2300      	movs	r3, #0
 8008fe8:	703b      	strb	r3, [r7, #0]
 8008fea:	bdf0      	pop	{r4, r5, r6, r7, pc}
        d*=base;        
    while (d!=0) {
        int dgt = num / d;
        num%= d;
        d/=base;
        if (n || dgt>0 || d==0) {
 8008fec:	b10c      	cbz	r4, 8008ff2 <ui2a.lto_priv.33+0x62>
 8008fee:	461f      	mov	r7, r3
 8008ff0:	e7e5      	b.n	8008fbe <ui2a.lto_priv.33+0x2e>
            *bf++ = dgt+(dgt<10 ? '0' : (uc ? 'A' : 'a')-10);
 8008ff2:	3530      	adds	r5, #48	; 0x30
 8008ff4:	701d      	strb	r5, [r3, #0]
 8008ff6:	1c5f      	adds	r7, r3, #1
            ++n;
            }
        }
    *bf=0;
 8008ff8:	2300      	movs	r3, #0
 8008ffa:	703b      	strb	r3, [r7, #0]
 8008ffc:	bdf0      	pop	{r4, r5, r6, r7, pc}
 8008ffe:	4605      	mov	r5, r0
#endif

static void ui2a(unsigned int num, unsigned int base, int uc,char * bf)
    {
    int n=0;
    unsigned int d=1;
 8009000:	2401      	movs	r4, #1
 8009002:	e7d0      	b.n	8008fa6 <ui2a.lto_priv.33+0x16>
    while (num/d >= base)
        d*=base;        
    while (d!=0) {
 8009004:	461f      	mov	r7, r3
 8009006:	e7ee      	b.n	8008fe6 <ui2a.lto_priv.33+0x56>
 8009008:	f3af 8000 	nop.w
 800900c:	f3af 8000 	nop.w

08009010 <uli2a.lto_priv.34>:

static void uli2a(unsigned long int num, unsigned int base, int uc,char * bf)
    {
    int n=0;
    unsigned int d=1;
    while (num/d >= base)
 8009010:	4288      	cmp	r0, r1
#define PRINTF_LONG_SUPPORT

#ifdef PRINTF_LONG_SUPPORT

static void uli2a(unsigned long int num, unsigned int base, int uc,char * bf)
    {
 8009012:	b5f0      	push	{r4, r5, r6, r7, lr}
    int n=0;
    unsigned int d=1;
    while (num/d >= base)
 8009014:	d333      	bcc.n	800907e <uli2a.lto_priv.34+0x6e>
 8009016:	2401      	movs	r4, #1
        d*=base;         
 8009018:	fb01 f404 	mul.w	r4, r1, r4

static void uli2a(unsigned long int num, unsigned int base, int uc,char * bf)
    {
    int n=0;
    unsigned int d=1;
    while (num/d >= base)
 800901c:	fbb0 f5f4 	udiv	r5, r0, r4
 8009020:	428d      	cmp	r5, r1
 8009022:	d2f9      	bcs.n	8009018 <uli2a.lto_priv.34+0x8>
        d*=base;         
    while (d!=0) {
 8009024:	b374      	cbz	r4, 8009084 <uli2a.lto_priv.34+0x74>
        int dgt = num / d;
        num%=d;
        d/=base;
        if (n || dgt>0|| d==0) {
 8009026:	2600      	movs	r6, #0
 8009028:	e00c      	b.n	8009044 <uli2a.lto_priv.34+0x34>
            *bf++ = dgt+(dgt<10 ? '0' : (uc ? 'A' : 'a')-10);
 800902a:	2a00      	cmp	r2, #0
 800902c:	bf14      	ite	ne
 800902e:	f04f 0e37 	movne.w	lr, #55	; 0x37
 8009032:	f04f 0e57 	moveq.w	lr, #87	; 0x57
 8009036:	4475      	add	r5, lr
 8009038:	701d      	strb	r5, [r3, #0]
            ++n;
 800903a:	3601      	adds	r6, #1
    {
    int n=0;
    unsigned int d=1;
    while (num/d >= base)
        d*=base;         
    while (d!=0) {
 800903c:	b19c      	cbz	r4, 8009066 <uli2a.lto_priv.34+0x56>
        int dgt = num / d;
        num%=d;
        d/=base;
        if (n || dgt>0|| d==0) {
 800903e:	463b      	mov	r3, r7
 8009040:	fbb0 f5f4 	udiv	r5, r0, r4
    unsigned int d=1;
    while (num/d >= base)
        d*=base;         
    while (d!=0) {
        int dgt = num / d;
        num%=d;
 8009044:	fb04 0015 	mls	r0, r4, r5, r0
        d/=base;
        if (n || dgt>0|| d==0) {
            *bf++ = dgt+(dgt<10 ? '0' : (uc ? 'A' : 'a')-10);
 8009048:	1c5f      	adds	r7, r3, #1
    while (num/d >= base)
        d*=base;         
    while (d!=0) {
        int dgt = num / d;
        num%=d;
        d/=base;
 800904a:	fbb4 f4f1 	udiv	r4, r4, r1
        if (n || dgt>0|| d==0) {
 800904e:	b90e      	cbnz	r6, 8009054 <uli2a.lto_priv.34+0x44>
 8009050:	2d00      	cmp	r5, #0
 8009052:	dd0b      	ble.n	800906c <uli2a.lto_priv.34+0x5c>
            *bf++ = dgt+(dgt<10 ? '0' : (uc ? 'A' : 'a')-10);
 8009054:	2d09      	cmp	r5, #9
 8009056:	dce8      	bgt.n	800902a <uli2a.lto_priv.34+0x1a>
 8009058:	f04f 0e30 	mov.w	lr, #48	; 0x30
 800905c:	4475      	add	r5, lr
 800905e:	701d      	strb	r5, [r3, #0]
            ++n;
 8009060:	3601      	adds	r6, #1
    {
    int n=0;
    unsigned int d=1;
    while (num/d >= base)
        d*=base;         
    while (d!=0) {
 8009062:	2c00      	cmp	r4, #0
 8009064:	d1eb      	bne.n	800903e <uli2a.lto_priv.34+0x2e>
        if (n || dgt>0|| d==0) {
            *bf++ = dgt+(dgt<10 ? '0' : (uc ? 'A' : 'a')-10);
            ++n;
            }
        }
    *bf=0;
 8009066:	2300      	movs	r3, #0
 8009068:	703b      	strb	r3, [r7, #0]
 800906a:	bdf0      	pop	{r4, r5, r6, r7, pc}
        d*=base;         
    while (d!=0) {
        int dgt = num / d;
        num%=d;
        d/=base;
        if (n || dgt>0|| d==0) {
 800906c:	b10c      	cbz	r4, 8009072 <uli2a.lto_priv.34+0x62>
 800906e:	461f      	mov	r7, r3
 8009070:	e7e5      	b.n	800903e <uli2a.lto_priv.34+0x2e>
            *bf++ = dgt+(dgt<10 ? '0' : (uc ? 'A' : 'a')-10);
 8009072:	3530      	adds	r5, #48	; 0x30
 8009074:	701d      	strb	r5, [r3, #0]
 8009076:	1c5f      	adds	r7, r3, #1
            ++n;
            }
        }
    *bf=0;
 8009078:	2300      	movs	r3, #0
 800907a:	703b      	strb	r3, [r7, #0]
 800907c:	bdf0      	pop	{r4, r5, r6, r7, pc}
 800907e:	4605      	mov	r5, r0
#ifdef PRINTF_LONG_SUPPORT

static void uli2a(unsigned long int num, unsigned int base, int uc,char * bf)
    {
    int n=0;
    unsigned int d=1;
 8009080:	2401      	movs	r4, #1
 8009082:	e7d0      	b.n	8009026 <uli2a.lto_priv.34+0x16>
    while (num/d >= base)
        d*=base;         
    while (d!=0) {
 8009084:	461f      	mov	r7, r3
 8009086:	e7ee      	b.n	8009066 <uli2a.lto_priv.34+0x56>
 8009088:	f3af 8000 	nop.w
 800908c:	f3af 8000 	nop.w

08009090 <del_mods>:


/* modifier */
uint8_t get_mods(void) { return real_mods; }
void add_mods(uint8_t mods) { real_mods |= mods; }
void del_mods(uint8_t mods) { real_mods &= ~mods; }
 8009090:	4a02      	ldr	r2, [pc, #8]	; (800909c <del_mods+0xc>)
 8009092:	7813      	ldrb	r3, [r2, #0]
 8009094:	ea23 0000 	bic.w	r0, r3, r0
 8009098:	7010      	strb	r0, [r2, #0]
 800909a:	4770      	bx	lr
 800909c:	2000154e 	.word	0x2000154e

080090a0 <add_mods>:
}


/* modifier */
uint8_t get_mods(void) { return real_mods; }
void add_mods(uint8_t mods) { real_mods |= mods; }
 80090a0:	4a02      	ldr	r2, [pc, #8]	; (80090ac <add_mods+0xc>)
 80090a2:	7813      	ldrb	r3, [r2, #0]
 80090a4:	4318      	orrs	r0, r3
 80090a6:	7010      	strb	r0, [r2, #0]
 80090a8:	4770      	bx	lr
 80090aa:	bf00      	nop
 80090ac:	2000154e 	.word	0x2000154e

080090b0 <send_keyboard_report>:
static int16_t oneshot_time = 0;
#endif
#endif


void send_keyboard_report(void) {
 80090b0:	b570      	push	{r4, r5, r6, lr}
    keyboard_report->mods  = real_mods;
 80090b2:	4a22      	ldr	r2, [pc, #136]	; (800913c <send_keyboard_report+0x8c>)
 80090b4:	4b22      	ldr	r3, [pc, #136]	; (8009140 <send_keyboard_report+0x90>)
 80090b6:	6814      	ldr	r4, [r2, #0]
 80090b8:	781a      	ldrb	r2, [r3, #0]
    keyboard_report->mods |= weak_mods;
 80090ba:	4b22      	ldr	r3, [pc, #136]	; (8009144 <send_keyboard_report+0x94>)
#endif
#endif


void send_keyboard_report(void) {
    keyboard_report->mods  = real_mods;
 80090bc:	7022      	strb	r2, [r4, #0]
    keyboard_report->mods |= weak_mods;
 80090be:	781b      	ldrb	r3, [r3, #0]
#ifndef NO_ACTION_ONESHOT
    if (oneshot_mods) {
 80090c0:	4e21      	ldr	r6, [pc, #132]	; (8009148 <send_keyboard_report+0x98>)
#endif


void send_keyboard_report(void) {
    keyboard_report->mods  = real_mods;
    keyboard_report->mods |= weak_mods;
 80090c2:	431a      	orrs	r2, r3
 80090c4:	7022      	strb	r2, [r4, #0]
#ifndef NO_ACTION_ONESHOT
    if (oneshot_mods) {
 80090c6:	7831      	ldrb	r1, [r6, #0]
 80090c8:	b179      	cbz	r1, 80090ea <send_keyboard_report+0x3a>
 80090ca:	4623      	mov	r3, r4
        if (TIMER_DIFF_16(timer_read(), oneshot_time) >= ONESHOT_TIMEOUT) {
            dprintf("Oneshot: timeout\n");
            clear_oneshot_mods();
        }
#endif
        keyboard_report->mods |= oneshot_mods;
 80090cc:	430a      	orrs	r2, r1
 80090ce:	7022      	strb	r2, [r4, #0]
 80090d0:	f104 050f 	add.w	r5, r4, #15
/*
 * inspect keyboard state
 */
uint8_t has_anykey(void)
{
    uint8_t cnt = 0;
 80090d4:	2100      	movs	r1, #0
    for (uint8_t i = 1; i < KEYBOARD_REPORT_SIZE; i++) {
        if (keyboard_report->raw[i])
 80090d6:	f813 2f01 	ldrb.w	r2, [r3, #1]!
            cnt++;
 80090da:	1c48      	adds	r0, r1, #1
 */
uint8_t has_anykey(void)
{
    uint8_t cnt = 0;
    for (uint8_t i = 1; i < KEYBOARD_REPORT_SIZE; i++) {
        if (keyboard_report->raw[i])
 80090dc:	b102      	cbz	r2, 80090e0 <send_keyboard_report+0x30>
            cnt++;
 80090de:	b2c1      	uxtb	r1, r0
 * inspect keyboard state
 */
uint8_t has_anykey(void)
{
    uint8_t cnt = 0;
    for (uint8_t i = 1; i < KEYBOARD_REPORT_SIZE; i++) {
 80090e0:	42ab      	cmp	r3, r5
 80090e2:	d1f8      	bne.n	80090d6 <send_keyboard_report+0x26>
            dprintf("Oneshot: timeout\n");
            clear_oneshot_mods();
        }
#endif
        keyboard_report->mods |= oneshot_mods;
        if (has_anykey()) {
 80090e4:	b109      	cbz	r1, 80090ea <send_keyboard_report+0x3a>
    oneshot_time = timer_read();
#endif
}
void clear_oneshot_mods(void)
{
    oneshot_mods = 0;
 80090e6:	2300      	movs	r3, #0
 80090e8:	7033      	strb	r3, [r6, #0]
    return (*driver->keyboard_leds)();
}
/* send report */
void host_keyboard_send(report_keyboard_t *report)
{
    if (!driver) return;
 80090ea:	4b18      	ldr	r3, [pc, #96]	; (800914c <send_keyboard_report+0x9c>)
 80090ec:	681b      	ldr	r3, [r3, #0]
 80090ee:	b183      	cbz	r3, 8009112 <send_keyboard_report+0x62>
    (*driver->send_keyboard)(report);

    if (debug_keyboard) {
 80090f0:	4e17      	ldr	r6, [pc, #92]	; (8009150 <send_keyboard_report+0xa0>)
}
/* send report */
void host_keyboard_send(report_keyboard_t *report)
{
    if (!driver) return;
    (*driver->send_keyboard)(report);
 80090f2:	685b      	ldr	r3, [r3, #4]
 80090f4:	4620      	mov	r0, r4
 80090f6:	4798      	blx	r3

    if (debug_keyboard) {
 80090f8:	7833      	ldrb	r3, [r6, #0]
 80090fa:	075a      	lsls	r2, r3, #29
 80090fc:	d509      	bpl.n	8009112 <send_keyboard_report+0x62>
        dprint("keyboard_report: ");
 80090fe:	f013 0301 	ands.w	r3, r3, #1
 8009102:	d114      	bne.n	800912e <send_keyboard_report+0x7e>
 8009104:	f104 0510 	add.w	r5, r4, #16
        for (uint8_t i = 0; i < KEYBOARD_REPORT_SIZE; i++) {
            dprintf("%02X ", report->raw[i]);
 8009108:	b923      	cbnz	r3, 8009114 <send_keyboard_report+0x64>
 800910a:	3401      	adds	r4, #1
    if (!driver) return;
    (*driver->send_keyboard)(report);

    if (debug_keyboard) {
        dprint("keyboard_report: ");
        for (uint8_t i = 0; i < KEYBOARD_REPORT_SIZE; i++) {
 800910c:	42ac      	cmp	r4, r5
 800910e:	d1fb      	bne.n	8009108 <send_keyboard_report+0x58>
            dprintf("%02X ", report->raw[i]);
        }
        dprint("\n");
 8009110:	b943      	cbnz	r3, 8009124 <send_keyboard_report+0x74>
 8009112:	bd70      	pop	{r4, r5, r6, pc}
    (*driver->send_keyboard)(report);

    if (debug_keyboard) {
        dprint("keyboard_report: ");
        for (uint8_t i = 0; i < KEYBOARD_REPORT_SIZE; i++) {
            dprintf("%02X ", report->raw[i]);
 8009114:	480f      	ldr	r0, [pc, #60]	; (8009154 <send_keyboard_report+0xa4>)
 8009116:	7821      	ldrb	r1, [r4, #0]
 8009118:	f7ff fae2 	bl	80086e0 <tfp_printf>
 800911c:	7833      	ldrb	r3, [r6, #0]
 800911e:	f003 0301 	and.w	r3, r3, #1
 8009122:	e7f2      	b.n	800910a <send_keyboard_report+0x5a>
        }
        dprint("\n");
 8009124:	480c      	ldr	r0, [pc, #48]	; (8009158 <send_keyboard_report+0xa8>)
            clear_oneshot_mods();
        }
    }
#endif
    host_keyboard_send(keyboard_report);
}
 8009126:	e8bd 4070 	ldmia.w	sp!, {r4, r5, r6, lr}
 800912a:	f7ff bad9 	b.w	80086e0 <tfp_printf>
{
    if (!driver) return;
    (*driver->send_keyboard)(report);

    if (debug_keyboard) {
        dprint("keyboard_report: ");
 800912e:	480b      	ldr	r0, [pc, #44]	; (800915c <send_keyboard_report+0xac>)
 8009130:	f7ff fad6 	bl	80086e0 <tfp_printf>
 8009134:	7833      	ldrb	r3, [r6, #0]
 8009136:	f003 0301 	and.w	r3, r3, #1
 800913a:	e7e3      	b.n	8009104 <send_keyboard_report+0x54>
 800913c:	20001238 	.word	0x20001238
 8009140:	2000154e 	.word	0x2000154e
 8009144:	200015ba 	.word	0x200015ba
 8009148:	200015cc 	.word	0x200015cc
 800914c:	200014ac 	.word	0x200014ac
 8009150:	20001544 	.word	0x20001544
 8009154:	0800a874 	.word	0x0800a874
 8009158:	0800a8c0 	.word	0x0800a8c0
 800915c:	0800a860 	.word	0x0800a860

08009160 <layer_switch_get_action>:
#endif



action_t layer_switch_get_action(keypos_t key)
{
 8009160:	b530      	push	{r4, r5, lr}
    action_t action;
    action.code = ACTION_TRANSPARENT;

#ifndef NO_ACTION_LAYER
    uint32_t layers = layer_state | default_layer_state;
 8009162:	4a10      	ldr	r2, [pc, #64]	; (80091a4 <layer_switch_get_action+0x44>)
 8009164:	4b10      	ldr	r3, [pc, #64]	; (80091a8 <layer_switch_get_action+0x48>)
 8009166:	6815      	ldr	r5, [r2, #0]
 8009168:	681b      	ldr	r3, [r3, #0]
#endif



action_t layer_switch_get_action(keypos_t key)
{
 800916a:	b083      	sub	sp, #12
 800916c:	f8ad 0004 	strh.w	r0, [sp, #4]
    action_t action;
    action.code = ACTION_TRANSPARENT;

#ifndef NO_ACTION_LAYER
    uint32_t layers = layer_state | default_layer_state;
 8009170:	431d      	orrs	r5, r3
 8009172:	241f      	movs	r4, #31
 8009174:	e002      	b.n	800917c <layer_switch_get_action+0x1c>
    /* check top layer first */
    for (int8_t i = 31; i >= 0; i--) {
 8009176:	f114 34ff 	adds.w	r4, r4, #4294967295
 800917a:	d30c      	bcc.n	8009196 <layer_switch_get_action+0x36>
        if (layers & (1UL<<i)) {
 800917c:	fa25 f304 	lsr.w	r3, r5, r4
 8009180:	07db      	lsls	r3, r3, #31
 8009182:	d5f8      	bpl.n	8009176 <layer_switch_get_action+0x16>
            action = action_for_key(i, key);
 8009184:	b2e0      	uxtb	r0, r4
 8009186:	9901      	ldr	r1, [sp, #4]
 8009188:	f7ff fec2 	bl	8008f10 <action_for_key>
 800918c:	b280      	uxth	r0, r0
            if (action.code != ACTION_TRANSPARENT) {
 800918e:	2801      	cmp	r0, #1
 8009190:	d0f1      	beq.n	8009176 <layer_switch_get_action+0x16>
    return action;
#else
    action = action_for_key(biton32(default_layer_state), key);
    return action;
#endif
}
 8009192:	b003      	add	sp, #12
 8009194:	bd30      	pop	{r4, r5, pc}
                return action;
            }
        }
    }
    /* fall back to layer 0 */
    action = action_for_key(0, key);
 8009196:	9901      	ldr	r1, [sp, #4]
 8009198:	2000      	movs	r0, #0
 800919a:	f7ff feb9 	bl	8008f10 <action_for_key>
    return action;
#else
    action = action_for_key(biton32(default_layer_state), key);
    return action;
#endif
}
 800919e:	b003      	add	sp, #12
 80091a0:	bd30      	pop	{r4, r5, pc}
 80091a2:	bf00      	nop
 80091a4:	2000153c 	.word	0x2000153c
 80091a8:	200015b4 	.word	0x200015b4
 80091ac:	f3af 8000 	nop.w

080091b0 <layer_off>:

static void layer_state_set(uint32_t state)
{
    dprint("layer_state: ");
    layer_debug(); dprint(" to ");
    layer_state = state;
 80091b0:	4904      	ldr	r1, [pc, #16]	; (80091c4 <layer_off+0x14>)
    layer_state_set(layer_state | (1UL<<layer));
}

void layer_off(uint8_t layer)
{
    layer_state_set(layer_state & ~(1UL<<layer));
 80091b2:	2201      	movs	r2, #1
 80091b4:	680b      	ldr	r3, [r1, #0]
 80091b6:	4082      	lsls	r2, r0
 80091b8:	ea23 0302 	bic.w	r3, r3, r2

static void layer_state_set(uint32_t state)
{
    dprint("layer_state: ");
    layer_debug(); dprint(" to ");
    layer_state = state;
 80091bc:	600b      	str	r3, [r1, #0]
    layer_debug(); dprintln();
    clear_keyboard_but_mods(); // To avoid stuck keys
 80091be:	f000 ba9f 	b.w	8009700 <clear_keyboard_but_mods>
 80091c2:	bf00      	nop
 80091c4:	200015b4 	.word	0x200015b4
 80091c8:	f3af 8000 	nop.w
 80091cc:	f3af 8000 	nop.w

080091d0 <layer_on>:

static void layer_state_set(uint32_t state)
{
    dprint("layer_state: ");
    layer_debug(); dprint(" to ");
    layer_state = state;
 80091d0:	4903      	ldr	r1, [pc, #12]	; (80091e0 <layer_on+0x10>)
    layer_state_set(1UL<<layer);
}

void layer_on(uint8_t layer)
{
    layer_state_set(layer_state | (1UL<<layer));
 80091d2:	2201      	movs	r2, #1
 80091d4:	680b      	ldr	r3, [r1, #0]
 80091d6:	4082      	lsls	r2, r0
 80091d8:	4313      	orrs	r3, r2

static void layer_state_set(uint32_t state)
{
    dprint("layer_state: ");
    layer_debug(); dprint(" to ");
    layer_state = state;
 80091da:	600b      	str	r3, [r1, #0]
    layer_debug(); dprintln();
    clear_keyboard_but_mods(); // To avoid stuck keys
 80091dc:	f000 ba90 	b.w	8009700 <clear_keyboard_but_mods>
 80091e0:	200015b4 	.word	0x200015b4
 80091e4:	f3af 8000 	nop.w
 80091e8:	f3af 8000 	nop.w
 80091ec:	f3af 8000 	nop.w

080091f0 <debug_waiting_buffer.lto_priv.53>:
}

static void debug_waiting_buffer(void)
{
    debug("{ ");
    for (uint8_t i = waiting_buffer_tail; i != waiting_buffer_head; i = (i + 1) % WAITING_BUFFER_SIZE) {
 80091f0:	4b05      	ldr	r3, [pc, #20]	; (8009208 <debug_waiting_buffer.lto_priv.53+0x18>)
 80091f2:	4a06      	ldr	r2, [pc, #24]	; (800920c <debug_waiting_buffer.lto_priv.53+0x1c>)
 80091f4:	781b      	ldrb	r3, [r3, #0]
 80091f6:	7812      	ldrb	r2, [r2, #0]
 80091f8:	4293      	cmp	r3, r2
 80091fa:	d004      	beq.n	8009206 <debug_waiting_buffer.lto_priv.53+0x16>
 80091fc:	3301      	adds	r3, #1
 80091fe:	f003 0307 	and.w	r3, r3, #7
 8009202:	4293      	cmp	r3, r2
 8009204:	d1fa      	bne.n	80091fc <debug_waiting_buffer.lto_priv.53+0xc>
 8009206:	4770      	bx	lr
 8009208:	200015b9 	.word	0x200015b9
 800920c:	200015b8 	.word	0x200015b8

08009210 <waiting_buffer_scan_tap>:

/* scan buffer for tapping */
void waiting_buffer_scan_tap(void)
{
    // tapping already is settled
    if (tapping_key.tap.count > 0) return;
 8009210:	492e      	ldr	r1, [pc, #184]	; (80092cc <waiting_buffer_scan_tap+0xbc>)
 8009212:	798b      	ldrb	r3, [r1, #6]
 8009214:	091b      	lsrs	r3, r3, #4
 8009216:	d000      	beq.n	800921a <waiting_buffer_scan_tap+0xa>
 8009218:	4770      	bx	lr
    // invalid state: tapping_key released && tap.count == 0
    if (!tapping_key.event.pressed) return;
 800921a:	788b      	ldrb	r3, [r1, #2]
 800921c:	2b00      	cmp	r3, #0
 800921e:	d0fb      	beq.n	8009218 <waiting_buffer_scan_tap+0x8>
    return false;
}

/* scan buffer for tapping */
void waiting_buffer_scan_tap(void)
{
 8009220:	e92d 47f0 	stmdb	sp!, {r4, r5, r6, r7, r8, r9, sl, lr}
    // tapping already is settled
    if (tapping_key.tap.count > 0) return;
    // invalid state: tapping_key released && tap.count == 0
    if (!tapping_key.event.pressed) return;

    for (uint8_t i = waiting_buffer_tail; i != waiting_buffer_head; i = (i + 1) % WAITING_BUFFER_SIZE) {
 8009224:	4b2a      	ldr	r3, [pc, #168]	; (80092d0 <waiting_buffer_scan_tap+0xc0>)
 8009226:	4d2b      	ldr	r5, [pc, #172]	; (80092d4 <waiting_buffer_scan_tap+0xc4>)
 8009228:	781b      	ldrb	r3, [r3, #0]
 800922a:	782a      	ldrb	r2, [r5, #0]
    return false;
}

/* scan buffer for tapping */
void waiting_buffer_scan_tap(void)
{
 800922c:	b082      	sub	sp, #8
    // tapping already is settled
    if (tapping_key.tap.count > 0) return;
    // invalid state: tapping_key released && tap.count == 0
    if (!tapping_key.event.pressed) return;

    for (uint8_t i = waiting_buffer_tail; i != waiting_buffer_head; i = (i + 1) % WAITING_BUFFER_SIZE) {
 800922e:	429a      	cmp	r2, r3
 8009230:	d048      	beq.n	80092c4 <waiting_buffer_scan_tap+0xb4>
        if (IS_TAPPING_KEY(waiting_buffer[i].event.key) &&
 8009232:	f8df c0a4 	ldr.w	ip, [pc, #164]	; 80092d8 <waiting_buffer_scan_tap+0xc8>
 8009236:	f64f 7eff 	movw	lr, #65535	; 0xffff
 800923a:	46e0      	mov	r8, ip
 800923c:	e005      	b.n	800924a <waiting_buffer_scan_tap+0x3a>
    // tapping already is settled
    if (tapping_key.tap.count > 0) return;
    // invalid state: tapping_key released && tap.count == 0
    if (!tapping_key.event.pressed) return;

    for (uint8_t i = waiting_buffer_tail; i != waiting_buffer_head; i = (i + 1) % WAITING_BUFFER_SIZE) {
 800923e:	3301      	adds	r3, #1
 8009240:	782a      	ldrb	r2, [r5, #0]
 8009242:	f003 0307 	and.w	r3, r3, #7
 8009246:	429a      	cmp	r2, r3
 8009248:	d03c      	beq.n	80092c4 <waiting_buffer_scan_tap+0xb4>
 800924a:	888a      	ldrh	r2, [r1, #4]
 800924c:	780c      	ldrb	r4, [r1, #0]
 800924e:	7848      	ldrb	r0, [r1, #1]
 8009250:	2a00      	cmp	r2, #0
 8009252:	d0f4      	beq.n	800923e <waiting_buffer_scan_tap+0x2e>
 8009254:	f88d 4000 	strb.w	r4, [sp]
 8009258:	f88d 0001 	strb.w	r0, [sp, #1]
 800925c:	f8bd 6000 	ldrh.w	r6, [sp]
 8009260:	4576      	cmp	r6, lr
 8009262:	d0ec      	beq.n	800923e <waiting_buffer_scan_tap+0x2e>
        if (IS_TAPPING_KEY(waiting_buffer[i].event.key) &&
 8009264:	00df      	lsls	r7, r3, #3
 8009266:	eb0c 0607 	add.w	r6, ip, r7
 800926a:	f896 9001 	ldrb.w	r9, [r6, #1]
 800926e:	f8df a068 	ldr.w	sl, [pc, #104]	; 80092d8 <waiting_buffer_scan_tap+0xc8>
 8009272:	4581      	cmp	r9, r0
 8009274:	d1e3      	bne.n	800923e <waiting_buffer_scan_tap+0x2e>
 8009276:	f818 0033 	ldrb.w	r0, [r8, r3, lsl #3]
 800927a:	42a0      	cmp	r0, r4
 800927c:	d1df      	bne.n	800923e <waiting_buffer_scan_tap+0x2e>
 800927e:	78b0      	ldrb	r0, [r6, #2]
 8009280:	2800      	cmp	r0, #0
 8009282:	d1dc      	bne.n	800923e <waiting_buffer_scan_tap+0x2e>
                !waiting_buffer[i].event.pressed &&
                WITHIN_TAPPING_TERM(waiting_buffer[i].event)) {
 8009284:	88b0      	ldrh	r0, [r6, #4]
 8009286:	4282      	cmp	r2, r0
 8009288:	bf85      	ittet	hi
 800928a:	f5c2 427f 	rsbhi	r2, r2, #65280	; 0xff00
 800928e:	32ff      	addhi	r2, #255	; 0xff
 8009290:	1a82      	subls	r2, r0, r2
 8009292:	1812      	addhi	r2, r2, r0
 8009294:	2ac7      	cmp	r2, #199	; 0xc7
 8009296:	bfcc      	ite	gt
 8009298:	2200      	movgt	r2, #0
 800929a:	2201      	movle	r2, #1
    // invalid state: tapping_key released && tap.count == 0
    if (!tapping_key.event.pressed) return;

    for (uint8_t i = waiting_buffer_tail; i != waiting_buffer_head; i = (i + 1) % WAITING_BUFFER_SIZE) {
        if (IS_TAPPING_KEY(waiting_buffer[i].event.key) &&
                !waiting_buffer[i].event.pressed &&
 800929c:	2a00      	cmp	r2, #0
 800929e:	d0ce      	beq.n	800923e <waiting_buffer_scan_tap+0x2e>
                WITHIN_TAPPING_TERM(waiting_buffer[i].event)) {
            tapping_key.tap.count = 1;
            waiting_buffer[i].tap.count = 1;
 80092a0:	4457      	add	r7, sl
 80092a2:	79ba      	ldrb	r2, [r7, #6]

    for (uint8_t i = waiting_buffer_tail; i != waiting_buffer_head; i = (i + 1) % WAITING_BUFFER_SIZE) {
        if (IS_TAPPING_KEY(waiting_buffer[i].event.key) &&
                !waiting_buffer[i].event.pressed &&
                WITHIN_TAPPING_TERM(waiting_buffer[i].event)) {
            tapping_key.tap.count = 1;
 80092a4:	798b      	ldrb	r3, [r1, #6]
 80092a6:	2001      	movs	r0, #1
            waiting_buffer[i].tap.count = 1;
 80092a8:	f360 1207 	bfi	r2, r0, #4, #4

    for (uint8_t i = waiting_buffer_tail; i != waiting_buffer_head; i = (i + 1) % WAITING_BUFFER_SIZE) {
        if (IS_TAPPING_KEY(waiting_buffer[i].event.key) &&
                !waiting_buffer[i].event.pressed &&
                WITHIN_TAPPING_TERM(waiting_buffer[i].event)) {
            tapping_key.tap.count = 1;
 80092ac:	f360 1307 	bfi	r3, r0, #4, #4
            waiting_buffer[i].tap.count = 1;
 80092b0:	71ba      	strb	r2, [r7, #6]
            process_action(&tapping_key);
 80092b2:	4806      	ldr	r0, [pc, #24]	; (80092cc <waiting_buffer_scan_tap+0xbc>)

    for (uint8_t i = waiting_buffer_tail; i != waiting_buffer_head; i = (i + 1) % WAITING_BUFFER_SIZE) {
        if (IS_TAPPING_KEY(waiting_buffer[i].event.key) &&
                !waiting_buffer[i].event.pressed &&
                WITHIN_TAPPING_TERM(waiting_buffer[i].event)) {
            tapping_key.tap.count = 1;
 80092b4:	718b      	strb	r3, [r1, #6]
            waiting_buffer[i].tap.count = 1;
            process_action(&tapping_key);
 80092b6:	f7fe fd63 	bl	8007d80 <process_action>
            debug("waiting_buffer_scan_tap: found at ["); debug_dec(i); debug("]\n");
            debug_waiting_buffer();
            return;
        }
    }
}
 80092ba:	b002      	add	sp, #8
 80092bc:	e8bd 47f0 	ldmia.w	sp!, {r4, r5, r6, r7, r8, r9, sl, lr}
            tapping_key.tap.count = 1;
            waiting_buffer[i].tap.count = 1;
            process_action(&tapping_key);

            debug("waiting_buffer_scan_tap: found at ["); debug_dec(i); debug("]\n");
            debug_waiting_buffer();
 80092c0:	f7ff bf96 	b.w	80091f0 <debug_waiting_buffer.lto_priv.53>
            return;
        }
    }
}
 80092c4:	b002      	add	sp, #8
 80092c6:	e8bd 87f0 	ldmia.w	sp!, {r4, r5, r6, r7, r8, r9, sl, pc}
 80092ca:	bf00      	nop
 80092cc:	200015d0 	.word	0x200015d0
 80092d0:	200015b9 	.word	0x200015b9
 80092d4:	200015b8 	.word	0x200015b8
 80092d8:	20001574 	.word	0x20001574
 80092dc:	f3af 8000 	nop.w

080092e0 <process_tapping.lto_priv.52>:
 * Rule: Tap key is typed(pressed and released) within TAPPING_TERM.
 *       (without interfering by typing other key)
 */
/* return true when key event is processed or consumed. */
bool process_tapping(keyrecord_t *keyp)
{
 80092e0:	e92d 47f0 	stmdb	sp!, {r4, r5, r6, r7, r8, r9, sl, lr}
 80092e4:	4604      	mov	r4, r0
 80092e6:	4dc3      	ldr	r5, [pc, #780]	; (80095f4 <process_tapping.lto_priv.52+0x314>)
    keyevent_t event = keyp->event;
 80092e8:	6800      	ldr	r0, [r0, #0]
 80092ea:	88ab      	ldrh	r3, [r5, #4]
 * Rule: Tap key is typed(pressed and released) within TAPPING_TERM.
 *       (without interfering by typing other key)
 */
/* return true when key event is processed or consumed. */
bool process_tapping(keyrecord_t *keyp)
{
 80092ec:	b094      	sub	sp, #80	; 0x50
    keyevent_t event = keyp->event;
 80092ee:	9000      	str	r0, [sp, #0]
 80092f0:	f894 e000 	ldrb.w	lr, [r4]
 80092f4:	7862      	ldrb	r2, [r4, #1]
 80092f6:	f894 9002 	ldrb.w	r9, [r4, #2]
 80092fa:	f8b4 8004 	ldrh.w	r8, [r4, #4]
 80092fe:	7828      	ldrb	r0, [r5, #0]
 8009300:	7869      	ldrb	r1, [r5, #1]
 8009302:	2b00      	cmp	r3, #0
 8009304:	d054      	beq.n	80093b0 <process_tapping.lto_priv.52+0xd0>
 8009306:	f64f 76ff 	movw	r6, #65535	; 0xffff
 800930a:	f88d 0008 	strb.w	r0, [sp, #8]
 800930e:	f88d 1009 	strb.w	r1, [sp, #9]
 8009312:	f8bd 7008 	ldrh.w	r7, [sp, #8]
 8009316:	42b7      	cmp	r7, r6
 8009318:	d002      	beq.n	8009320 <process_tapping.lto_priv.52+0x40>

    // if tapping
    if (IS_TAPPING_PRESSED()) {
 800931a:	78af      	ldrb	r7, [r5, #2]
 800931c:	2f00      	cmp	r7, #0
 800931e:	d15c      	bne.n	80093da <process_tapping.lto_priv.52+0xfa>
 8009320:	f64f 76ff 	movw	r6, #65535	; 0xffff
 8009324:	f88d 0030 	strb.w	r0, [sp, #48]	; 0x30
 8009328:	f88d 1031 	strb.w	r1, [sp, #49]	; 0x31
 800932c:	f8bd 7030 	ldrh.w	r7, [sp, #48]	; 0x30
 8009330:	42b7      	cmp	r7, r6
 8009332:	d03d      	beq.n	80093b0 <process_tapping.lto_priv.52+0xd0>
                    process_action(keyp);
                    return true;
                }
            }
        }
    } else if (IS_TAPPING_RELEASED()) {
 8009334:	78ae      	ldrb	r6, [r5, #2]
 8009336:	2e00      	cmp	r6, #0
 8009338:	d13a      	bne.n	80093b0 <process_tapping.lto_priv.52+0xd0>
        if (WITHIN_TAPPING_TERM(event)) {
 800933a:	4598      	cmp	r8, r3
 800933c:	bf3b      	ittet	cc
 800933e:	f5c3 437f 	rsbcc	r3, r3, #65280	; 0xff00
 8009342:	33ff      	addcc	r3, #255	; 0xff
 8009344:	ebc3 0308 	rsbcs	r3, r3, r8
 8009348:	4443      	addcc	r3, r8
 800934a:	2bc7      	cmp	r3, #199	; 0xc7
 800934c:	bfcc      	ite	gt
 800934e:	2700      	movgt	r7, #0
 8009350:	2701      	movle	r7, #1
 8009352:	2f00      	cmp	r7, #0
 8009354:	f000 811d 	beq.w	8009592 <process_tapping.lto_priv.52+0x2b2>
            if (event.pressed) {
 8009358:	464f      	mov	r7, r9
 800935a:	b367      	cbz	r7, 80093b6 <process_tapping.lto_priv.52+0xd6>
 800935c:	f64f 73ff 	movw	r3, #65535	; 0xffff
 8009360:	f88d 0038 	strb.w	r0, [sp, #56]	; 0x38
 8009364:	f88d 1039 	strb.w	r1, [sp, #57]	; 0x39
 8009368:	f8bd 1038 	ldrh.w	r1, [sp, #56]	; 0x38
 800936c:	48a1      	ldr	r0, [pc, #644]	; (80095f4 <process_tapping.lto_priv.52+0x314>)
 800936e:	4299      	cmp	r1, r3
 8009370:	d009      	beq.n	8009386 <process_tapping.lto_priv.52+0xa6>
                if (IS_TAPPING_KEY(event.key)) {
 8009372:	f88d e000 	strb.w	lr, [sp]
 8009376:	f88d 2001 	strb.w	r2, [sp, #1]
 800937a:	f8bd 1000 	ldrh.w	r1, [sp]
 800937e:	8803      	ldrh	r3, [r0, #0]
 8009380:	4299      	cmp	r1, r3
 8009382:	f000 80dc 	beq.w	800953e <process_tapping.lto_priv.52+0x25e>
                    } else {
                        // FIX: start new tap again
                        tapping_key = *keyp;
                        return true;
                    }
                } else if (is_tap_key(event.key)) {
 8009386:	f88d e000 	strb.w	lr, [sp]
 800938a:	f88d 2001 	strb.w	r2, [sp, #1]
 800938e:	9800      	ldr	r0, [sp, #0]
 8009390:	f000 f986 	bl	80096a0 <is_tap_key>
 8009394:	2800      	cmp	r0, #0
 8009396:	f000 80ca 	beq.w	800952e <process_tapping.lto_priv.52+0x24e>
                                .event.pressed = false
                        });
                    } else {
                        debug("Tapping: Start while last tap(1).\n");
                    }
                    tapping_key = *keyp;
 800939a:	6820      	ldr	r0, [r4, #0]
 800939c:	6861      	ldr	r1, [r4, #4]
 800939e:	4b95      	ldr	r3, [pc, #596]	; (80095f4 <process_tapping.lto_priv.52+0x314>)
                    waiting_buffer_scan_tap();
                    debug_tapping_key();
                    return true;
 80093a0:	2701      	movs	r7, #1
                                .event.pressed = false
                        });
                    } else {
                        debug("Tapping: Start while last tap(1).\n");
                    }
                    tapping_key = *keyp;
 80093a2:	c303      	stmia	r3!, {r0, r1}
                    waiting_buffer_scan_tap();
 80093a4:	f7ff ff34 	bl	8009210 <waiting_buffer_scan_tap>
        } else {
            process_action(keyp);
            return true;
        }
    }
}
 80093a8:	4638      	mov	r0, r7
 80093aa:	b014      	add	sp, #80	; 0x50
 80093ac:	e8bd 87f0 	ldmia.w	sp!, {r4, r5, r6, r7, r8, r9, sl, pc}
            return false;
        }
    }
    // not tapping state
    else {
        if (event.pressed && is_tap_key(event.key)) {
 80093b0:	f1b9 0f00 	cmp.w	r9, #0
 80093b4:	d107      	bne.n	80093c6 <process_tapping.lto_priv.52+0xe6>
                }
                else {
                    if (!IS_NOEVENT(event)) {
                        debug("Tapping: key event while last tap(>0).\n");
                    }
                    process_action(keyp);
 80093b6:	4620      	mov	r0, r4
 80093b8:	f7fe fce2 	bl	8007d80 <process_action>
                    return true;
 80093bc:	2701      	movs	r7, #1
        } else {
            process_action(keyp);
            return true;
        }
    }
}
 80093be:	4638      	mov	r0, r7
 80093c0:	b014      	add	sp, #80	; 0x50
 80093c2:	e8bd 87f0 	ldmia.w	sp!, {r4, r5, r6, r7, r8, r9, sl, pc}
            return false;
        }
    }
    // not tapping state
    else {
        if (event.pressed && is_tap_key(event.key)) {
 80093c6:	f88d e000 	strb.w	lr, [sp]
 80093ca:	f88d 2001 	strb.w	r2, [sp, #1]
 80093ce:	9800      	ldr	r0, [sp, #0]
 80093d0:	f000 f966 	bl	80096a0 <is_tap_key>
 80093d4:	2800      	cmp	r0, #0
 80093d6:	d0ee      	beq.n	80093b6 <process_tapping.lto_priv.52+0xd6>
 80093d8:	e7df      	b.n	800939a <process_tapping.lto_priv.52+0xba>
{
    keyevent_t event = keyp->event;

    // if tapping
    if (IS_TAPPING_PRESSED()) {
        if (WITHIN_TAPPING_TERM(event)) {
 80093da:	4598      	cmp	r8, r3
 80093dc:	bf3b      	ittet	cc
 80093de:	f5c3 437f 	rsbcc	r3, r3, #65280	; 0xff00
 80093e2:	33ff      	addcc	r3, #255	; 0xff
 80093e4:	ebc3 0308 	rsbcs	r3, r3, r8
 80093e8:	4443      	addcc	r3, r8
 80093ea:	2bc7      	cmp	r3, #199	; 0xc7
 80093ec:	bfcc      	ite	gt
 80093ee:	2600      	movgt	r6, #0
 80093f0:	2601      	movle	r6, #1
            if (tapping_key.tap.count == 0) {
 80093f2:	79ab      	ldrb	r3, [r5, #6]
 80093f4:	f8df a1fc 	ldr.w	sl, [pc, #508]	; 80095f4 <process_tapping.lto_priv.52+0x314>
{
    keyevent_t event = keyp->event;

    // if tapping
    if (IS_TAPPING_PRESSED()) {
        if (WITHIN_TAPPING_TERM(event)) {
 80093f8:	bbb6      	cbnz	r6, 8009468 <process_tapping.lto_priv.52+0x188>
                }
            }
        }
        // after TAPPING_TERM
        else {
            if (tapping_key.tap.count == 0) {
 80093fa:	f013 0ff0 	tst.w	r3, #240	; 0xf0
 80093fe:	f000 811a 	beq.w	8009636 <process_tapping.lto_priv.52+0x356>
 8009402:	f64f 76ff 	movw	r6, #65535	; 0xffff
 8009406:	f88d 0028 	strb.w	r0, [sp, #40]	; 0x28
 800940a:	f88d 1029 	strb.w	r1, [sp, #41]	; 0x29
 800940e:	f8bd 1028 	ldrh.w	r1, [sp, #40]	; 0x28
 8009412:	42b1      	cmp	r1, r6
 8009414:	d00a      	beq.n	800942c <process_tapping.lto_priv.52+0x14c>
                process_action(&tapping_key);
                tapping_key = (keyrecord_t){};
                debug_tapping_key();
                return false;
            }  else {
                if (IS_TAPPING_KEY(event.key) && !event.pressed) {
 8009416:	f88d e000 	strb.w	lr, [sp]
 800941a:	f88d 2001 	strb.w	r2, [sp, #1]
 800941e:	f8bd 0000 	ldrh.w	r0, [sp]
 8009422:	f8ba 1000 	ldrh.w	r1, [sl]
 8009426:	4288      	cmp	r0, r1
 8009428:	f000 80a1 	beq.w	800956e <process_tapping.lto_priv.52+0x28e>
                    keyp->tap = tapping_key.tap;
                    process_action(keyp);
                    tapping_key = (keyrecord_t){};
                    return true;
                }
                else if (is_tap_key(event.key) && event.pressed) {
 800942c:	f88d e000 	strb.w	lr, [sp]
 8009430:	f88d 2001 	strb.w	r2, [sp, #1]
 8009434:	9800      	ldr	r0, [sp, #0]
 8009436:	f000 f933 	bl	80096a0 <is_tap_key>
 800943a:	2800      	cmp	r0, #0
 800943c:	d0bb      	beq.n	80093b6 <process_tapping.lto_priv.52+0xd6>
 800943e:	f1b9 0f00 	cmp.w	r9, #0
 8009442:	d0b8      	beq.n	80093b6 <process_tapping.lto_priv.52+0xd6>
                    if (tapping_key.tap.count > 1) {
 8009444:	79ab      	ldrb	r3, [r5, #6]
 8009446:	4a6b      	ldr	r2, [pc, #428]	; (80095f4 <process_tapping.lto_priv.52+0x314>)
 8009448:	2b1f      	cmp	r3, #31
 800944a:	d9a6      	bls.n	800939a <process_tapping.lto_priv.52+0xba>
                        debug("Tapping: Start new tap with releasing last timeout tap(>1).\n");
                        // unregister key
                        process_action(&(keyrecord_t){
 800944c:	8811      	ldrh	r1, [r2, #0]
 800944e:	a812      	add	r0, sp, #72	; 0x48
 8009450:	2200      	movs	r2, #0
 8009452:	f8ad 1048 	strh.w	r1, [sp, #72]	; 0x48
 8009456:	f8ad 804c 	strh.w	r8, [sp, #76]	; 0x4c
 800945a:	f88d 304e 	strb.w	r3, [sp, #78]	; 0x4e
 800945e:	f88d 204a 	strb.w	r2, [sp, #74]	; 0x4a
 8009462:	f7fe fc8d 	bl	8007d80 <process_action>
 8009466:	e798      	b.n	800939a <process_tapping.lto_priv.52+0xba>
    keyevent_t event = keyp->event;

    // if tapping
    if (IS_TAPPING_PRESSED()) {
        if (WITHIN_TAPPING_TERM(event)) {
            if (tapping_key.tap.count == 0) {
 8009468:	f013 0ff0 	tst.w	r3, #240	; 0xf0
 800946c:	f64f 77ff 	movw	r7, #65535	; 0xffff
 8009470:	d129      	bne.n	80094c6 <process_tapping.lto_priv.52+0x1e6>
 8009472:	f88d 0010 	strb.w	r0, [sp, #16]
 8009476:	f88d 1011 	strb.w	r1, [sp, #17]
 800947a:	f8bd 1010 	ldrh.w	r1, [sp, #16]
 800947e:	42b9      	cmp	r1, r7
 8009480:	d00a      	beq.n	8009498 <process_tapping.lto_priv.52+0x1b8>
                if (IS_TAPPING_KEY(event.key) && !event.pressed) {
 8009482:	f88d e000 	strb.w	lr, [sp]
 8009486:	f88d 2001 	strb.w	r2, [sp, #1]
 800948a:	f8bd 0000 	ldrh.w	r0, [sp]
 800948e:	f8ba 1000 	ldrh.w	r1, [sl]
 8009492:	4288      	cmp	r0, r1
 8009494:	f000 80eb 	beq.w	800966e <process_tapping.lto_priv.52+0x38e>
 8009498:	464f      	mov	r7, r9
 800949a:	f1b8 0f00 	cmp.w	r8, #0
 800949e:	d073      	beq.n	8009588 <process_tapping.lto_priv.52+0x2a8>
 80094a0:	f64f 73ff 	movw	r3, #65535	; 0xffff
 80094a4:	f88d e018 	strb.w	lr, [sp, #24]
 80094a8:	f88d 2019 	strb.w	r2, [sp, #25]
 80094ac:	f8bd 1018 	ldrh.w	r1, [sp, #24]
 80094b0:	4299      	cmp	r1, r3
 80094b2:	d069      	beq.n	8009588 <process_tapping.lto_priv.52+0x2a8>
static inline bool IS_PRESSED(keyevent_t event) { return (!IS_NOEVENT(event) && event.pressed); }
static inline bool IS_RELEASED(keyevent_t event) { return (!IS_NOEVENT(event) && !event.pressed); }
 80094b4:	f1b9 0f00 	cmp.w	r9, #0
 80094b8:	d06e      	beq.n	8009598 <process_tapping.lto_priv.52+0x2b8>
                    return true;
                }
                else {
                    // set interrupted flag when other key preesed during tapping
                    if (event.pressed) {
                        tapping_key.tap.interrupted = true;
 80094ba:	79ab      	ldrb	r3, [r5, #6]
                    }
                    // enqueue 
                    return false;
 80094bc:	2700      	movs	r7, #0
                    return true;
                }
                else {
                    // set interrupted flag when other key preesed during tapping
                    if (event.pressed) {
                        tapping_key.tap.interrupted = true;
 80094be:	f043 0301 	orr.w	r3, r3, #1
 80094c2:	71ab      	strb	r3, [r5, #6]
 80094c4:	e77b      	b.n	80093be <process_tapping.lto_priv.52+0xde>

/* Rules for No Event:
 * 1) (time == 0) to handle (keyevent_t){} as empty event
 * 2) Matrix(255, 255) to make TICK event available
 */
static inline bool IS_NOEVENT(keyevent_t event) { return event.time == 0 || (event.key.row == 255 && event.key.col == 255); }
 80094c6:	f88d 0020 	strb.w	r0, [sp, #32]
 80094ca:	f88d 1021 	strb.w	r1, [sp, #33]	; 0x21
 80094ce:	f8bd 1020 	ldrh.w	r1, [sp, #32]
 80094d2:	42b9      	cmp	r1, r7
 80094d4:	d00a      	beq.n	80094ec <process_tapping.lto_priv.52+0x20c>
                    return false;
                }
            }
            // tap_count > 0
            else {
                if (IS_TAPPING_KEY(event.key) && !event.pressed) {
 80094d6:	f88d e000 	strb.w	lr, [sp]
 80094da:	f88d 2001 	strb.w	r2, [sp, #1]
 80094de:	f8bd 0000 	ldrh.w	r0, [sp]
 80094e2:	f8ba 1000 	ldrh.w	r1, [sl]
 80094e6:	4288      	cmp	r0, r1
 80094e8:	f000 80ae 	beq.w	8009648 <process_tapping.lto_priv.52+0x368>
                    process_action(keyp);
                    tapping_key = *keyp;
                    debug_tapping_key();
                    return true;
                }
                else if (is_tap_key(event.key) && event.pressed) {
 80094ec:	f88d e000 	strb.w	lr, [sp]
 80094f0:	f88d 2001 	strb.w	r2, [sp, #1]
 80094f4:	9800      	ldr	r0, [sp, #0]
 80094f6:	f000 f8d3 	bl	80096a0 <is_tap_key>
 80094fa:	2800      	cmp	r0, #0
 80094fc:	f43f af5b 	beq.w	80093b6 <process_tapping.lto_priv.52+0xd6>
 8009500:	f1b9 0f00 	cmp.w	r9, #0
 8009504:	f43f af57 	beq.w	80093b6 <process_tapping.lto_priv.52+0xd6>
                    if (tapping_key.tap.count > 1) {
 8009508:	79ab      	ldrb	r3, [r5, #6]
 800950a:	4a3a      	ldr	r2, [pc, #232]	; (80095f4 <process_tapping.lto_priv.52+0x314>)
 800950c:	2b1f      	cmp	r3, #31
 800950e:	f67f af44 	bls.w	800939a <process_tapping.lto_priv.52+0xba>
                        debug("Tapping: Start new tap with releasing last tap(>1).\n");
                        // unregister key
                        process_action(&(keyrecord_t){
 8009512:	8811      	ldrh	r1, [r2, #0]
 8009514:	a810      	add	r0, sp, #64	; 0x40
 8009516:	2200      	movs	r2, #0
 8009518:	f8ad 1040 	strh.w	r1, [sp, #64]	; 0x40
 800951c:	f8ad 8044 	strh.w	r8, [sp, #68]	; 0x44
 8009520:	f88d 3046 	strb.w	r3, [sp, #70]	; 0x46
 8009524:	f88d 2042 	strb.w	r2, [sp, #66]	; 0x42
 8009528:	f7fe fc2a 	bl	8007d80 <process_action>
 800952c:	e735      	b.n	800939a <process_tapping.lto_priv.52+0xba>
                    debug_tapping_key();
                    return true;
                } else {
                    // should none in buffer
                    // FIX: interrupted when other key is pressed
                    tapping_key.tap.interrupted = true;
 800952e:	79ab      	ldrb	r3, [r5, #6]
                    process_action(keyp);
 8009530:	4620      	mov	r0, r4
                    debug_tapping_key();
                    return true;
                } else {
                    // should none in buffer
                    // FIX: interrupted when other key is pressed
                    tapping_key.tap.interrupted = true;
 8009532:	f043 0301 	orr.w	r3, r3, #1
 8009536:	71ab      	strb	r3, [r5, #6]
                    process_action(keyp);
 8009538:	f7fe fc22 	bl	8007d80 <process_action>
 800953c:	e73f      	b.n	80093be <process_tapping.lto_priv.52+0xde>
        }
    } else if (IS_TAPPING_RELEASED()) {
        if (WITHIN_TAPPING_TERM(event)) {
            if (event.pressed) {
                if (IS_TAPPING_KEY(event.key)) {
                    if (!tapping_key.tap.interrupted && tapping_key.tap.count > 0) {
 800953e:	7983      	ldrb	r3, [r0, #6]
 8009540:	07da      	lsls	r2, r3, #31
 8009542:	f100 808f 	bmi.w	8009664 <process_tapping.lto_priv.52+0x384>
 8009546:	091a      	lsrs	r2, r3, #4
 8009548:	f000 808c 	beq.w	8009664 <process_tapping.lto_priv.52+0x384>
                        // sequential tap.
                        keyp->tap = tapping_key.tap;
                        if (keyp->tap.count < 15) keyp->tap.count += 1;
 800954c:	0919      	lsrs	r1, r3, #4
 800954e:	290f      	cmp	r1, #15
 8009550:	461a      	mov	r2, r3
        if (WITHIN_TAPPING_TERM(event)) {
            if (event.pressed) {
                if (IS_TAPPING_KEY(event.key)) {
                    if (!tapping_key.tap.interrupted && tapping_key.tap.count > 0) {
                        // sequential tap.
                        keyp->tap = tapping_key.tap;
 8009552:	71a3      	strb	r3, [r4, #6]
                        if (keyp->tap.count < 15) keyp->tap.count += 1;
 8009554:	d003      	beq.n	800955e <process_tapping.lto_priv.52+0x27e>
 8009556:	3101      	adds	r1, #1
 8009558:	f361 1207 	bfi	r2, r1, #4, #4
 800955c:	71a2      	strb	r2, [r4, #6]
                        debug("Tapping: Tap press("); debug_dec(keyp->tap.count); debug(")\n");
                        process_action(keyp);
 800955e:	4620      	mov	r0, r4
 8009560:	f7fe fc0e 	bl	8007d80 <process_action>
                        tapping_key = *keyp;
 8009564:	4b23      	ldr	r3, [pc, #140]	; (80095f4 <process_tapping.lto_priv.52+0x314>)
 8009566:	6820      	ldr	r0, [r4, #0]
 8009568:	6861      	ldr	r1, [r4, #4]
 800956a:	c303      	stmia	r3!, {r0, r1}
 800956c:	e727      	b.n	80093be <process_tapping.lto_priv.52+0xde>
                process_action(&tapping_key);
                tapping_key = (keyrecord_t){};
                debug_tapping_key();
                return false;
            }  else {
                if (IS_TAPPING_KEY(event.key) && !event.pressed) {
 800956e:	f1b9 0f00 	cmp.w	r9, #0
 8009572:	f47f af5b 	bne.w	800942c <process_tapping.lto_priv.52+0x14c>
                    debug("Tapping: End. last timeout tap release(>0).");
                    keyp->tap = tapping_key.tap;
 8009576:	71a3      	strb	r3, [r4, #6]
                    process_action(keyp);
 8009578:	4620      	mov	r0, r4
 800957a:	f7fe fc01 	bl	8007d80 <process_action>
                    tapping_key = (keyrecord_t){};
 800957e:	f8ca 9000 	str.w	r9, [sl]
 8009582:	f8ca 9004 	str.w	r9, [sl, #4]
 8009586:	e71a      	b.n	80093be <process_tapping.lto_priv.52+0xde>
                    process_action(keyp);
                    return true;
                }
                else {
                    // set interrupted flag when other key preesed during tapping
                    if (event.pressed) {
 8009588:	f1b9 0f00 	cmp.w	r9, #0
 800958c:	f43f af17 	beq.w	80093be <process_tapping.lto_priv.52+0xde>
 8009590:	e793      	b.n	80094ba <process_tapping.lto_priv.52+0x1da>
        } else {
            // FIX: process_aciton here?
            // timeout. no sequential tap.
            debug("Tapping: End(Timeout after releasing last tap): ");
            debug_event(event); debug("\n");
            tapping_key = (keyrecord_t){};
 8009592:	602f      	str	r7, [r5, #0]
 8009594:	606f      	str	r7, [r5, #4]
 8009596:	e712      	b.n	80093be <process_tapping.lto_priv.52+0xde>
    waiting_buffer_tail = 0;
}

bool waiting_buffer_typed(keyevent_t event)
{
    for (uint8_t i = waiting_buffer_tail; i != waiting_buffer_head; i = (i + 1) % WAITING_BUFFER_SIZE) {
 8009598:	4b17      	ldr	r3, [pc, #92]	; (80095f8 <process_tapping.lto_priv.52+0x318>)
 800959a:	4918      	ldr	r1, [pc, #96]	; (80095fc <process_tapping.lto_priv.52+0x31c>)
 800959c:	781b      	ldrb	r3, [r3, #0]
 800959e:	f891 8000 	ldrb.w	r8, [r1]
 80095a2:	4543      	cmp	r3, r8
 80095a4:	d015      	beq.n	80095d2 <process_tapping.lto_priv.52+0x2f2>
 80095a6:	f8df c058 	ldr.w	ip, [pc, #88]	; 8009600 <process_tapping.lto_priv.52+0x320>
        if (KEYEQ(event.key, waiting_buffer[i].event.key) && event.pressed !=  waiting_buffer[i].event.pressed) {
 80095aa:	46e1      	mov	r9, ip
 80095ac:	e003      	b.n	80095b6 <process_tapping.lto_priv.52+0x2d6>
    waiting_buffer_tail = 0;
}

bool waiting_buffer_typed(keyevent_t event)
{
    for (uint8_t i = waiting_buffer_tail; i != waiting_buffer_head; i = (i + 1) % WAITING_BUFFER_SIZE) {
 80095ae:	f005 0307 	and.w	r3, r5, #7
 80095b2:	4543      	cmp	r3, r8
 80095b4:	d00d      	beq.n	80095d2 <process_tapping.lto_priv.52+0x2f2>
        if (KEYEQ(event.key, waiting_buffer[i].event.key) && event.pressed !=  waiting_buffer[i].event.pressed) {
 80095b6:	eb0c 01c3 	add.w	r1, ip, r3, lsl #3
 80095ba:	7848      	ldrb	r0, [r1, #1]
    waiting_buffer_tail = 0;
}

bool waiting_buffer_typed(keyevent_t event)
{
    for (uint8_t i = waiting_buffer_tail; i != waiting_buffer_head; i = (i + 1) % WAITING_BUFFER_SIZE) {
 80095bc:	1c5d      	adds	r5, r3, #1
        if (KEYEQ(event.key, waiting_buffer[i].event.key) && event.pressed !=  waiting_buffer[i].event.pressed) {
 80095be:	4290      	cmp	r0, r2
 80095c0:	d1f5      	bne.n	80095ae <process_tapping.lto_priv.52+0x2ce>
 80095c2:	f819 3033 	ldrb.w	r3, [r9, r3, lsl #3]
 80095c6:	4573      	cmp	r3, lr
 80095c8:	d1f1      	bne.n	80095ae <process_tapping.lto_priv.52+0x2ce>
 80095ca:	788b      	ldrb	r3, [r1, #2]
 80095cc:	2b00      	cmp	r3, #0
 80095ce:	d0ee      	beq.n	80095ae <process_tapping.lto_priv.52+0x2ce>
 80095d0:	e6f5      	b.n	80093be <process_tapping.lto_priv.52+0xde>
                 * Without this unexpected repeating will occur with having fast repeating setting
                 * https://github.com/tmk/tmk_keyboard/issues/60
                 */
                else if (IS_RELEASED(event) && !waiting_buffer_typed(event)) {
                    // Modifier should be retained till end of this tapping.
                    action_t action = layer_switch_get_action(event.key);
 80095d2:	f88d 2001 	strb.w	r2, [sp, #1]
 80095d6:	f88d e000 	strb.w	lr, [sp]
 80095da:	9800      	ldr	r0, [sp, #0]
 80095dc:	f7ff fdc0 	bl	8009160 <layer_switch_get_action>
                    switch (action.kind.id) {
 80095e0:	f3c0 3303 	ubfx	r3, r0, #12, #4
                 * Without this unexpected repeating will occur with having fast repeating setting
                 * https://github.com/tmk/tmk_keyboard/issues/60
                 */
                else if (IS_RELEASED(event) && !waiting_buffer_typed(event)) {
                    // Modifier should be retained till end of this tapping.
                    action_t action = layer_switch_get_action(event.key);
 80095e4:	b2c2      	uxtb	r2, r0
                    switch (action.kind.id) {
 80095e6:	2b03      	cmp	r3, #3
 80095e8:	d81a      	bhi.n	8009620 <process_tapping.lto_priv.52+0x340>
 80095ea:	e8df f003 	tbb	[pc, r3]
 80095ee:	1e1e      	.short	0x1e1e
 80095f0:	0b0b      	.short	0x0b0b
 80095f2:	bf00      	nop
 80095f4:	200015d0 	.word	0x200015d0
 80095f8:	200015b9 	.word	0x200015b9
 80095fc:	200015b8 	.word	0x200015b8
 8009600:	20001574 	.word	0x20001574
                            if (action.key.mods && !action.key.code) return false;
                            if (IS_MOD(action.key.code)) return false;
                            break;
                        case ACT_LMODS_TAP:
                        case ACT_RMODS_TAP:
                            if (action.key.mods && keyp->tap.count == 0) return false;
 8009604:	f410 6f70 	tst.w	r0, #3840	; 0xf00
 8009608:	d004      	beq.n	8009614 <process_tapping.lto_priv.52+0x334>
 800960a:	79a3      	ldrb	r3, [r4, #6]
 800960c:	f013 0ff0 	tst.w	r3, #240	; 0xf0
 8009610:	f43f aed5 	beq.w	80093be <process_tapping.lto_priv.52+0xde>
                            if (IS_MOD(action.key.code)) return false;
 8009614:	f102 0320 	add.w	r3, r2, #32
 8009618:	b2db      	uxtb	r3, r3
 800961a:	2b07      	cmp	r3, #7
 800961c:	f67f aecf 	bls.w	80093be <process_tapping.lto_priv.52+0xde>
                            break;
                    }
                    // Release of key should be process immediately.
                    debug("Tapping: release event of a key pressed before tapping\n");
                    process_action(keyp);
 8009620:	4620      	mov	r0, r4
 8009622:	f7fe fbad 	bl	8007d80 <process_action>
                    return true;
 8009626:	4637      	mov	r7, r6
 8009628:	e6c9      	b.n	80093be <process_tapping.lto_priv.52+0xde>
                    // Modifier should be retained till end of this tapping.
                    action_t action = layer_switch_get_action(event.key);
                    switch (action.kind.id) {
                        case ACT_LMODS:
                        case ACT_RMODS:
                            if (action.key.mods && !action.key.code) return false;
 800962a:	f410 6f70 	tst.w	r0, #3840	; 0xf00
 800962e:	d0f1      	beq.n	8009614 <process_tapping.lto_priv.52+0x334>
 8009630:	2a00      	cmp	r2, #0
 8009632:	d1ef      	bne.n	8009614 <process_tapping.lto_priv.52+0x334>
 8009634:	e6c3      	b.n	80093be <process_tapping.lto_priv.52+0xde>
        // after TAPPING_TERM
        else {
            if (tapping_key.tap.count == 0) {
                debug("Tapping: End. Timeout. Not tap(0): ");
                debug_event(event); debug("\n");
                process_action(&tapping_key);
 8009636:	4650      	mov	r0, sl
 8009638:	f7fe fba2 	bl	8007d80 <process_action>
                tapping_key = (keyrecord_t){};
                debug_tapping_key();
                return false;
 800963c:	4637      	mov	r7, r6
        else {
            if (tapping_key.tap.count == 0) {
                debug("Tapping: End. Timeout. Not tap(0): ");
                debug_event(event); debug("\n");
                process_action(&tapping_key);
                tapping_key = (keyrecord_t){};
 800963e:	f8ca 6000 	str.w	r6, [sl]
 8009642:	f8ca 6004 	str.w	r6, [sl, #4]
 8009646:	e6ba      	b.n	80093be <process_tapping.lto_priv.52+0xde>
                    return false;
                }
            }
            // tap_count > 0
            else {
                if (IS_TAPPING_KEY(event.key) && !event.pressed) {
 8009648:	f1b9 0f00 	cmp.w	r9, #0
 800964c:	f47f af4e 	bne.w	80094ec <process_tapping.lto_priv.52+0x20c>
                    debug("Tapping: Tap release("); debug_dec(tapping_key.tap.count); debug(")\n");
                    keyp->tap = tapping_key.tap;
                    process_action(keyp);
 8009650:	4620      	mov	r0, r4
            }
            // tap_count > 0
            else {
                if (IS_TAPPING_KEY(event.key) && !event.pressed) {
                    debug("Tapping: Tap release("); debug_dec(tapping_key.tap.count); debug(")\n");
                    keyp->tap = tapping_key.tap;
 8009652:	71a3      	strb	r3, [r4, #6]
                    process_action(keyp);
 8009654:	f7fe fb94 	bl	8007d80 <process_action>
                    tapping_key = *keyp;
 8009658:	6820      	ldr	r0, [r4, #0]
 800965a:	6861      	ldr	r1, [r4, #4]
                    debug_tapping_key();
                    return true;
 800965c:	4637      	mov	r7, r6
            else {
                if (IS_TAPPING_KEY(event.key) && !event.pressed) {
                    debug("Tapping: Tap release("); debug_dec(tapping_key.tap.count); debug(")\n");
                    keyp->tap = tapping_key.tap;
                    process_action(keyp);
                    tapping_key = *keyp;
 800965e:	e8aa 0003 	stmia.w	sl!, {r0, r1}
 8009662:	e6ac      	b.n	80093be <process_tapping.lto_priv.52+0xde>
                        tapping_key = *keyp;
                        debug_tapping_key();
                        return true;
                    } else {
                        // FIX: start new tap again
                        tapping_key = *keyp;
 8009664:	4b0c      	ldr	r3, [pc, #48]	; (8009698 <process_tapping.lto_priv.52+0x3b8>)
 8009666:	6820      	ldr	r0, [r4, #0]
 8009668:	6861      	ldr	r1, [r4, #4]
 800966a:	c303      	stmia	r3!, {r0, r1}
 800966c:	e6a7      	b.n	80093be <process_tapping.lto_priv.52+0xde>

    // if tapping
    if (IS_TAPPING_PRESSED()) {
        if (WITHIN_TAPPING_TERM(event)) {
            if (tapping_key.tap.count == 0) {
                if (IS_TAPPING_KEY(event.key) && !event.pressed) {
 800966e:	464f      	mov	r7, r9
 8009670:	f1b9 0f00 	cmp.w	r9, #0
 8009674:	d004      	beq.n	8009680 <process_tapping.lto_priv.52+0x3a0>
 8009676:	f1b8 0f00 	cmp.w	r8, #0
 800967a:	f43f af1e 	beq.w	80094ba <process_tapping.lto_priv.52+0x1da>
 800967e:	e70f      	b.n	80094a0 <process_tapping.lto_priv.52+0x1c0>
                    // first tap!
                    debug("Tapping: First tap(0->1).\n");
                    tapping_key.tap.count = 1;
 8009680:	2201      	movs	r2, #1
 8009682:	f362 1307 	bfi	r3, r2, #4, #4
                    debug_tapping_key();
                    process_action(&tapping_key);
 8009686:	4650      	mov	r0, sl
        if (WITHIN_TAPPING_TERM(event)) {
            if (tapping_key.tap.count == 0) {
                if (IS_TAPPING_KEY(event.key) && !event.pressed) {
                    // first tap!
                    debug("Tapping: First tap(0->1).\n");
                    tapping_key.tap.count = 1;
 8009688:	f88a 3006 	strb.w	r3, [sl, #6]
                    debug_tapping_key();
                    process_action(&tapping_key);
 800968c:	f7fe fb78 	bl	8007d80 <process_action>

                    // copy tapping state
                    keyp->tap = tapping_key.tap;
 8009690:	f89a 3006 	ldrb.w	r3, [sl, #6]
 8009694:	71a3      	strb	r3, [r4, #6]
 8009696:	e692      	b.n	80093be <process_tapping.lto_priv.52+0xde>
 8009698:	200015d0 	.word	0x200015d0
 800969c:	f3af 8000 	nop.w

080096a0 <is_tap_key>:
    host_consumer_send(0);
#endif
}

bool is_tap_key(keypos_t key)
{
 80096a0:	b500      	push	{lr}
 80096a2:	b083      	sub	sp, #12
 80096a4:	f8ad 0004 	strh.w	r0, [sp, #4]
    action_t action = layer_switch_get_action(key);
 80096a8:	9801      	ldr	r0, [sp, #4]
 80096aa:	f7ff fd59 	bl	8009160 <layer_switch_get_action>
 80096ae:	f3c0 3303 	ubfx	r3, r0, #12, #4
 80096b2:	3b02      	subs	r3, #2
 80096b4:	2b0d      	cmp	r3, #13
 80096b6:	d814      	bhi.n	80096e2 <is_tap_key+0x42>
 80096b8:	2201      	movs	r2, #1
 80096ba:	409a      	lsls	r2, r3
 80096bc:	f412 5110 	ands.w	r1, r2, #9216	; 0x2400
 80096c0:	d004      	beq.n	80096cc <is_tap_key+0x2c>
                    return true;
            }
            return false;
        case ACT_MACRO:
        case ACT_FUNCTION:
            if (action.func.opt & FUNC_TAP) { return true; }
 80096c2:	f3c0 20c0 	ubfx	r0, r0, #11, #1
            return false;
    }
    return false;
}
 80096c6:	b003      	add	sp, #12
 80096c8:	f85d fb04 	ldr.w	pc, [sp], #4
 80096cc:	f240 3303 	movw	r3, #771	; 0x303
 80096d0:	4013      	ands	r3, r2
 80096d2:	b153      	cbz	r3, 80096ea <is_tap_key+0x4a>
    switch (action.kind.id) {
        case ACT_LMODS_TAP:
        case ACT_RMODS_TAP:
        case ACT_LAYER_TAP:
        case ACT_LAYER_TAP_EXT:
            switch (action.layer_tap.code) {
 80096d4:	b2c3      	uxtb	r3, r0
 80096d6:	2bdf      	cmp	r3, #223	; 0xdf
 80096d8:	d90b      	bls.n	80096f2 <is_tap_key+0x52>
 80096da:	2bf0      	cmp	r3, #240	; 0xf0
 80096dc:	d009      	beq.n	80096f2 <is_tap_key+0x52>
                case 0x00 ... 0xdf:
                case OP_TAP_TOGGLE:
                    return true;
            }
            return false;
 80096de:	4608      	mov	r0, r1
 80096e0:	e7f1      	b.n	80096c6 <is_tap_key+0x26>
        case ACT_MACRO:
        case ACT_FUNCTION:
            if (action.func.opt & FUNC_TAP) { return true; }
            return false;
    }
    return false;
 80096e2:	2000      	movs	r0, #0
}
 80096e4:	b003      	add	sp, #12
 80096e6:	f85d fb04 	ldr.w	pc, [sp], #4
        case ACT_MACRO:
        case ACT_FUNCTION:
            if (action.func.opt & FUNC_TAP) { return true; }
            return false;
    }
    return false;
 80096ea:	4618      	mov	r0, r3
}
 80096ec:	b003      	add	sp, #12
 80096ee:	f85d fb04 	ldr.w	pc, [sp], #4
        case ACT_LAYER_TAP:
        case ACT_LAYER_TAP_EXT:
            switch (action.layer_tap.code) {
                case 0x00 ... 0xdf:
                case OP_TAP_TOGGLE:
                    return true;
 80096f2:	2001      	movs	r0, #1
 80096f4:	e7e7      	b.n	80096c6 <is_tap_key+0x26>
 80096f6:	bf00      	nop
 80096f8:	f3af 8000 	nop.w
 80096fc:	f3af 8000 	nop.w

08009700 <clear_keyboard_but_mods>:
    clear_mods();
    clear_keyboard_but_mods();
}

void clear_keyboard_but_mods(void)
{
 8009700:	4b10      	ldr	r3, [pc, #64]	; (8009744 <clear_keyboard_but_mods+0x44>)
/* weak modifier */
uint8_t get_weak_mods(void) { return weak_mods; }
void add_weak_mods(uint8_t mods) { weak_mods |= mods; }
void del_weak_mods(uint8_t mods) { weak_mods &= ~mods; }
void set_weak_mods(uint8_t mods) { weak_mods = mods; }
void clear_weak_mods(void) { weak_mods = 0; }
 8009702:	4811      	ldr	r0, [pc, #68]	; (8009748 <clear_keyboard_but_mods+0x48>)
 8009704:	681b      	ldr	r3, [r3, #0]
 8009706:	2200      	movs	r2, #0
 8009708:	b510      	push	{r4, lr}

void clear_keys(void)
{
    // not clear mods
    for (int8_t i = 1; i < KEYBOARD_REPORT_SIZE; i++) {
        keyboard_report->raw[i] = 0;
 800970a:	4611      	mov	r1, r2
/* weak modifier */
uint8_t get_weak_mods(void) { return weak_mods; }
void add_weak_mods(uint8_t mods) { weak_mods |= mods; }
void del_weak_mods(uint8_t mods) { weak_mods &= ~mods; }
void set_weak_mods(uint8_t mods) { weak_mods = mods; }
void clear_weak_mods(void) { weak_mods = 0; }
 800970c:	7002      	strb	r2, [r0, #0]
 800970e:	f103 020f 	add.w	r2, r3, #15

void clear_keys(void)
{
    // not clear mods
    for (int8_t i = 1; i < KEYBOARD_REPORT_SIZE; i++) {
        keyboard_report->raw[i] = 0;
 8009712:	f803 1f01 	strb.w	r1, [r3, #1]!
}

void clear_keys(void)
{
    // not clear mods
    for (int8_t i = 1; i < KEYBOARD_REPORT_SIZE; i++) {
 8009716:	4293      	cmp	r3, r2
        keyboard_report->raw[i] = 0;
 8009718:	f04f 0400 	mov.w	r4, #0
}

void clear_keys(void)
{
    // not clear mods
    for (int8_t i = 1; i < KEYBOARD_REPORT_SIZE; i++) {
 800971c:	d1f9      	bne.n	8009712 <clear_keyboard_but_mods+0x12>
    clear_weak_mods();
    clear_keys();
    send_keyboard_report();
 800971e:	f7ff fcc7 	bl	80090b0 <send_keyboard_report>
}

void mousekey_clear(void)
{
    mouse_report = (report_mouse_t){};
 8009722:	4b0a      	ldr	r3, [pc, #40]	; (800974c <clear_keyboard_but_mods+0x4c>)
    mousekey_repeat = 0;
 8009724:	490a      	ldr	r1, [pc, #40]	; (8009750 <clear_keyboard_but_mods+0x50>)
    mousekey_accel = 0;
 8009726:	4a0b      	ldr	r2, [pc, #44]	; (8009754 <clear_keyboard_but_mods+0x54>)
    last_timer = timer_read();
}

void mousekey_clear(void)
{
    mouse_report = (report_mouse_t){};
 8009728:	601c      	str	r4, [r3, #0]
 800972a:	711c      	strb	r4, [r3, #4]
    mousekey_repeat = 0;
 800972c:	700c      	strb	r4, [r1, #0]
    mousekey_accel = 0;
 800972e:	7014      	strb	r4, [r2, #0]
#ifdef MOUSEKEY_ENABLE
    mousekey_clear();
    mousekey_send();
 8009730:	f7ff fb7e 	bl	8008e30 <mousekey_send>
#endif
#ifdef EXTRAKEY_ENABLE
    host_system_send(0);
 8009734:	4620      	mov	r0, r4
 8009736:	f7fe fb13 	bl	8007d60 <host_system_send>
    host_consumer_send(0);
 800973a:	4620      	mov	r0, r4
#endif
}
 800973c:	e8bd 4010 	ldmia.w	sp!, {r4, lr}
    mousekey_clear();
    mousekey_send();
#endif
#ifdef EXTRAKEY_ENABLE
    host_system_send(0);
    host_consumer_send(0);
 8009740:	f7fe bafe 	b.w	8007d40 <host_consumer_send>
 8009744:	20001238 	.word	0x20001238
 8009748:	200015ba 	.word	0x200015ba
 800974c:	2000156c 	.word	0x2000156c
 8009750:	2000154f 	.word	0x2000154f
 8009754:	20001538 	.word	0x20001538
 8009758:	f3af 8000 	nop.w
 800975c:	f3af 8000 	nop.w

08009760 <unregister_code>:
        host_consumer_send(KEYCODE2CONSUMER(code));
    }
}

void unregister_code(uint8_t code)
{
 8009760:	b510      	push	{r4, lr}
    if (code == KC_NO) {
 8009762:	b188      	cbz	r0, 8009788 <unregister_code+0x28>
        del_key(KC_SCROLLLOCK);
        send_keyboard_report();
    }
#endif

    else if IS_KEY(code) {
 8009764:	1f03      	subs	r3, r0, #4
 8009766:	b2db      	uxtb	r3, r3
 8009768:	2ba0      	cmp	r3, #160	; 0xa0
 800976a:	d90e      	bls.n	800978a <unregister_code+0x2a>
        del_key(code);
        send_keyboard_report();
    }
    else if IS_MOD(code) {
 800976c:	f100 0320 	add.w	r3, r0, #32
 8009770:	b2db      	uxtb	r3, r3
 8009772:	2b07      	cmp	r3, #7
 8009774:	d924      	bls.n	80097c0 <unregister_code+0x60>
        del_mods(MOD_BIT(code));
        send_keyboard_report();
    }
    else if IS_SYSTEM(code) {
 8009776:	f100 035b 	add.w	r3, r0, #91	; 0x5b
 800977a:	b2db      	uxtb	r3, r3
 800977c:	2b02      	cmp	r3, #2
 800977e:	d92a      	bls.n	80097d6 <unregister_code+0x76>
        host_system_send(0);
    }
    else if IS_CONSUMER(code) {
 8009780:	3058      	adds	r0, #88	; 0x58
 8009782:	b2c0      	uxtb	r0, r0
 8009784:	2812      	cmp	r0, #18
 8009786:	d916      	bls.n	80097b6 <unregister_code+0x56>
 8009788:	bd10      	pop	{r4, pc}
}

void del_key(uint8_t key)
{
#ifdef NKRO_ENABLE
    if (keyboard_protocol && keyboard_nkro) {
 800978a:	4b21      	ldr	r3, [pc, #132]	; (8009810 <unregister_code+0xb0>)
 800978c:	781b      	ldrb	r3, [r3, #0]
 800978e:	b113      	cbz	r3, 8009796 <unregister_code+0x36>
 8009790:	4b20      	ldr	r3, [pc, #128]	; (8009814 <unregister_code+0xb4>)
 8009792:	781b      	ldrb	r3, [r3, #0]
 8009794:	bb23      	cbnz	r3, 80097e0 <unregister_code+0x80>
 8009796:	4b20      	ldr	r3, [pc, #128]	; (8009818 <unregister_code+0xb8>)
        } while (i != cb_tail);
    }
#else
    for (uint8_t i = 0; i < KEYBOARD_REPORT_KEYS; i++) {
        if (keyboard_report->keys[i] == code) {
            keyboard_report->keys[i] = 0;
 8009798:	2400      	movs	r4, #0
 800979a:	6819      	ldr	r1, [r3, #0]
 800979c:	1c4b      	adds	r3, r1, #1
 800979e:	310f      	adds	r1, #15
            i = RO_INC(i);
        } while (i != cb_tail);
    }
#else
    for (uint8_t i = 0; i < KEYBOARD_REPORT_KEYS; i++) {
        if (keyboard_report->keys[i] == code) {
 80097a0:	f813 2f01 	ldrb.w	r2, [r3, #1]!
 80097a4:	4282      	cmp	r2, r0
            keyboard_report->keys[i] = 0;
 80097a6:	bf08      	it	eq
 80097a8:	701c      	strbeq	r4, [r3, #0]
            }
            i = RO_INC(i);
        } while (i != cb_tail);
    }
#else
    for (uint8_t i = 0; i < KEYBOARD_REPORT_KEYS; i++) {
 80097aa:	428b      	cmp	r3, r1
 80097ac:	d1f8      	bne.n	80097a0 <unregister_code+0x40>
        host_consumer_send(0);
    }
}
 80097ae:	e8bd 4010 	ldmia.w	sp!, {r4, lr}
        del_key(code);
        send_keyboard_report();
    }
    else if IS_MOD(code) {
        del_mods(MOD_BIT(code));
        send_keyboard_report();
 80097b2:	f7ff bc7d 	b.w	80090b0 <send_keyboard_report>
    }
    else if IS_SYSTEM(code) {
        host_system_send(0);
    }
    else if IS_CONSUMER(code) {
        host_consumer_send(0);
 80097b6:	2000      	movs	r0, #0
    }
}
 80097b8:	e8bd 4010 	ldmia.w	sp!, {r4, lr}
    }
    else if IS_SYSTEM(code) {
        host_system_send(0);
    }
    else if IS_CONSUMER(code) {
        host_consumer_send(0);
 80097bc:	f7fe bac0 	b.w	8007d40 <host_consumer_send>
    else if IS_KEY(code) {
        del_key(code);
        send_keyboard_report();
    }
    else if IS_MOD(code) {
        del_mods(MOD_BIT(code));
 80097c0:	f000 0107 	and.w	r1, r0, #7
 80097c4:	2001      	movs	r0, #1
 80097c6:	4088      	lsls	r0, r1
 80097c8:	b2c0      	uxtb	r0, r0
 80097ca:	f7ff fc61 	bl	8009090 <del_mods>
        host_system_send(0);
    }
    else if IS_CONSUMER(code) {
        host_consumer_send(0);
    }
}
 80097ce:	e8bd 4010 	ldmia.w	sp!, {r4, lr}
        del_key(code);
        send_keyboard_report();
    }
    else if IS_MOD(code) {
        del_mods(MOD_BIT(code));
        send_keyboard_report();
 80097d2:	f7ff bc6d 	b.w	80090b0 <send_keyboard_report>
    }
    else if IS_SYSTEM(code) {
        host_system_send(0);
 80097d6:	2000      	movs	r0, #0
    }
    else if IS_CONSUMER(code) {
        host_consumer_send(0);
    }
}
 80097d8:	e8bd 4010 	ldmia.w	sp!, {r4, lr}
    else if IS_MOD(code) {
        del_mods(MOD_BIT(code));
        send_keyboard_report();
    }
    else if IS_SYSTEM(code) {
        host_system_send(0);
 80097dc:	f7fe bac0 	b.w	8007d60 <host_system_send>
    }
}

static inline void del_key_bit(uint8_t code)
{
    if ((code>>3) < KEYBOARD_REPORT_BITS) {
 80097e0:	08c3      	lsrs	r3, r0, #3
 80097e2:	2b0e      	cmp	r3, #14
 80097e4:	d908      	bls.n	80097f8 <unregister_code+0x98>
        keyboard_report->nkro.bits[code>>3] &= ~(1<<(code&7));
    } else {
        dprintf("del_key_bit: can't del: %02X\n", code);
 80097e6:	4b0d      	ldr	r3, [pc, #52]	; (800981c <unregister_code+0xbc>)
 80097e8:	781b      	ldrb	r3, [r3, #0]
 80097ea:	07db      	lsls	r3, r3, #31
 80097ec:	d5df      	bpl.n	80097ae <unregister_code+0x4e>
 80097ee:	4601      	mov	r1, r0
 80097f0:	480b      	ldr	r0, [pc, #44]	; (8009820 <unregister_code+0xc0>)
 80097f2:	f7fe ff75 	bl	80086e0 <tfp_printf>
 80097f6:	e7da      	b.n	80097ae <unregister_code+0x4e>
}

static inline void del_key_bit(uint8_t code)
{
    if ((code>>3) < KEYBOARD_REPORT_BITS) {
        keyboard_report->nkro.bits[code>>3] &= ~(1<<(code&7));
 80097f8:	4a07      	ldr	r2, [pc, #28]	; (8009818 <unregister_code+0xb8>)
 80097fa:	f000 0007 	and.w	r0, r0, #7
 80097fe:	6811      	ldr	r1, [r2, #0]
 8009800:	2201      	movs	r2, #1
 8009802:	440b      	add	r3, r1
 8009804:	7859      	ldrb	r1, [r3, #1]
 8009806:	4082      	lsls	r2, r0
 8009808:	ea21 0202 	bic.w	r2, r1, r2
 800980c:	705a      	strb	r2, [r3, #1]
 800980e:	e7ce      	b.n	80097ae <unregister_code+0x4e>
 8009810:	20001231 	.word	0x20001231
 8009814:	20001234 	.word	0x20001234
 8009818:	20001238 	.word	0x20001238
 800981c:	20001544 	.word	0x20001544
 8009820:	0800a890 	.word	0x0800a890
 8009824:	f3af 8000 	nop.w
 8009828:	f3af 8000 	nop.w
 800982c:	f3af 8000 	nop.w

08009830 <register_code>:

/*
 * Utilities for actions.
 */
void register_code(uint8_t code)
{
 8009830:	e92d 47f0 	stmdb	sp!, {r4, r5, r6, r7, r8, r9, sl, lr}
    if (code == KC_NO) {
 8009834:	4604      	mov	r4, r0
 8009836:	2800      	cmp	r0, #0
 8009838:	d05b      	beq.n	80098f2 <register_code+0xc2>
        del_key(KC_SCROLLLOCK);
        send_keyboard_report();
    }
#endif

    else if IS_KEY(code) {
 800983a:	1f03      	subs	r3, r0, #4
 800983c:	b2db      	uxtb	r3, r3
 800983e:	2ba0      	cmp	r3, #160	; 0xa0
 8009840:	d959      	bls.n	80098f6 <register_code+0xc6>
        {
            add_key(code);
            send_keyboard_report();
        }
    }
    else if IS_MOD(code) {
 8009842:	f100 0320 	add.w	r3, r0, #32
 8009846:	b2db      	uxtb	r3, r3
 8009848:	2b07      	cmp	r3, #7
 800984a:	f240 8088 	bls.w	800995e <register_code+0x12e>
        add_mods(MOD_BIT(code));
        send_keyboard_report();
    }
    else if IS_SYSTEM(code) {
 800984e:	f100 035b 	add.w	r3, r0, #91	; 0x5b
 8009852:	b2db      	uxtb	r3, r3
 8009854:	2b02      	cmp	r3, #2
 8009856:	d977      	bls.n	8009948 <register_code+0x118>
        host_system_send(KEYCODE2SYSTEM(code));
    }
    else if IS_CONSUMER(code) {
 8009858:	f100 0358 	add.w	r3, r0, #88	; 0x58
 800985c:	b2db      	uxtb	r3, r3
 800985e:	2b12      	cmp	r3, #18
 8009860:	d847      	bhi.n	80098f2 <register_code+0xc2>
        host_consumer_send(KEYCODE2CONSUMER(code));
 8009862:	28a8      	cmp	r0, #168	; 0xa8
 8009864:	f000 822d 	beq.w	8009cc2 <register_code+0x492>
 8009868:	28a9      	cmp	r0, #169	; 0xa9
 800986a:	f000 8233 	beq.w	8009cd4 <register_code+0x4a4>
 800986e:	28aa      	cmp	r0, #170	; 0xaa
 8009870:	f000 80d2 	beq.w	8009a18 <register_code+0x1e8>
 8009874:	28ab      	cmp	r0, #171	; 0xab
 8009876:	f000 8234 	beq.w	8009ce2 <register_code+0x4b2>
 800987a:	28ac      	cmp	r0, #172	; 0xac
 800987c:	f000 8233 	beq.w	8009ce6 <register_code+0x4b6>
 8009880:	28ad      	cmp	r0, #173	; 0xad
 8009882:	f000 823f 	beq.w	8009d04 <register_code+0x4d4>
 8009886:	28b0      	cmp	r0, #176	; 0xb0
 8009888:	f000 8249 	beq.w	8009d1e <register_code+0x4ee>
 800988c:	28ae      	cmp	r0, #174	; 0xae
 800988e:	f000 8248 	beq.w	8009d22 <register_code+0x4f2>
 8009892:	28af      	cmp	r0, #175	; 0xaf
 8009894:	f000 8247 	beq.w	8009d26 <register_code+0x4f6>
 8009898:	28b1      	cmp	r0, #177	; 0xb1
 800989a:	f000 824e 	beq.w	8009d3a <register_code+0x50a>
 800989e:	28b2      	cmp	r0, #178	; 0xb2
 80098a0:	f000 824e 	beq.w	8009d40 <register_code+0x510>
 80098a4:	28b3      	cmp	r0, #179	; 0xb3
 80098a6:	f000 824e 	beq.w	8009d46 <register_code+0x516>
 80098aa:	28b4      	cmp	r0, #180	; 0xb4
 80098ac:	f000 824e 	beq.w	8009d4c <register_code+0x51c>
 80098b0:	28b5      	cmp	r0, #181	; 0xb5
 80098b2:	f000 824e 	beq.w	8009d52 <register_code+0x522>
 80098b6:	28b6      	cmp	r0, #182	; 0xb6
 80098b8:	f000 8251 	beq.w	8009d5e <register_code+0x52e>
 80098bc:	28b7      	cmp	r0, #183	; 0xb7
 80098be:	f000 8254 	beq.w	8009d6a <register_code+0x53a>
 80098c2:	28b8      	cmp	r0, #184	; 0xb8
 80098c4:	f000 824e 	beq.w	8009d64 <register_code+0x534>
 80098c8:	28b9      	cmp	r0, #185	; 0xb9
 80098ca:	f000 8245 	beq.w	8009d58 <register_code+0x528>
 80098ce:	2cba      	cmp	r4, #186	; 0xba
 80098d0:	f240 202a 	movw	r0, #554	; 0x22a
 80098d4:	bf18      	it	ne
 80098d6:	2000      	movne	r0, #0
    }
}
 80098d8:	e8bd 47f0 	ldmia.w	sp!, {r4, r5, r6, r7, r8, r9, sl, lr}
    }
    else if IS_SYSTEM(code) {
        host_system_send(KEYCODE2SYSTEM(code));
    }
    else if IS_CONSUMER(code) {
        host_consumer_send(KEYCODE2CONSUMER(code));
 80098dc:	f7fe ba30 	b.w	8007d40 <host_consumer_send>

bool command_proc(uint8_t code)
{
    switch (command_state) {
        case ONESHOT:
            if (!IS_COMMAND())
 80098e0:	4b9e      	ldr	r3, [pc, #632]	; (8009b5c <register_code+0x32c>)
 80098e2:	681b      	ldr	r3, [r3, #0]
 80098e4:	781b      	ldrb	r3, [r3, #0]
 80098e6:	2b22      	cmp	r3, #34	; 0x22
 80098e8:	d10f      	bne.n	800990a <register_code+0xda>
                return false;
            return (command_extra(code) || command_common(code));
 80098ea:	4620      	mov	r0, r4
 80098ec:	f7ff f918 	bl	8008b20 <command_common.lto_priv.41>
    }
#endif

    else if IS_KEY(code) {
        // TODO: should push command_proc out of this block?
        if (command_proc(code)) return;
 80098f0:	b158      	cbz	r0, 800990a <register_code+0xda>
 80098f2:	e8bd 87f0 	ldmia.w	sp!, {r4, r5, r6, r7, r8, r9, sl, pc}
command_state_t command_state = ONESHOT;


bool command_proc(uint8_t code)
{
    switch (command_state) {
 80098f6:	4d9a      	ldr	r5, [pc, #616]	; (8009b60 <register_code+0x330>)
 80098f8:	782b      	ldrb	r3, [r5, #0]
 80098fa:	2b01      	cmp	r3, #1
 80098fc:	f000 8161 	beq.w	8009bc2 <register_code+0x392>
 8009900:	d3ee      	bcc.n	80098e0 <register_code+0xb0>
 8009902:	2b02      	cmp	r3, #2
 8009904:	d036      	beq.n	8009974 <register_code+0x144>
        case MOUSEKEY:
            mousekey_console(code);
            break;
#endif
        default:
            command_state = ONESHOT;
 8009906:	2300      	movs	r3, #0
 8009908:	702b      	strb	r3, [r5, #0]

/* key */
void add_key(uint8_t key)
{
#ifdef NKRO_ENABLE
    if (keyboard_protocol && keyboard_nkro) {
 800990a:	4b96      	ldr	r3, [pc, #600]	; (8009b64 <register_code+0x334>)
 800990c:	781b      	ldrb	r3, [r3, #0]
 800990e:	b123      	cbz	r3, 800991a <register_code+0xea>
 8009910:	4b95      	ldr	r3, [pc, #596]	; (8009b68 <register_code+0x338>)
 8009912:	781b      	ldrb	r3, [r3, #0]
 8009914:	2b00      	cmp	r3, #0
 8009916:	f040 81e8 	bne.w	8009cea <register_code+0x4ba>
 800991a:	4a90      	ldr	r2, [pc, #576]	; (8009b5c <register_code+0x32c>)

/*
 * Utilities for actions.
 */
void register_code(uint8_t code)
{
 800991c:	2300      	movs	r3, #0
 800991e:	6817      	ldr	r7, [r2, #0]
 8009920:	20ff      	movs	r0, #255	; 0xff
 8009922:	1c79      	adds	r1, r7, #1
 8009924:	e002      	b.n	800992c <register_code+0xfc>
    cb_tail = RO_INC(cb_tail);
    cb_count++;
#else
    int8_t i = 0;
    int8_t empty = -1;
    for (; i < KEYBOARD_REPORT_KEYS; i++) {
 8009926:	2b0e      	cmp	r3, #14
 8009928:	f000 81cd 	beq.w	8009cc6 <register_code+0x496>
        if (keyboard_report->keys[i] == code) {
 800992c:	f811 2f01 	ldrb.w	r2, [r1, #1]!
 8009930:	b2de      	uxtb	r6, r3
 8009932:	4294      	cmp	r4, r2
            break;
        }
        if (empty == -1 && keyboard_report->keys[i] == 0) {
 8009934:	b245      	sxtb	r5, r0
 8009936:	f103 0301 	add.w	r3, r3, #1
    cb_count++;
#else
    int8_t i = 0;
    int8_t empty = -1;
    for (; i < KEYBOARD_REPORT_KEYS; i++) {
        if (keyboard_report->keys[i] == code) {
 800993a:	d017      	beq.n	800996c <register_code+0x13c>
            break;
        }
        if (empty == -1 && keyboard_report->keys[i] == 0) {
 800993c:	3501      	adds	r5, #1
 800993e:	d1f2      	bne.n	8009926 <register_code+0xf6>
 8009940:	2a00      	cmp	r2, #0
 8009942:	bf08      	it	eq
 8009944:	4630      	moveq	r0, r6
 8009946:	e7ee      	b.n	8009926 <register_code+0xf6>
    else if IS_MOD(code) {
        add_mods(MOD_BIT(code));
        send_keyboard_report();
    }
    else if IS_SYSTEM(code) {
        host_system_send(KEYCODE2SYSTEM(code));
 8009948:	28a5      	cmp	r0, #165	; 0xa5
 800994a:	f000 81b8 	beq.w	8009cbe <register_code+0x48e>
 800994e:	28a6      	cmp	r0, #166	; 0xa6
 8009950:	bf0c      	ite	eq
 8009952:	2082      	moveq	r0, #130	; 0x82
 8009954:	2083      	movne	r0, #131	; 0x83
    }
    else if IS_CONSUMER(code) {
        host_consumer_send(KEYCODE2CONSUMER(code));
    }
}
 8009956:	e8bd 47f0 	ldmia.w	sp!, {r4, r5, r6, r7, r8, r9, sl, lr}
    else if IS_MOD(code) {
        add_mods(MOD_BIT(code));
        send_keyboard_report();
    }
    else if IS_SYSTEM(code) {
        host_system_send(KEYCODE2SYSTEM(code));
 800995a:	f7fe ba01 	b.w	8007d60 <host_system_send>
            add_key(code);
            send_keyboard_report();
        }
    }
    else if IS_MOD(code) {
        add_mods(MOD_BIT(code));
 800995e:	f000 0407 	and.w	r4, r0, #7
 8009962:	2001      	movs	r0, #1
 8009964:	40a0      	lsls	r0, r4
 8009966:	b2c0      	uxtb	r0, r0
 8009968:	f7ff fb9a 	bl	80090a0 <add_mods>
        host_system_send(KEYCODE2SYSTEM(code));
    }
    else if IS_CONSUMER(code) {
        host_consumer_send(KEYCODE2CONSUMER(code));
    }
}
 800996c:	e8bd 47f0 	ldmia.w	sp!, {r4, r5, r6, r7, r8, r9, sl, lr}
            send_keyboard_report();
        }
    }
    else if IS_MOD(code) {
        add_mods(MOD_BIT(code));
        send_keyboard_report();
 8009970:	f7ff bb9e 	b.w	80090b0 <send_keyboard_report>
            "See http://en.wikipedia.org/wiki/Mouse_keys\n", MOUSEKEY_MOVE_DELTA,  MOUSEKEY_WHEEL_DELTA);
}

static bool mousekey_console(uint8_t code)
{
    switch (code) {
 8009974:	1fc3      	subs	r3, r0, #7
 8009976:	2b4b      	cmp	r3, #75	; 0x4b
 8009978:	f200 811e 	bhi.w	8009bb8 <register_code+0x388>
 800997c:	e8df f013 	tbh	[pc, r3, lsl #1]
 8009980:	011c00c9 	.word	0x011c00c9
 8009984:	011c011c 	.word	0x011c011c
 8009988:	011c00e9 	.word	0x011c00e9
 800998c:	011c011c 	.word	0x011c011c
 8009990:	011c011c 	.word	0x011c011c
 8009994:	011c011c 	.word	0x011c011c
 8009998:	00790081 	.word	0x00790081
 800999c:	011c011c 	.word	0x011c011c
 80099a0:	011c011c 	.word	0x011c011c
 80099a4:	011c011c 	.word	0x011c011c
 80099a8:	011c011c 	.word	0x011c011c
 80099ac:	0071011c 	.word	0x0071011c
 80099b0:	00710071 	.word	0x00710071
 80099b4:	00710071 	.word	0x00710071
 80099b8:	011c0071 	.word	0x011c0071
 80099bc:	011c011c 	.word	0x011c011c
 80099c0:	011c011c 	.word	0x011c011c
 80099c4:	011c0079 	.word	0x011c0079
 80099c8:	011c011c 	.word	0x011c011c
 80099cc:	011c011c 	.word	0x011c011c
 80099d0:	011c011c 	.word	0x011c011c
 80099d4:	011c011c 	.word	0x011c011c
 80099d8:	011c011c 	.word	0x011c011c
 80099dc:	011c011c 	.word	0x011c011c
 80099e0:	00e9011c 	.word	0x00e9011c
 80099e4:	011c011c 	.word	0x011c011c
 80099e8:	011c011c 	.word	0x011c011c
 80099ec:	011c011c 	.word	0x011c011c
 80099f0:	011c011c 	.word	0x011c011c
 80099f4:	011c011c 	.word	0x011c011c
 80099f8:	011c011c 	.word	0x011c011c
 80099fc:	011c011c 	.word	0x011c011c
 8009a00:	011c011c 	.word	0x011c011c
 8009a04:	011c011c 	.word	0x011c011c
 8009a08:	011c006a 	.word	0x011c006a
 8009a0c:	0063011c 	.word	0x0063011c
 8009a10:	011c011c 	.word	0x011c011c
 8009a14:	004e005c 	.word	0x004e005c
    }
    else if IS_SYSTEM(code) {
        host_system_send(KEYCODE2SYSTEM(code));
    }
    else if IS_CONSUMER(code) {
        host_consumer_send(KEYCODE2CONSUMER(code));
 8009a18:	20ea      	movs	r0, #234	; 0xea
 8009a1a:	e75d      	b.n	80098d8 <register_code+0xa8>
        case KC_5:
        case KC_6:
            mousekey_param = numkey2num(code);
            break;
        case KC_UP:
            mousekey_param_inc(mousekey_param, 1);
 8009a1c:	4c53      	ldr	r4, [pc, #332]	; (8009b6c <register_code+0x33c>)
 8009a1e:	2101      	movs	r1, #1
 8009a20:	7820      	ldrb	r0, [r4, #0]
 8009a22:	f7ff f805 	bl	8008a30 <mousekey_param_inc.lto_priv.43>
 8009a26:	7821      	ldrb	r1, [r4, #0]
            break;
        default:
            print("?");
            return false;
    }
    if (mousekey_param)
 8009a28:	2900      	cmp	r1, #0
 8009a2a:	f040 8155 	bne.w	8009cd8 <register_code+0x4a8>
    }
}
 8009a2e:	e8bd 47f0 	ldmia.w	sp!, {r4, r5, r6, r7, r8, r9, sl, lr}
        xprintf("M%d> ", mousekey_param);
    else
        print("M>" );
 8009a32:	484f      	ldr	r0, [pc, #316]	; (8009b70 <register_code+0x340>)
 8009a34:	f7fe be54 	b.w	80086e0 <tfp_printf>
            break;
        case KC_UP:
            mousekey_param_inc(mousekey_param, 1);
            break;
        case KC_DOWN:
            mousekey_param_dec(mousekey_param, 1);
 8009a38:	4c4c      	ldr	r4, [pc, #304]	; (8009b6c <register_code+0x33c>)
 8009a3a:	2101      	movs	r1, #1
 8009a3c:	7820      	ldrb	r0, [r4, #0]
 8009a3e:	f7fe ff7f 	bl	8008940 <mousekey_param_dec.lto_priv.42>
 8009a42:	7821      	ldrb	r1, [r4, #0]
 8009a44:	e7f0      	b.n	8009a28 <register_code+0x1f8>
            break;
        case KC_PGUP:
            mousekey_param_inc(mousekey_param, 10);
            break;
        case KC_PGDN:
            mousekey_param_dec(mousekey_param, 10);
 8009a46:	4c49      	ldr	r4, [pc, #292]	; (8009b6c <register_code+0x33c>)
 8009a48:	210a      	movs	r1, #10
 8009a4a:	7820      	ldrb	r0, [r4, #0]
 8009a4c:	f7fe ff78 	bl	8008940 <mousekey_param_dec.lto_priv.42>
 8009a50:	7821      	ldrb	r1, [r4, #0]
 8009a52:	e7e9      	b.n	8009a28 <register_code+0x1f8>
            break;
        case KC_DOWN:
            mousekey_param_dec(mousekey_param, 1);
            break;
        case KC_PGUP:
            mousekey_param_inc(mousekey_param, 10);
 8009a54:	4c45      	ldr	r4, [pc, #276]	; (8009b6c <register_code+0x33c>)
 8009a56:	210a      	movs	r1, #10
 8009a58:	7820      	ldrb	r0, [r4, #0]
 8009a5a:	f7fe ffe9 	bl	8008a30 <mousekey_param_inc.lto_priv.43>
 8009a5e:	7821      	ldrb	r1, [r4, #0]
 8009a60:	e7e2      	b.n	8009a28 <register_code+0x1f8>
 8009a62:	f1a0 031e 	sub.w	r3, r0, #30
 8009a66:	4a43      	ldr	r2, [pc, #268]	; (8009b74 <register_code+0x344>)
 8009a68:	b2db      	uxtb	r3, r3
 8009a6a:	5cd1      	ldrb	r1, [r2, r3]
        case KC_2:
        case KC_3:
        case KC_4:
        case KC_5:
        case KC_6:
            mousekey_param = numkey2num(code);
 8009a6c:	4b3f      	ldr	r3, [pc, #252]	; (8009b6c <register_code+0x33c>)
 8009a6e:	7019      	strb	r1, [r3, #0]
 8009a70:	e7da      	b.n	8009a28 <register_code+0x1f8>
        case KC_SLASH: /* ? */
            mousekey_console_help();
            break;
        case KC_Q:
        case KC_ESC:
            if (mousekey_param) {
 8009a72:	4b3e      	ldr	r3, [pc, #248]	; (8009b6c <register_code+0x33c>)
 8009a74:	781a      	ldrb	r2, [r3, #0]
 8009a76:	2a00      	cmp	r2, #0
 8009a78:	f000 8158 	beq.w	8009d2c <register_code+0x4fc>
                mousekey_param = 0;
 8009a7c:	2200      	movs	r2, #0
 8009a7e:	701a      	strb	r2, [r3, #0]
 8009a80:	e7d5      	b.n	8009a2e <register_code+0x1fe>
 ***********************************************************/
static uint8_t mousekey_param = 0;

static void mousekey_param_print(void)
{
    print("\n\t- Values -\n");
 8009a82:	483d      	ldr	r0, [pc, #244]	; (8009b78 <register_code+0x348>)
 8009a84:	f7fe fe2c 	bl	80086e0 <tfp_printf>
    print("1: delay(*10ms): "); pdec(mk_delay); print("\n");
 8009a88:	483c      	ldr	r0, [pc, #240]	; (8009b7c <register_code+0x34c>)
 8009a8a:	f7fe fe29 	bl	80086e0 <tfp_printf>
 8009a8e:	4b3c      	ldr	r3, [pc, #240]	; (8009b80 <register_code+0x350>)
 8009a90:	483c      	ldr	r0, [pc, #240]	; (8009b84 <register_code+0x354>)
 8009a92:	7819      	ldrb	r1, [r3, #0]
 8009a94:	f7fe fe24 	bl	80086e0 <tfp_printf>
 8009a98:	483b      	ldr	r0, [pc, #236]	; (8009b88 <register_code+0x358>)
 8009a9a:	f7fe fe21 	bl	80086e0 <tfp_printf>
    print("2: interval(ms): "); pdec(mk_interval); print("\n");
 8009a9e:	483b      	ldr	r0, [pc, #236]	; (8009b8c <register_code+0x35c>)
 8009aa0:	f7fe fe1e 	bl	80086e0 <tfp_printf>
 8009aa4:	4b3a      	ldr	r3, [pc, #232]	; (8009b90 <register_code+0x360>)
 8009aa6:	4837      	ldr	r0, [pc, #220]	; (8009b84 <register_code+0x354>)
 8009aa8:	7819      	ldrb	r1, [r3, #0]
 8009aaa:	f7fe fe19 	bl	80086e0 <tfp_printf>
 8009aae:	4836      	ldr	r0, [pc, #216]	; (8009b88 <register_code+0x358>)
 8009ab0:	f7fe fe16 	bl	80086e0 <tfp_printf>
    print("3: max_speed: "); pdec(mk_max_speed); print("\n");
 8009ab4:	4837      	ldr	r0, [pc, #220]	; (8009b94 <register_code+0x364>)
 8009ab6:	f7fe fe13 	bl	80086e0 <tfp_printf>
 8009aba:	4b37      	ldr	r3, [pc, #220]	; (8009b98 <register_code+0x368>)
 8009abc:	4831      	ldr	r0, [pc, #196]	; (8009b84 <register_code+0x354>)
 8009abe:	7819      	ldrb	r1, [r3, #0]
 8009ac0:	f7fe fe0e 	bl	80086e0 <tfp_printf>
 8009ac4:	4830      	ldr	r0, [pc, #192]	; (8009b88 <register_code+0x358>)
 8009ac6:	f7fe fe0b 	bl	80086e0 <tfp_printf>
    print("4: time_to_max: "); pdec(mk_time_to_max); print("\n");
 8009aca:	4834      	ldr	r0, [pc, #208]	; (8009b9c <register_code+0x36c>)
 8009acc:	f7fe fe08 	bl	80086e0 <tfp_printf>
 8009ad0:	4b33      	ldr	r3, [pc, #204]	; (8009ba0 <register_code+0x370>)
 8009ad2:	482c      	ldr	r0, [pc, #176]	; (8009b84 <register_code+0x354>)
 8009ad4:	7819      	ldrb	r1, [r3, #0]
 8009ad6:	f7fe fe03 	bl	80086e0 <tfp_printf>
 8009ada:	482b      	ldr	r0, [pc, #172]	; (8009b88 <register_code+0x358>)
 8009adc:	f7fe fe00 	bl	80086e0 <tfp_printf>
    print("5: wheel_max_speed: "); pdec(mk_wheel_max_speed); print("\n");
 8009ae0:	4830      	ldr	r0, [pc, #192]	; (8009ba4 <register_code+0x374>)
 8009ae2:	f7fe fdfd 	bl	80086e0 <tfp_printf>
 8009ae6:	4b30      	ldr	r3, [pc, #192]	; (8009ba8 <register_code+0x378>)
 8009ae8:	4826      	ldr	r0, [pc, #152]	; (8009b84 <register_code+0x354>)
 8009aea:	7819      	ldrb	r1, [r3, #0]
 8009aec:	f7fe fdf8 	bl	80086e0 <tfp_printf>
 8009af0:	4825      	ldr	r0, [pc, #148]	; (8009b88 <register_code+0x358>)
 8009af2:	f7fe fdf5 	bl	80086e0 <tfp_printf>
    print("6: wheel_time_to_max: "); pdec(mk_wheel_time_to_max); print("\n");
 8009af6:	482d      	ldr	r0, [pc, #180]	; (8009bac <register_code+0x37c>)
 8009af8:	f7fe fdf2 	bl	80086e0 <tfp_printf>
 8009afc:	4b2c      	ldr	r3, [pc, #176]	; (8009bb0 <register_code+0x380>)
 8009afe:	4821      	ldr	r0, [pc, #132]	; (8009b84 <register_code+0x354>)
 8009b00:	7819      	ldrb	r1, [r3, #0]
 8009b02:	f7fe fded 	bl	80086e0 <tfp_printf>
 8009b06:	4820      	ldr	r0, [pc, #128]	; (8009b88 <register_code+0x358>)
 8009b08:	f7fe fdea 	bl	80086e0 <tfp_printf>
 8009b0c:	4b17      	ldr	r3, [pc, #92]	; (8009b6c <register_code+0x33c>)
 8009b0e:	7819      	ldrb	r1, [r3, #0]
 8009b10:	e78a      	b.n	8009a28 <register_code+0x1f8>
        case KC_D:
            mk_delay = MOUSEKEY_DELAY/10;
            mk_interval = MOUSEKEY_INTERVAL;
            mk_max_speed = MOUSEKEY_MAX_SPEED;
            mk_time_to_max = MOUSEKEY_TIME_TO_MAX;
            mk_wheel_max_speed = MOUSEKEY_WHEEL_MAX_SPEED;
 8009b12:	4925      	ldr	r1, [pc, #148]	; (8009ba8 <register_code+0x378>)
            mk_wheel_time_to_max = MOUSEKEY_WHEEL_TIME_TO_MAX;
 8009b14:	4b26      	ldr	r3, [pc, #152]	; (8009bb0 <register_code+0x380>)
        case KC_PGDN:
            mousekey_param_dec(mousekey_param, 10);
            break;
        case KC_D:
            mk_delay = MOUSEKEY_DELAY/10;
            mk_interval = MOUSEKEY_INTERVAL;
 8009b16:	f8df c078 	ldr.w	ip, [pc, #120]	; 8009b90 <register_code+0x360>
            break;
        case KC_PGDN:
            mousekey_param_dec(mousekey_param, 10);
            break;
        case KC_D:
            mk_delay = MOUSEKEY_DELAY/10;
 8009b1a:	f8df 9064 	ldr.w	r9, [pc, #100]	; 8009b80 <register_code+0x350>
            mk_interval = MOUSEKEY_INTERVAL;
            mk_max_speed = MOUSEKEY_MAX_SPEED;
 8009b1e:	4f1e      	ldr	r7, [pc, #120]	; (8009b98 <register_code+0x368>)
            mk_time_to_max = MOUSEKEY_TIME_TO_MAX;
 8009b20:	4d1f      	ldr	r5, [pc, #124]	; (8009ba0 <register_code+0x370>)
            mousekey_param_dec(mousekey_param, 10);
            break;
        case KC_D:
            mk_delay = MOUSEKEY_DELAY/10;
            mk_interval = MOUSEKEY_INTERVAL;
            mk_max_speed = MOUSEKEY_MAX_SPEED;
 8009b22:	f04f 0e0a 	mov.w	lr, #10
            mk_time_to_max = MOUSEKEY_TIME_TO_MAX;
            mk_wheel_max_speed = MOUSEKEY_WHEEL_MAX_SPEED;
            mk_wheel_time_to_max = MOUSEKEY_WHEEL_TIME_TO_MAX;
 8009b26:	2228      	movs	r2, #40	; 0x28
            break;
        case KC_PGDN:
            mousekey_param_dec(mousekey_param, 10);
            break;
        case KC_D:
            mk_delay = MOUSEKEY_DELAY/10;
 8009b28:	f04f 0a1e 	mov.w	sl, #30
            mk_interval = MOUSEKEY_INTERVAL;
 8009b2c:	f04f 0832 	mov.w	r8, #50	; 0x32
            mk_max_speed = MOUSEKEY_MAX_SPEED;
            mk_time_to_max = MOUSEKEY_TIME_TO_MAX;
 8009b30:	2614      	movs	r6, #20
            mk_wheel_max_speed = MOUSEKEY_WHEEL_MAX_SPEED;
 8009b32:	2408      	movs	r4, #8
            mk_wheel_time_to_max = MOUSEKEY_WHEEL_TIME_TO_MAX;
            print("set default\n");
 8009b34:	481f      	ldr	r0, [pc, #124]	; (8009bb4 <register_code+0x384>)
        case KC_D:
            mk_delay = MOUSEKEY_DELAY/10;
            mk_interval = MOUSEKEY_INTERVAL;
            mk_max_speed = MOUSEKEY_MAX_SPEED;
            mk_time_to_max = MOUSEKEY_TIME_TO_MAX;
            mk_wheel_max_speed = MOUSEKEY_WHEEL_MAX_SPEED;
 8009b36:	700c      	strb	r4, [r1, #0]
            mk_wheel_time_to_max = MOUSEKEY_WHEEL_TIME_TO_MAX;
 8009b38:	701a      	strb	r2, [r3, #0]
            break;
        case KC_PGDN:
            mousekey_param_dec(mousekey_param, 10);
            break;
        case KC_D:
            mk_delay = MOUSEKEY_DELAY/10;
 8009b3a:	f889 a000 	strb.w	sl, [r9]
            mk_interval = MOUSEKEY_INTERVAL;
 8009b3e:	f88c 8000 	strb.w	r8, [ip]
            mk_max_speed = MOUSEKEY_MAX_SPEED;
 8009b42:	f887 e000 	strb.w	lr, [r7]
            mk_time_to_max = MOUSEKEY_TIME_TO_MAX;
 8009b46:	702e      	strb	r6, [r5, #0]
            mk_wheel_max_speed = MOUSEKEY_WHEEL_MAX_SPEED;
            mk_wheel_time_to_max = MOUSEKEY_WHEEL_TIME_TO_MAX;
            print("set default\n");
 8009b48:	f7fe fdca 	bl	80086e0 <tfp_printf>
 8009b4c:	4b07      	ldr	r3, [pc, #28]	; (8009b6c <register_code+0x33c>)
 8009b4e:	7819      	ldrb	r1, [r3, #0]
 8009b50:	e76a      	b.n	8009a28 <register_code+0x1f8>
static bool mousekey_console(uint8_t code)
{
    switch (code) {
        case KC_H:
        case KC_SLASH: /* ? */
            mousekey_console_help();
 8009b52:	f7fe fee5 	bl	8008920 <mousekey_console_help.lto_priv.44>
 8009b56:	4b05      	ldr	r3, [pc, #20]	; (8009b6c <register_code+0x33c>)
 8009b58:	7819      	ldrb	r1, [r3, #0]
 8009b5a:	e765      	b.n	8009a28 <register_code+0x1f8>
 8009b5c:	20001238 	.word	0x20001238
 8009b60:	2000154d 	.word	0x2000154d
 8009b64:	20001231 	.word	0x20001231
 8009b68:	20001234 	.word	0x20001234
 8009b6c:	200015d8 	.word	0x200015d8
 8009b70:	0800a958 	.word	0x0800a958
 8009b74:	0800a880 	.word	0x0800a880
 8009b78:	0800a8b4 	.word	0x0800a8b4
 8009b7c:	0800a8c4 	.word	0x0800a8c4
 8009b80:	20001233 	.word	0x20001233
 8009b84:	0800a828 	.word	0x0800a828
 8009b88:	0800a8c0 	.word	0x0800a8c0
 8009b8c:	0800a8d8 	.word	0x0800a8d8
 8009b90:	2000122f 	.word	0x2000122f
 8009b94:	0800a8ec 	.word	0x0800a8ec
 8009b98:	2000122d 	.word	0x2000122d
 8009b9c:	0800a8fc 	.word	0x0800a8fc
 8009ba0:	20001230 	.word	0x20001230
 8009ba4:	0800a910 	.word	0x0800a910
 8009ba8:	20001232 	.word	0x20001232
 8009bac:	0800a928 	.word	0x0800a928
 8009bb0:	2000122e 	.word	0x2000122e
 8009bb4:	0800a940 	.word	0x0800a940
            mk_wheel_max_speed = MOUSEKEY_WHEEL_MAX_SPEED;
            mk_wheel_time_to_max = MOUSEKEY_WHEEL_TIME_TO_MAX;
            print("set default\n");
            break;
        default:
            print("?");
 8009bb8:	486d      	ldr	r0, [pc, #436]	; (8009d70 <register_code+0x540>)
 8009bba:	e8bd 47f0 	ldmia.w	sp!, {r4, r5, r6, r7, r8, r9, sl, lr}
 8009bbe:	f7fe bd8f 	b.w	80086e0 <tfp_printf>
            if (!IS_COMMAND())
                return false;
            return (command_extra(code) || command_common(code));
            break;
        case CONSOLE:
            if (IS_COMMAND())
 8009bc2:	4b6c      	ldr	r3, [pc, #432]	; (8009d74 <register_code+0x544>)
 8009bc4:	681b      	ldr	r3, [r3, #0]
 8009bc6:	781b      	ldrb	r3, [r3, #0]
 8009bc8:	2b22      	cmp	r3, #34	; 0x22
 8009bca:	f43f ae8e 	beq.w	80098ea <register_code+0xba>
    );
}

static bool command_console(uint8_t code)
{
    switch (code) {
 8009bce:	f1a0 030b 	sub.w	r3, r0, #11
 8009bd2:	2b2d      	cmp	r3, #45	; 0x2d
 8009bd4:	d86f      	bhi.n	8009cb6 <register_code+0x486>
 8009bd6:	a201      	add	r2, pc, #4	; (adr r2, 8009bdc <register_code+0x3ac>)
 8009bd8:	f852 f023 	ldr.w	pc, [r2, r3, lsl #2]
 8009bdc:	08009ca7 	.word	0x08009ca7
 8009be0:	08009cb7 	.word	0x08009cb7
 8009be4:	08009cb7 	.word	0x08009cb7
 8009be8:	08009cb7 	.word	0x08009cb7
 8009bec:	08009cb7 	.word	0x08009cb7
 8009bf0:	08009c95 	.word	0x08009c95
 8009bf4:	08009cb7 	.word	0x08009cb7
 8009bf8:	08009cb7 	.word	0x08009cb7
 8009bfc:	08009cb7 	.word	0x08009cb7
 8009c00:	08009907 	.word	0x08009907
 8009c04:	08009cb7 	.word	0x08009cb7
 8009c08:	08009cb7 	.word	0x08009cb7
 8009c0c:	08009cb7 	.word	0x08009cb7
 8009c10:	08009cb7 	.word	0x08009cb7
 8009c14:	08009cb7 	.word	0x08009cb7
 8009c18:	08009cb7 	.word	0x08009cb7
 8009c1c:	08009cb7 	.word	0x08009cb7
 8009c20:	08009cb7 	.word	0x08009cb7
 8009c24:	08009cb7 	.word	0x08009cb7
 8009c28:	08009cb7 	.word	0x08009cb7
 8009c2c:	08009cb7 	.word	0x08009cb7
 8009c30:	08009cb7 	.word	0x08009cb7
 8009c34:	08009cb7 	.word	0x08009cb7
 8009c38:	08009cb7 	.word	0x08009cb7
 8009c3c:	08009cb7 	.word	0x08009cb7
 8009c40:	08009cb7 	.word	0x08009cb7
 8009c44:	08009cb7 	.word	0x08009cb7
 8009c48:	08009cb7 	.word	0x08009cb7
 8009c4c:	08009cb7 	.word	0x08009cb7
 8009c50:	08009cb7 	.word	0x08009cb7
 8009c54:	08009907 	.word	0x08009907
 8009c58:	08009cb7 	.word	0x08009cb7
 8009c5c:	08009cb7 	.word	0x08009cb7
 8009c60:	08009cb7 	.word	0x08009cb7
 8009c64:	08009cb7 	.word	0x08009cb7
 8009c68:	08009cb7 	.word	0x08009cb7
 8009c6c:	08009cb7 	.word	0x08009cb7
 8009c70:	08009cb7 	.word	0x08009cb7
 8009c74:	08009cb7 	.word	0x08009cb7
 8009c78:	08009cb7 	.word	0x08009cb7
 8009c7c:	08009cb7 	.word	0x08009cb7
 8009c80:	08009cb7 	.word	0x08009cb7
 8009c84:	08009cb7 	.word	0x08009cb7
 8009c88:	08009cb7 	.word	0x08009cb7
 8009c8c:	08009cb7 	.word	0x08009cb7
 8009c90:	08009ca7 	.word	0x08009ca7
        case KC_ESC:
            command_state = ONESHOT;
            return false;
#ifdef MOUSEKEY_ENABLE
        case KC_M:
            mousekey_console_help();
 8009c94:	f7fe fe44 	bl	8008920 <mousekey_console_help.lto_priv.44>
            print("M> ");
 8009c98:	4837      	ldr	r0, [pc, #220]	; (8009d78 <register_code+0x548>)
 8009c9a:	f7fe fd21 	bl	80086e0 <tfp_printf>
            command_state = MOUSEKEY;
 8009c9e:	2302      	movs	r3, #2
 8009ca0:	702b      	strb	r3, [r5, #0]
 8009ca2:	e8bd 87f0 	ldmia.w	sp!, {r4, r5, r6, r7, r8, r9, sl, pc}
/***********************************************************
 * Command console
 ***********************************************************/
static void command_console_help(void)
{
    print("\n\t- Console -\n"
 8009ca6:	4835      	ldr	r0, [pc, #212]	; (8009d7c <register_code+0x54c>)
 8009ca8:	f7fe fd1a 	bl	80086e0 <tfp_printf>
#endif
        default:
            print("?");
            return false;
    }
    print("C> ");
 8009cac:	4834      	ldr	r0, [pc, #208]	; (8009d80 <register_code+0x550>)
 8009cae:	f7fe fd17 	bl	80086e0 <tfp_printf>
 8009cb2:	e8bd 87f0 	ldmia.w	sp!, {r4, r5, r6, r7, r8, r9, sl, pc}
            print("M> ");
            command_state = MOUSEKEY;
            return true;
#endif
        default:
            print("?");
 8009cb6:	482e      	ldr	r0, [pc, #184]	; (8009d70 <register_code+0x540>)
 8009cb8:	f7fe fd12 	bl	80086e0 <tfp_printf>
 8009cbc:	e625      	b.n	800990a <register_code+0xda>
    else if IS_MOD(code) {
        add_mods(MOD_BIT(code));
        send_keyboard_report();
    }
    else if IS_SYSTEM(code) {
        host_system_send(KEYCODE2SYSTEM(code));
 8009cbe:	2081      	movs	r0, #129	; 0x81
 8009cc0:	e649      	b.n	8009956 <register_code+0x126>
    }
    else if IS_CONSUMER(code) {
        host_consumer_send(KEYCODE2CONSUMER(code));
 8009cc2:	20e2      	movs	r0, #226	; 0xe2
 8009cc4:	e608      	b.n	80098d8 <register_code+0xa8>
            empty = i;
        }
    }
    if (i == KEYBOARD_REPORT_KEYS) {
        if (empty != -1) {
 8009cc6:	b240      	sxtb	r0, r0
 8009cc8:	1c43      	adds	r3, r0, #1
 8009cca:	f43f ae4f 	beq.w	800996c <register_code+0x13c>
            keyboard_report->keys[empty] = code;
 8009cce:	4438      	add	r0, r7
 8009cd0:	7084      	strb	r4, [r0, #2]
 8009cd2:	e64b      	b.n	800996c <register_code+0x13c>
 8009cd4:	20e9      	movs	r0, #233	; 0xe9
 8009cd6:	e5ff      	b.n	80098d8 <register_code+0xa8>
        default:
            print("?");
            return false;
    }
    if (mousekey_param)
        xprintf("M%d> ", mousekey_param);
 8009cd8:	482a      	ldr	r0, [pc, #168]	; (8009d84 <register_code+0x554>)
    }
}
 8009cda:	e8bd 47f0 	ldmia.w	sp!, {r4, r5, r6, r7, r8, r9, sl, lr}
 8009cde:	f7fe bcff 	b.w	80086e0 <tfp_printf>
    }
    else if IS_SYSTEM(code) {
        host_system_send(KEYCODE2SYSTEM(code));
    }
    else if IS_CONSUMER(code) {
        host_consumer_send(KEYCODE2CONSUMER(code));
 8009ce2:	20b5      	movs	r0, #181	; 0xb5
 8009ce4:	e5f8      	b.n	80098d8 <register_code+0xa8>
 8009ce6:	20b6      	movs	r0, #182	; 0xb6
 8009ce8:	e5f6      	b.n	80098d8 <register_code+0xa8>
}

#ifdef NKRO_ENABLE
static inline void add_key_bit(uint8_t code)
{
    if ((code>>3) < KEYBOARD_REPORT_BITS) {
 8009cea:	08e3      	lsrs	r3, r4, #3
 8009cec:	2b0e      	cmp	r3, #14
 8009cee:	d90b      	bls.n	8009d08 <register_code+0x4d8>
        keyboard_report->nkro.bits[code>>3] |= 1<<(code&7);
    } else {
        dprintf("add_key_bit: can't add: %02X\n", code);
 8009cf0:	4b25      	ldr	r3, [pc, #148]	; (8009d88 <register_code+0x558>)
 8009cf2:	781b      	ldrb	r3, [r3, #0]
 8009cf4:	07da      	lsls	r2, r3, #31
 8009cf6:	f57f ae39 	bpl.w	800996c <register_code+0x13c>
 8009cfa:	4621      	mov	r1, r4
 8009cfc:	4823      	ldr	r0, [pc, #140]	; (8009d8c <register_code+0x55c>)
 8009cfe:	f7fe fcef 	bl	80086e0 <tfp_printf>
 8009d02:	e633      	b.n	800996c <register_code+0x13c>
 8009d04:	20b7      	movs	r0, #183	; 0xb7
 8009d06:	e5e7      	b.n	80098d8 <register_code+0xa8>

#ifdef NKRO_ENABLE
static inline void add_key_bit(uint8_t code)
{
    if ((code>>3) < KEYBOARD_REPORT_BITS) {
        keyboard_report->nkro.bits[code>>3] |= 1<<(code&7);
 8009d08:	4a1a      	ldr	r2, [pc, #104]	; (8009d74 <register_code+0x544>)
 8009d0a:	f004 0407 	and.w	r4, r4, #7
 8009d0e:	6811      	ldr	r1, [r2, #0]
 8009d10:	2201      	movs	r2, #1
 8009d12:	440b      	add	r3, r1
 8009d14:	7859      	ldrb	r1, [r3, #1]
 8009d16:	40a2      	lsls	r2, r4
 8009d18:	430a      	orrs	r2, r1
 8009d1a:	705a      	strb	r2, [r3, #1]
 8009d1c:	e626      	b.n	800996c <register_code+0x13c>
 8009d1e:	20cc      	movs	r0, #204	; 0xcc
 8009d20:	e5da      	b.n	80098d8 <register_code+0xa8>
 8009d22:	20cd      	movs	r0, #205	; 0xcd
 8009d24:	e5d8      	b.n	80098d8 <register_code+0xa8>
 8009d26:	f240 1083 	movw	r0, #387	; 0x183
 8009d2a:	e5d5      	b.n	80098d8 <register_code+0xa8>
        case KC_Q:
        case KC_ESC:
            if (mousekey_param) {
                mousekey_param = 0;
            } else {
                print("C> ");
 8009d2c:	4814      	ldr	r0, [pc, #80]	; (8009d80 <register_code+0x550>)
 8009d2e:	f7fe fcd7 	bl	80086e0 <tfp_printf>
                command_state = CONSOLE;
 8009d32:	2301      	movs	r3, #1
 8009d34:	702b      	strb	r3, [r5, #0]
 8009d36:	e8bd 87f0 	ldmia.w	sp!, {r4, r5, r6, r7, r8, r9, sl, pc}
 8009d3a:	f44f 70c5 	mov.w	r0, #394	; 0x18a
 8009d3e:	e5cb      	b.n	80098d8 <register_code+0xa8>
 8009d40:	f44f 70c9 	mov.w	r0, #402	; 0x192
 8009d44:	e5c8      	b.n	80098d8 <register_code+0xa8>
 8009d46:	f44f 70ca 	mov.w	r0, #404	; 0x194
 8009d4a:	e5c5      	b.n	80098d8 <register_code+0xa8>
 8009d4c:	f240 2021 	movw	r0, #545	; 0x221
 8009d50:	e5c2      	b.n	80098d8 <register_code+0xa8>
 8009d52:	f240 2023 	movw	r0, #547	; 0x223
 8009d56:	e5bf      	b.n	80098d8 <register_code+0xa8>
 8009d58:	f240 2027 	movw	r0, #551	; 0x227
 8009d5c:	e5bc      	b.n	80098d8 <register_code+0xa8>
 8009d5e:	f44f 7009 	mov.w	r0, #548	; 0x224
 8009d62:	e5b9      	b.n	80098d8 <register_code+0xa8>
 8009d64:	f240 2026 	movw	r0, #550	; 0x226
 8009d68:	e5b6      	b.n	80098d8 <register_code+0xa8>
 8009d6a:	f240 2025 	movw	r0, #549	; 0x225
 8009d6e:	e5b3      	b.n	80098d8 <register_code+0xa8>
 8009d70:	0800a7f4 	.word	0x0800a7f4
 8009d74:	20001238 	.word	0x20001238
 8009d78:	0800a8b0 	.word	0x0800a8b0
 8009d7c:	0800a598 	.word	0x0800a598
 8009d80:	0800a5c0 	.word	0x0800a5c0
 8009d84:	0800a950 	.word	0x0800a950
 8009d88:	20001544 	.word	0x20001544
 8009d8c:	0800a95c 	.word	0x0800a95c

08009d90 <memset>:
 8009d90:	b470      	push	{r4, r5, r6}
 8009d92:	0784      	lsls	r4, r0, #30
 8009d94:	d046      	beq.n	8009e24 <memset+0x94>
 8009d96:	1e54      	subs	r4, r2, #1
 8009d98:	2a00      	cmp	r2, #0
 8009d9a:	d041      	beq.n	8009e20 <memset+0x90>
 8009d9c:	b2cd      	uxtb	r5, r1
 8009d9e:	4603      	mov	r3, r0
 8009da0:	e002      	b.n	8009da8 <memset+0x18>
 8009da2:	1e62      	subs	r2, r4, #1
 8009da4:	b3e4      	cbz	r4, 8009e20 <memset+0x90>
 8009da6:	4614      	mov	r4, r2
 8009da8:	f803 5b01 	strb.w	r5, [r3], #1
 8009dac:	079a      	lsls	r2, r3, #30
 8009dae:	d1f8      	bne.n	8009da2 <memset+0x12>
 8009db0:	2c03      	cmp	r4, #3
 8009db2:	d92e      	bls.n	8009e12 <memset+0x82>
 8009db4:	b2cd      	uxtb	r5, r1
 8009db6:	ea45 2505 	orr.w	r5, r5, r5, lsl #8
 8009dba:	2c0f      	cmp	r4, #15
 8009dbc:	ea45 4505 	orr.w	r5, r5, r5, lsl #16
 8009dc0:	d919      	bls.n	8009df6 <memset+0x66>
 8009dc2:	4626      	mov	r6, r4
 8009dc4:	f103 0210 	add.w	r2, r3, #16
 8009dc8:	3e10      	subs	r6, #16
 8009dca:	2e0f      	cmp	r6, #15
 8009dcc:	f842 5c10 	str.w	r5, [r2, #-16]
 8009dd0:	f842 5c0c 	str.w	r5, [r2, #-12]
 8009dd4:	f842 5c08 	str.w	r5, [r2, #-8]
 8009dd8:	f842 5c04 	str.w	r5, [r2, #-4]
 8009ddc:	f102 0210 	add.w	r2, r2, #16
 8009de0:	d8f2      	bhi.n	8009dc8 <memset+0x38>
 8009de2:	f1a4 0210 	sub.w	r2, r4, #16
 8009de6:	f022 020f 	bic.w	r2, r2, #15
 8009dea:	f004 040f 	and.w	r4, r4, #15
 8009dee:	3210      	adds	r2, #16
 8009df0:	2c03      	cmp	r4, #3
 8009df2:	4413      	add	r3, r2
 8009df4:	d90d      	bls.n	8009e12 <memset+0x82>
 8009df6:	461e      	mov	r6, r3
 8009df8:	4622      	mov	r2, r4
 8009dfa:	3a04      	subs	r2, #4
 8009dfc:	2a03      	cmp	r2, #3
 8009dfe:	f846 5b04 	str.w	r5, [r6], #4
 8009e02:	d8fa      	bhi.n	8009dfa <memset+0x6a>
 8009e04:	1f22      	subs	r2, r4, #4
 8009e06:	f022 0203 	bic.w	r2, r2, #3
 8009e0a:	3204      	adds	r2, #4
 8009e0c:	4413      	add	r3, r2
 8009e0e:	f004 0403 	and.w	r4, r4, #3
 8009e12:	b12c      	cbz	r4, 8009e20 <memset+0x90>
 8009e14:	b2c9      	uxtb	r1, r1
 8009e16:	441c      	add	r4, r3
 8009e18:	f803 1b01 	strb.w	r1, [r3], #1
 8009e1c:	42a3      	cmp	r3, r4
 8009e1e:	d1fb      	bne.n	8009e18 <memset+0x88>
 8009e20:	bc70      	pop	{r4, r5, r6}
 8009e22:	4770      	bx	lr
 8009e24:	4614      	mov	r4, r2
 8009e26:	4603      	mov	r3, r0
 8009e28:	e7c2      	b.n	8009db0 <memset+0x20>
 8009e2a:	bf00      	nop
 8009e2c:	0000      	movs	r0, r0
	...

08009e30 <ch_debug>:
 8009e30:	616d 6e69 1600 1840 0204 0844 100c 1814     main..@...D.....
 8009e40:	1c00 1e1d 0000 0000 0000 0000 0000 0000     ................

08009e50 <usbcfg>:
 8009e50:	7521 0800 70e1 0800 7361 0800 70d1 0800     !u...p..as...p..
 8009e60:	6469 656c 0000 0000 5355 2042 6f63 666e     idle....USB conf
 8009e70:	6769 7275 6465 0a2e 0000 0000 654b 6279     igured......Keyb
 8009e80:	616f 6472 7320 6174 7472 0a2e 0000 0000     oard start......
 8009e90:	735b 005d 720a 632f 3020 3231 3433 3635     [s]..r/c 0123456
 8009ea0:	3837 4139 4342 4544 0a46 0000 3025 5832     789ABCDEF...%02X
 8009eb0:	0000 0000 3025 3631 0062 0000 656b 6279     ....%016b...keyb
 8009ec0:	616f 6472 735f 7465 6c5f 6465 203a 0000     oard_set_led: ..

08009ed0 <zero_status>:
	...

08009ee0 <active_status>:
	...

08009ef0 <halted_status>:
 8009ef0:	0001 0000 0000 0000 0000 0000 0000 0000     ................

08009f00 <usb_strings>:
 8009f00:	0004 0000 a070 0800 000c 0000 a060 0800     ....p.......`...
 8009f10:	0028 0000 a1f0 0800 0016 0000 1214 2000     (.............. 

08009f20 <extra_hid_report_desc_data>:
 8009f20:	0105 8009 01a1 0285 0115 b725 0119 b729     ..........%...).
 8009f30:	1075 0195 0081 05c0 090c a101 8501 1503     u...............
 8009f40:	2601 029c 0119 9c2a 7502 9510 8101 c000     .&....*..u......

08009f50 <keyboard_hid_report_desc_data>:
 8009f50:	0105 0609 01a1 0175 0895 0705 e019 e729     ......u.......).
 8009f60:	0015 0125 0281 0195 0875 0381 0595 0175     ..%.....u.....u.
 8009f70:	0805 0119 0529 0291 0195 0375 0391 0695     ....).....u.....
 8009f80:	0875 0015 ff25 0705 0019 ff29 0081 00c0     u...%.....).....

08009f90 <console_ep_config>:
 8009f90:	0003 0000 0000 0000 5bc1 0800 0000 0000     .........[......
 8009fa0:	0010 0000 1488 2000 0000 0000 0002 0000     ....... ........
	...

08009fc0 <mouse_hid_report_descriptor>:
 8009fc0:	0051 0000 a250 0800 0000 0000 0000 0000     Q...P...........

08009fd0 <usb_device_descriptor_data>:
 8009fd0:	0112 0200 0000 4000 feed 6057 0001 0201     .......@..W`....
 8009fe0:	0103 0000 0000 0000 0000 0000 0000 0000     ................

08009ff0 <hid_configuration_descriptor>:
 8009ff0:	0086 0000 a160 0800 0000 0000 0000 0000     ....`...........

0800a000 <console_hid_descriptor>:
 800a000:	0009 0000 a1a4 0800 0000 0000 0000 0000     ................

0800a010 <kbd_ep_config>:
 800a010:	0003 0000 0000 0000 70c1 0800 0000 0000     .........p......
 800a020:	0008 0000 1478 2000 0000 0000 0002 0000     ....x.. ........
	...

0800a040 <extra_hid_descriptor>:
 800a040:	0009 0000 a1bd 0800 0000 0000 0000 0000     ................

0800a050 <nkro_hid_report_descriptor>:
 800a050:	0039 0000 a120 0800 0000 0000 0000 0000     9... ...........

0800a060 <usb_string_vendor>:
 800a060:	030c 0054 004d 004b 0020 00c6 0000 0000     ..T.M.K. .......

0800a070 <usb_string_langid>:
 800a070:	0304 0409 0000 0000 0000 0000 0000 0000     ................

0800a080 <extra_hid_report_descriptor>:
 800a080:	0030 0000 9f20 0800 0000 0000 0000 0000     0... ...........

0800a090 <mouse_hid_descriptor>:
 800a090:	0009 0000 a18b 0800 0000 0000 0000 0000     ................

0800a0a0 <keyboard_hid_descriptor>:
 800a0a0:	0009 0000 a172 0800 0000 0000 0000 0000     ....r...........

0800a0b0 <extra_ep_config>:
 800a0b0:	0003 0000 0000 0000 7081 0800 0000 0000     .........p......
 800a0c0:	0008 0000 1454 2000 0000 0000 0002 0000     ....T.. ........
	...

0800a0e0 <keyboard_hid_report_descriptor>:
 800a0e0:	003f 0000 9f50 0800 0000 0000 0000 0000     ?...P...........

0800a0f0 <CSWTCH.30>:
 800a0f0:	0400 0000 0600 0000 0000 0000 0000 0000     ................

0800a100 <console_hid_report_desc_data>:
 800a100:	3106 09ff a174 7553 1508 2600 00ff 1095     .1..t.Su...&....
 800a110:	7509 0281 00c0 0000 0000 0000 0000 0000     .u..............

0800a120 <nkro_hid_report_desc_data>:
 800a120:	0105 0609 01a1 0175 0895 0705 e019 e729     ......u.......).
 800a130:	0015 0125 0281 0595 0175 0805 0119 0529     ..%.....u.....).
 800a140:	0291 0195 0375 0391 7895 0175 0015 0125     ....u....xu...%.
 800a150:	0705 0019 7729 0281 00c0 0000 0000 0000     ....)w..........

0800a160 <hid_configuration_descriptor_data>:
 800a160:	0209 0086 0105 a000 0932 0004 0100 0103     ........2.......
 800a170:	0001 2109 0111 0100 3f22 0700 8105 0803     ...!...."?......
 800a180:	0a00 0409 0001 0301 0000 0900 1121 0001     ............!...
 800a190:	2201 0051 0507 0382 0008 0901 0204 0100     ."Q.............
 800a1a0:	0003 0000 2109 0111 0100 1522 0700 8305     .....!....".....
 800a1b0:	1003 0100 0409 0003 0301 0000 0900 1121     ..............!.
 800a1c0:	0001 2201 0030 0507 0384 0008 090a 0404     ..."0...........
 800a1d0:	0100 0003 0000 2109 0111 0100 3922 0700     .......!...."9..
 800a1e0:	8505 1003 0100 0000 0000 0000 0000 0000     ................

0800a1f0 <usb_string_description>:
 800a1f0:	0328 0043 0068 0069 0062 0069 004f 0053     (.C.h.i.b.i.O.S.
 800a200:	0020 0054 004d 004b 0020 0050 0068 0061      .T.M.K. .P.h.a.
 800a210:	006e 0074 006f 006d 0000 0000 0000 0000     n.t.o.m.........

0800a220 <nkro_hid_descriptor>:
 800a220:	0009 0000 a1bd 0800 0000 0000 0000 0000     ................

0800a230 <console_hid_report_descriptor>:
 800a230:	0015 0000 a100 0800 0000 0000 0000 0000     ................

0800a240 <usb_device_descriptor>:
 800a240:	0012 0000 9fd0 0800 0000 0000 0000 0000     ................

0800a250 <mouse_hid_report_desc_data>:
 800a250:	0105 0209 01a1 0109 00a1 0905 0119 0529     ..............).
 800a260:	0015 0125 0175 0595 0281 0375 0195 0381     ..%.u.....u.....
 800a270:	0105 3009 3109 8115 7f25 0875 0295 0681     ...0.1..%.u.....
 800a280:	3809 8115 7f25 0035 0045 0875 0195 0681     .8..%.5.E.u.....
 800a290:	0c05 380a 1502 2581 757f 9508 8101 c006     ...8...%.u......
 800a2a0:	00c0 0000 0000 0000 0000 0000 0000 0000     ................

0800a2b0 <mouse_ep_config>:
 800a2b0:	0003 0000 0000 0000 7091 0800 0000 0000     .........p......
 800a2c0:	0008 0000 1464 2000 0000 0000 0002 0000     ....d.. ........
	...

0800a2e0 <nkro_ep_config>:
 800a2e0:	0003 0000 0000 0000 70b1 0800 0000 0000     .........p......
 800a2f0:	0010 0000 1444 2000 0000 0000 0002 0000     ....D.. ........
	...
 800a310:	6f62 6e75 6563 3a21 0020 0000 0000 0000     bounce!: .......
 800a320:	254c 0a64 0000 0000 090a 202d 6f4d 7375     L%d.......- Mous
 800a330:	6b65 7965 2d20 450a 4353 712f 093a 7571     ekey -.ESC/q:.qu
 800a340:	7469 310a 093a 6564 616c 2879 312a 6d30     it.1:.delay(*10m
 800a350:	2973 320a 093a 6e69 6574 7672 6c61 6d28     s).2:.interval(m
 800a360:	2973 330a 093a 616d 5f78 7073 6565 0a64     s).3:.max_speed.
 800a370:	3a34 7409 6d69 5f65 6f74 6d5f 7861 350a     4:.time_to_max.5
 800a380:	093a 6877 6565 5f6c 616d 5f78 7073 6565     :.wheel_max_spee
 800a390:	0a64 3a36 7709 6568 6c65 745f 6d69 5f65     d.6:.wheel_time_
 800a3a0:	6f74 6d5f 7861 0a0a 3a70 7009 6972 746e     to_max..p:.print
 800a3b0:	7620 6c61 6575 0a73 3a64 7309 7465 6420      values.d:.set d
 800a3c0:	6665 7561 746c 0a73 7075 093a 312b 640a     efaults.up:.+1.d
 800a3d0:	776f 3a6e 2d09 0a31 6770 7075 093a 312b     own:.-1.pgup:.+1
 800a3e0:	0a30 6770 6f64 6e77 093a 312d 0a30 730a     0.pgdown:.-10..s
 800a3f0:	6570 6465 3d20 6420 6c65 6174 2a20 6d20     peed = delta * m
 800a400:	7861 735f 6570 6465 2a20 2820 6572 6570     ax_speed * (repe
 800a410:	7461 2f20 7420 6d69 5f65 6f74 6d5f 7861     at / time_to_max
 800a420:	0a29 0000 6877 7265 2065 6564 746c 3a61     )...where delta:
 800a430:	6320 7275 6f73 3d72 6425 202c 6877 6565      cursor=%d, whee
 800a440:	3d6c 6425 530a 6565 6820 7474 3a70 2f2f     l=%d.See http://
 800a450:	6e65 772e 6b69 7069 6465 6169 6f2e 6772     en.wikipedia.org
 800a460:	772f 6b69 2f69 6f4d 7375 5f65 656b 7379     /wiki/Mouse_keys
 800a470:	000a 0000 6b6d 645f 6c65 7961 3d20 2520     ....mk_delay = %
 800a480:	0a64 0000 6b6d 695f 746e 7265 6176 206c     d...mk_interval 
 800a490:	203d 6425 000a 0000 6b6d 6d5f 7861 735f     = %d....mk_max_s
 800a4a0:	6570 6465 3d20 2520 0a64 0000 6b6d 745f     peed = %d...mk_t
 800a4b0:	6d69 5f65 6f74 6d5f 7861 3d20 2520 0a64     ime_to_max = %d.
 800a4c0:	0000 0000 6b6d 775f 6568 6c65 6d5f 7861     ....mk_wheel_max
 800a4d0:	735f 6570 6465 3d20 2520 0a64 0000 0000     _speed = %d.....
 800a4e0:	6b6d 775f 6568 6c65 745f 6d69 5f65 6f74     mk_wheel_time_to
 800a4f0:	6d5f 7861 3d20 2520 0a64 0000 090a 202d     _max = %d.....- 
 800a500:	614d 6967 2063 0a2d 3a64 6409 6265 6775     Magic -.d:.debug
 800a510:	780a 093a 6564 7562 2067 616d 7274 7869     .x:.debug matrix
 800a520:	6b0a 093a 6564 7562 2067 656b 6279 616f     .k:.debug keyboa
 800a530:	6472 6d0a 093a 6564 7562 2067 6f6d 7375     rd.m:.debug mous
 800a540:	0a65 3a76 7609 7265 6973 6e6f 730a 093a     e.v:.version.s:.
 800a550:	7473 7461 7375 630a 093a 6f63 736e 6c6f     status.c:.consol
 800a560:	2065 6f6d 6564 300a 342d 093a 616c 6579     e mode.0-4:.laye
 800a570:	3072 342d 4628 3031 462d 2934 500a 7561     r0-4(F10-F4).Pau
 800a580:	3a73 6209 6f6f 6c74 616f 6564 0a72 3a6e     s:.bootloader.n:
 800a590:	4e09 524b 0a4f 0000 090a 202d 6f43 736e     .NKRO.....- Cons
 800a5a0:	6c6f 2065 0a2d 5345 2f43 3a71 7109 6975     ole -.ESC/q:.qui
 800a5b0:	0a74 3a6d 6d09 756f 6573 656b 0a79 0000     t.m:.mousekey...
 800a5c0:	3e43 0020 0a0a 6f62 746f 6f6c 6461 7265     C> ...bootloader
 800a5d0:	2e2e 202e 0000 0000 640a 6265 6775 203a     ... .....debug: 
 800a5e0:	666f 0a66 0000 0000 640a 6265 6775 203a     off......debug: 
 800a5f0:	6e6f 000a 6d0a 7461 6972 3a78 6f20 0a6e     on...matrix: on.
 800a600:	0000 0000 6d0a 7461 6972 3a78 6f20 6666     .....matrix: off
 800a610:	000a 0000 6b0a 7965 6f62 7261 3a64 6f20     .....keyboard: o
 800a620:	0a6e 0000 6b0a 7965 6f62 7261 3a64 6f20     n....keyboard: o
 800a630:	6666 000a 6d0a 756f 6573 203a 6e6f 000a     ff...mouse: on..
 800a640:	6d0a 756f 6573 203a 666f 0a66 0000 0000     .mouse: off.....
 800a650:	090a 202d 6556 7372 6f69 206e 0a2d 0000     ..- Version -...
 800a660:	4544 4353 203a 5422 4b4d 6b20 7965 6f62     DESC: "TMK keybo
 800a670:	7261 2064 6966 6d72 6177 6572 6f20 6576     ard firmware ove
 800a680:	2072 6843 6269 4f69 2253 000a 4956 3a44     r ChibiOS"..VID:
 800a690:	3020 4678 4545 2844 5422 4b4d 2922 5020      0xFEED("TMK") P
 800a6a0:	4449 203a 7830 3036 3735 2228 6843 6269     ID: 0x6057("Chib
 800a6b0:	4f69 2053 4d54 204b 6850 6e61 6f74 226d     iOS TMK Phantom"
 800a6c0:	2029 4556 3a52 3020 3078 3030 0a31 0000     ) VER: 0x0001...
 800a6d0:	5542 4c49 3a44 3520 6639 3733 3933 642d     BUILD: 59f3739-d
 800a6e0:	7269 7974 2820 3730 303a 3a36 3234 4e20     irty (07:06:42 N
 800a6f0:	766f 3120 2039 3032 3531 0a29 0000 0000     ov 19 2015).....
 800a700:	504f 4954 4e4f 3a53 4320 4948 4942 534f     OPTIONS: CHIBIOS
 800a710:	4d20 554f 4553 454b 2059 5845 5254 4b41      MOUSEKEY EXTRAK
 800a720:	5945 4320 4e4f 4f53 454c 4320 4d4f 414d     EY CONSOLE COMMA
 800a730:	444e 4e20 524b 204f 4f42 544f 4f4c 4441     ND NKRO BOOTLOAD
 800a740:	5245 535f 5a49 0a45 0000 0000 4347 3a43     ER_SIZE.....GCC:
 800a750:	3420 392e 332e 0000 090a 202d 7453 7461      4.9.3....- Stat
 800a760:	7375 2d20 000a 0000 6f68 7473 6b5f 7965     us -....host_key
 800a770:	6f62 7261 5f64 656c 7364 2928 203a 5825     board_leds(): %X
 800a780:	000a 0000 656b 6279 616f 6472 705f 6f72     ....keyboard_pro
 800a790:	6f74 6f63 3a6c 2520 0a58 0000 656b 6279     tocol: %X...keyb
 800a7a0:	616f 6472 695f 6c64 3a65 2520 0a58 0000     oard_idle: %X...
 800a7b0:	656b 6279 616f 6472 6e5f 726b 3a6f 2520     keyboard_nkro: %
 800a7c0:	0a58 0000 6974 656d 5f72 6572 6461 3233     X...timer_read32
 800a7d0:	2928 203a 3025 6c34 0a58 0000 4b4e 4f52     (): %04lX...NKRO
 800a7e0:	203a 6e6f 000a 0000 4b4e 4f52 203a 666f     : on....NKRO: of
 800a7f0:	0a66 0000 003f 0000 6f6d 7375 6b65 7965     f...?...mousekey
 800a800:	5b20 7462 7c6e 2078 2079 2076 5d68 7228      [btn|x y v h](r
 800a810:	7065 612f 6c63 3a29 5b20 0000 007c 0000     ep/acl): [..|...
 800a820:	6425 0000 285d 0000 7525 0000 002f 0000     %d..](..%u../...

0800a830 <ep0config>:
 800a830:	0000 0000 6841 0800 6751 0800 66a1 0800     ....Ah..Qg...f..
 800a840:	0040 0040 1558 2000 1558 2000 0001 0000     @.@.X.. X.. ....
 800a850:	1550 2000 0000 0000 0000 0000 0000 0000     P.. ............
 800a860:	656b 6279 616f 6472 725f 7065 726f 3a74     keyboard_report:
 800a870:	0020 0000 3025 5832 0020 0000 0000 0000      ...%02X .......

0800a880 <CSWTCH.42>:
 800a880:	0201 0403 0605 0807 0009 0000 0000 0000     ................
 800a890:	6564 5f6c 656b 5f79 6962 3a74 6320 6e61     del_key_bit: can
 800a8a0:	7427 6420 6c65 203a 3025 5832 000a 0000     't del: %02X....
 800a8b0:	3e4d 0020 090a 202d 6156 756c 7365 2d20     M> ...- Values -
 800a8c0:	000a 0000 3a31 6420 6c65 7961 2a28 3031     ....1: delay(*10
 800a8d0:	736d 3a29 0020 0000 3a32 6920 746e 7265     ms): ...2: inter
 800a8e0:	6176 286c 736d 3a29 0020 0000 3a33 6d20     val(ms): ...3: m
 800a8f0:	7861 735f 6570 6465 203a 0000 3a34 7420     ax_speed: ..4: t
 800a900:	6d69 5f65 6f74 6d5f 7861 203a 0000 0000     ime_to_max: ....
 800a910:	3a35 7720 6568 6c65 6d5f 7861 735f 6570     5: wheel_max_spe
 800a920:	6465 203a 0000 0000 3a36 7720 6568 6c65     ed: ....6: wheel
 800a930:	745f 6d69 5f65 6f74 6d5f 7861 203a 0000     _time_to_max: ..
 800a940:	6573 2074 6564 6166 6c75 0a74 0000 0000     set default.....
 800a950:	254d 3e64 0020 0000 3e4d 0000 6461 5f64     M%d> ...M>..add_
 800a960:	656b 5f79 6962 3a74 6320 6e61 7427 6120     key_bit: can't a
 800a970:	6464 203a 3025 5832 000a 0000               dd: %02X....
